         w __Jv_RegisterClasses
         U __ZN13sc_mti_access17mti_set_dpi_valueEPv
         U __ZN13sc_mti_access17mti_set_dpi_valueEPv
         U __ZN13sc_mti_access17mti_set_dpi_valueEPv
         U __ZN13sc_mti_access17mti_set_dpi_valueEPv
         U __ZN13sc_mti_access17mti_set_dpi_valueEPv
         U __ZN13sc_mti_access17mti_set_dpi_valueEPv
         U __ZN13sc_mti_access17mti_set_dpi_valueEPv
         U __ZN13sc_mti_access17mti_set_dpi_valueEPv
         U __ZN13sc_mti_access17mti_set_dpi_valueEPv
         U __ZN13sc_mti_access17mti_set_dpi_valueEPv
         U __ZN13sc_mti_access17mti_set_dpi_valueEPv
         U __ZN13sc_mti_access17mti_set_dpi_valueEPv
         U __ZN13sc_mti_access17mti_set_dpi_valueEPv
         U __ZN13sc_mti_access17mti_set_dpi_valueEPv
         U __ZN13sc_mti_access17mti_set_dpi_valueEPv
         U __ZN13sc_mti_access17mti_set_dpi_valueEPv
         U __ZN13sc_mti_access17mti_set_dpi_valueEPv
         U __ZN13sc_mti_access17mti_set_dpi_valueEPv
         U __ZN13sc_mti_access17mti_set_dpi_valueEPv
         U __ZN13sc_mti_access17mti_set_dpi_valueEPv
         U __ZN13sc_mti_access17mti_set_dpi_valueEPv
         U __ZN13sc_mti_access17mti_set_dpi_valueEPv
         U __ZN13sc_mti_access17mti_set_dpi_valueEPv
         U __ZN13sc_mti_access17mti_set_dpi_valueEPv
         U __ZN13sc_mti_access17mti_set_dpi_valueEPv
         U __ZN13sc_mti_access17mti_set_dpi_valueEPv
         U __ZN13sc_mti_access17mti_set_dpi_valueEPv
         U __ZN13sc_mti_access17mti_set_dpi_valueEPv
         U __ZN13sc_mti_access17mti_set_dpi_valueEPv
         U __ZN13sc_mti_access17mti_set_dpi_valueEPv
         U __ZN13sc_mti_access17mti_set_dpi_valueEPv
         U __ZN13sc_mti_access17mti_set_dpi_valueEPv
         U __ZN13sc_mti_access17mti_set_dpi_valueEPv
         U __ZN13sc_mti_access17mti_set_dpi_valueEPv
         U __ZN13sc_mti_access18mti_get_value_sizeEPiS0_S0_
         U __ZN13sc_mti_access18mti_get_value_sizeEPiS0_S0_
         U __ZN13sc_mti_access18mti_get_value_sizeEPiS0_S0_
         U __ZN13sc_mti_access18mti_get_value_sizeEPiS0_S0_
         U __ZN13sc_mti_access18mti_get_value_sizeEPiS0_S0_
         U __ZN13sc_mti_access18mti_get_value_sizeEPiS0_S0_
         U __ZN13sc_mti_access18mti_get_value_sizeEPiS0_S0_
         U __ZN13sc_mti_access18mti_get_value_sizeEPiS0_S0_
         U __ZN13sc_mti_access18mti_get_value_sizeEPiS0_S0_
         U __ZN13sc_mti_access18mti_get_value_sizeEPiS0_S0_
         U __ZN13sc_mti_access18mti_get_value_sizeEPiS0_S0_
         U __ZN13sc_mti_access18mti_get_value_sizeEPiS0_S0_
         U __ZN13sc_mti_access18mti_get_value_sizeEPiS0_S0_
         U __ZN13sc_mti_access18mti_get_value_sizeEPiS0_S0_
         U __ZN13sc_mti_access18mti_get_value_sizeEPiS0_S0_
         U __ZN13sc_mti_access18mti_get_value_sizeEPiS0_S0_
         U __ZN13sc_mti_access18mti_get_value_sizeEPiS0_S0_
         U __ZN13sc_mti_access18mti_get_value_sizeEPiS0_S0_
         U __ZN13sc_mti_access18mti_get_value_sizeEPiS0_S0_
         U __ZN13sc_mti_access18mti_get_value_sizeEPiS0_S0_
         U __ZN13sc_mti_access18mti_get_value_sizeEPiS0_S0_
         U __ZN13sc_mti_access18mti_get_value_sizeEPiS0_S0_
         U __ZN13sc_mti_access18mti_get_value_sizeEPiS0_S0_
         U __ZN13sc_mti_access18mti_get_value_sizeEPiS0_S0_
         U __ZN13sc_mti_access18mti_get_value_sizeEPiS0_S0_
         U __ZN13sc_mti_access18mti_get_value_sizeEPiS0_S0_
         U __ZN13sc_mti_access18mti_get_value_sizeEPiS0_S0_
         U __ZN13sc_mti_access18mti_get_value_sizeEPiS0_S0_
         U __ZN13sc_mti_access18mti_get_value_sizeEPiS0_S0_
         U __ZN13sc_mti_access18mti_get_value_sizeEPiS0_S0_
         U __ZN13sc_mti_access18mti_get_value_sizeEPiS0_S0_
         U __ZN13sc_mti_access18mti_get_value_sizeEPiS0_S0_
         U __ZN13sc_mti_access18mti_get_value_sizeEPiS0_S0_
         U __ZN13sc_mti_access18mti_get_value_sizeEPiS0_S0_
         U __ZN13sc_mti_access18mti_get_value_typeEv
         U __ZN13sc_mti_access18mti_get_value_typeEv
         U __ZN13sc_mti_access18mti_get_value_typeEv
         U __ZN13sc_mti_access18mti_get_value_typeEv
         U __ZN13sc_mti_access18mti_get_value_typeEv
         U __ZN13sc_mti_access18mti_get_value_typeEv
         U __ZN13sc_mti_access18mti_get_value_typeEv
         U __ZN13sc_mti_access18mti_get_value_typeEv
         U __ZN13sc_mti_access18mti_get_value_typeEv
         U __ZN13sc_mti_access18mti_get_value_typeEv
         U __ZN13sc_mti_access18mti_get_value_typeEv
         U __ZN13sc_mti_access18mti_get_value_typeEv
         U __ZN13sc_mti_access18mti_get_value_typeEv
         U __ZN13sc_mti_access18mti_get_value_typeEv
         U __ZN13sc_mti_access18mti_get_value_typeEv
         U __ZN13sc_mti_access18mti_get_value_typeEv
         U __ZN13sc_mti_access18mti_get_value_typeEv
         U __ZN13sc_mti_access18mti_get_value_typeEv
         U __ZN13sc_mti_access18mti_get_value_typeEv
         U __ZN13sc_mti_access18mti_get_value_typeEv
         U __ZN13sc_mti_access18mti_get_value_typeEv
         U __ZN13sc_mti_access18mti_get_value_typeEv
         U __ZN13sc_mti_access18mti_get_value_typeEv
         U __ZN13sc_mti_access18mti_get_value_typeEv
         U __ZN13sc_mti_access18mti_get_value_typeEv
         U __ZN13sc_mti_access18mti_get_value_typeEv
         U __ZN13sc_mti_access18mti_get_value_typeEv
         U __ZN13sc_mti_access18mti_get_value_typeEv
         U __ZN13sc_mti_access18mti_get_value_typeEv
         U __ZN13sc_mti_access18mti_get_value_typeEv
         U __ZN13sc_mti_access18mti_get_value_typeEv
         U __ZN13sc_mti_access18mti_get_value_typeEv
         U __ZN13sc_mti_access18mti_get_value_typeEv
         U __ZN13sc_mti_access18mti_get_value_typeEv
         U __ZN13sc_mti_accessD0Ev
         U __ZN13sc_mti_accessD0Ev
         U __ZN13sc_mti_accessD0Ev
         U __ZN13sc_mti_accessD0Ev
         U __ZN13sc_mti_accessD0Ev
         U __ZN13sc_mti_accessD0Ev
         U __ZN13sc_mti_accessD0Ev
         U __ZN13sc_mti_accessD0Ev
         U __ZN13sc_mti_accessD0Ev
         U __ZN13sc_mti_accessD0Ev
         U __ZN13sc_mti_accessD0Ev
         U __ZN13sc_mti_accessD0Ev
         U __ZN13sc_mti_accessD0Ev
         U __ZN13sc_mti_accessD0Ev
         U __ZN13sc_mti_accessD0Ev
         U __ZN13sc_mti_accessD0Ev
         U __ZN13sc_mti_accessD0Ev
         U __ZN13sc_mti_accessD0Ev
         U __ZN13sc_mti_accessD0Ev
         U __ZN13sc_mti_accessD0Ev
         U __ZN13sc_mti_accessD0Ev
         U __ZN13sc_mti_accessD0Ev
         U __ZN13sc_mti_accessD0Ev
         U __ZN13sc_mti_accessD0Ev
         U __ZN13sc_mti_accessD0Ev
         U __ZN13sc_mti_accessD0Ev
         U __ZN13sc_mti_accessD0Ev
         U __ZN13sc_mti_accessD0Ev
         U __ZN13sc_mti_accessD0Ev
         U __ZN13sc_mti_accessD0Ev
         U __ZN13sc_mti_accessD0Ev
         U __ZN13sc_mti_accessD0Ev
         U __ZN13sc_mti_accessD0Ev
         U __ZN13sc_mti_accessD0Ev
         U __ZN13sc_mti_accessD1Ev
         U __ZN13sc_mti_accessD1Ev
         U __ZN13sc_mti_accessD1Ev
         U __ZN13sc_mti_accessD1Ev
         U __ZN13sc_mti_accessD1Ev
         U __ZN13sc_mti_accessD1Ev
         U __ZN13sc_mti_accessD1Ev
         U __ZN13sc_mti_accessD1Ev
         U __ZN13sc_mti_accessD1Ev
         U __ZN13sc_mti_accessD1Ev
         U __ZN13sc_mti_accessD1Ev
         U __ZN13sc_mti_accessD1Ev
         U __ZN13sc_mti_accessD1Ev
         U __ZN13sc_mti_accessD1Ev
         U __ZN13sc_mti_accessD1Ev
         U __ZN13sc_mti_accessD1Ev
         U __ZN13sc_mti_accessD1Ev
         U __ZN13sc_mti_accessD1Ev
         U __ZN13sc_mti_accessD1Ev
         U __ZN13sc_mti_accessD1Ev
         U __ZN13sc_mti_accessD1Ev
         U __ZN13sc_mti_accessD1Ev
         U __ZN13sc_mti_accessD1Ev
         U __ZN13sc_mti_accessD1Ev
         U __ZN13sc_mti_accessD1Ev
         U __ZN13sc_mti_accessD1Ev
         U __ZN13sc_mti_accessD1Ev
         U __ZN13sc_mti_accessD1Ev
         U __ZN13sc_mti_accessD1Ev
         U __ZN13sc_mti_accessD1Ev
         U __ZN13sc_mti_accessD1Ev
         U __ZN13sc_mti_accessD1Ev
         U __ZN13sc_mti_accessD1Ev
         U __ZN13sc_mti_accessD1Ev
         U __ZN5sc_dt11scfx_stringpLEc
         U __ZN5sc_dt13sc_fxnum_fastD0Ev
         U __ZN5sc_dt13sc_fxnum_fastD0Ev
         U __ZN5sc_dt13sc_fxnum_fastD0Ev
         U __ZN5sc_dt13sc_fxnum_fastD0Ev
         U __ZN5sc_dt13sc_fxnum_fastD0Ev
         U __ZN5sc_dt13sc_fxnum_fastD0Ev
         U __ZN5sc_dt13sc_fxnum_fastD0Ev
         U __ZN5sc_dt13sc_fxnum_fastD0Ev
         U __ZN5sc_dt13sc_fxnum_fastD0Ev
         U __ZN5sc_dt13sc_fxnum_fastD0Ev
         U __ZN5sc_dt13sc_fxnum_fastD0Ev
         U __ZN5sc_dt13sc_fxnum_fastD0Ev
         U __ZN5sc_dt13sc_fxnum_fastD0Ev
         U __ZN5sc_dt13sc_fxnum_fastD0Ev
         U __ZN5sc_dt13sc_fxnum_fastD0Ev
         U __ZN5sc_dt13sc_fxnum_fastD0Ev
         U __ZN5sc_dt13sc_fxnum_fastD0Ev
         U __ZN5sc_dt13sc_fxnum_fastD0Ev
         U __ZN5sc_dt13sc_fxnum_fastD0Ev
         U __ZN5sc_dt13sc_fxnum_fastD0Ev
         U __ZN5sc_dt13sc_fxnum_fastD0Ev
         U __ZN5sc_dt13sc_fxnum_fastD0Ev
         U __ZN5sc_dt13sc_fxnum_fastD0Ev
         U __ZN5sc_dt13sc_fxnum_fastD0Ev
         U __ZN5sc_dt13sc_fxnum_fastD0Ev
         U __ZN5sc_dt13sc_fxnum_fastD0Ev
         U __ZN5sc_dt13sc_fxnum_fastD0Ev
         U __ZN5sc_dt13sc_fxnum_fastD0Ev
         U __ZN5sc_dt13sc_fxnum_fastD0Ev
         U __ZN5sc_dt13sc_fxnum_fastD1Ev
         U __ZN5sc_dt13sc_fxnum_fastD1Ev
         U __ZN5sc_dt13sc_fxnum_fastD1Ev
         U __ZN5sc_dt13sc_fxnum_fastD1Ev
         U __ZN5sc_dt13sc_fxnum_fastD1Ev
         U __ZN5sc_dt13sc_fxnum_fastD1Ev
         U __ZN5sc_dt13sc_fxnum_fastD1Ev
         U __ZN5sc_dt13sc_fxnum_fastD1Ev
         U __ZN5sc_dt13sc_fxnum_fastD1Ev
         U __ZN5sc_dt13sc_fxnum_fastD1Ev
         U __ZN5sc_dt13sc_fxnum_fastD1Ev
         U __ZN5sc_dt13sc_fxnum_fastD1Ev
         U __ZN5sc_dt13sc_fxnum_fastD1Ev
         U __ZN5sc_dt13sc_fxnum_fastD1Ev
         U __ZN5sc_dt13sc_fxnum_fastD1Ev
         U __ZN5sc_dt13sc_fxnum_fastD1Ev
         U __ZN5sc_dt13sc_fxnum_fastD1Ev
         U __ZN5sc_dt13sc_fxnum_fastD1Ev
         U __ZN5sc_dt13sc_fxnum_fastD1Ev
         U __ZN5sc_dt13sc_fxnum_fastD1Ev
         U __ZN5sc_dt13sc_fxnum_fastD1Ev
         U __ZN5sc_dt13sc_fxnum_fastD1Ev
         U __ZN5sc_dt13sc_fxnum_fastD1Ev
         U __ZN5sc_dt13sc_fxnum_fastD1Ev
         U __ZN5sc_dt13sc_fxnum_fastD1Ev
         U __ZN5sc_dt13sc_fxnum_fastD1Ev
         U __ZN5sc_dt13sc_fxnum_fastD1Ev
         U __ZN5sc_dt13sc_fxnum_fastD1Ev
         U __ZN5sc_dt13sc_fxnum_fastD1Ev
         U __ZN5sc_dt17sc_fxnum_observer4readERKNS_8sc_fxnumE
         U __ZN5sc_dt17sc_fxnum_observer4readERKNS_8sc_fxnumE
         U __ZN5sc_dt17sc_fxnum_observer4readERKNS_8sc_fxnumE
         U __ZN5sc_dt17sc_fxnum_observer4readERKNS_8sc_fxnumE
         U __ZN5sc_dt17sc_fxnum_observer4readERKNS_8sc_fxnumE
         U __ZN5sc_dt17sc_fxnum_observer4readERKNS_8sc_fxnumE
         U __ZN5sc_dt17sc_fxnum_observer4readERKNS_8sc_fxnumE
         U __ZN5sc_dt17sc_fxnum_observer4readERKNS_8sc_fxnumE
         U __ZN5sc_dt17sc_fxnum_observer4readERKNS_8sc_fxnumE
         U __ZN5sc_dt17sc_fxnum_observer4readERKNS_8sc_fxnumE
         U __ZN5sc_dt17sc_fxnum_observer4readERKNS_8sc_fxnumE
         U __ZN5sc_dt17sc_fxnum_observer4readERKNS_8sc_fxnumE
         U __ZN5sc_dt17sc_fxnum_observer4readERKNS_8sc_fxnumE
         U __ZN5sc_dt17sc_fxnum_observer4readERKNS_8sc_fxnumE
         U __ZN5sc_dt17sc_fxnum_observer4readERKNS_8sc_fxnumE
         U __ZN5sc_dt17sc_fxnum_observer4readERKNS_8sc_fxnumE
         U __ZN5sc_dt17sc_fxnum_observer4readERKNS_8sc_fxnumE
         U __ZN5sc_dt17sc_fxnum_observer4readERKNS_8sc_fxnumE
         U __ZN5sc_dt17sc_fxnum_observer4readERKNS_8sc_fxnumE
         U __ZN5sc_dt17sc_fxnum_observer4readERKNS_8sc_fxnumE
         U __ZN5sc_dt17sc_fxnum_observer4readERKNS_8sc_fxnumE
         U __ZN5sc_dt17sc_fxnum_observer4readERKNS_8sc_fxnumE
         U __ZN5sc_dt17sc_fxnum_observer4readERKNS_8sc_fxnumE
         U __ZN5sc_dt17sc_fxnum_observer4readERKNS_8sc_fxnumE
         U __ZN5sc_dt17sc_fxnum_observer4readERKNS_8sc_fxnumE
         U __ZN5sc_dt17sc_fxnum_observer4readERKNS_8sc_fxnumE
         U __ZN5sc_dt17sc_fxnum_observer4readERKNS_8sc_fxnumE
         U __ZN5sc_dt17sc_fxnum_observer4readERKNS_8sc_fxnumE
         U __ZN5sc_dt17sc_fxnum_observer4readERKNS_8sc_fxnumE
         U __ZN5sc_dt17sc_fxnum_observer5writeERKNS_8sc_fxnumE
         U __ZN5sc_dt17sc_fxnum_observer5writeERKNS_8sc_fxnumE
         U __ZN5sc_dt17sc_fxnum_observer5writeERKNS_8sc_fxnumE
         U __ZN5sc_dt17sc_fxnum_observer5writeERKNS_8sc_fxnumE
         U __ZN5sc_dt17sc_fxnum_observer5writeERKNS_8sc_fxnumE
         U __ZN5sc_dt17sc_fxnum_observer5writeERKNS_8sc_fxnumE
         U __ZN5sc_dt17sc_fxnum_observer5writeERKNS_8sc_fxnumE
         U __ZN5sc_dt17sc_fxnum_observer5writeERKNS_8sc_fxnumE
         U __ZN5sc_dt17sc_fxnum_observer5writeERKNS_8sc_fxnumE
         U __ZN5sc_dt17sc_fxnum_observer5writeERKNS_8sc_fxnumE
         U __ZN5sc_dt17sc_fxnum_observer5writeERKNS_8sc_fxnumE
         U __ZN5sc_dt17sc_fxnum_observer5writeERKNS_8sc_fxnumE
         U __ZN5sc_dt17sc_fxnum_observer5writeERKNS_8sc_fxnumE
         U __ZN5sc_dt17sc_fxnum_observer5writeERKNS_8sc_fxnumE
         U __ZN5sc_dt17sc_fxnum_observer5writeERKNS_8sc_fxnumE
         U __ZN5sc_dt17sc_fxnum_observer5writeERKNS_8sc_fxnumE
         U __ZN5sc_dt17sc_fxnum_observer5writeERKNS_8sc_fxnumE
         U __ZN5sc_dt17sc_fxnum_observer5writeERKNS_8sc_fxnumE
         U __ZN5sc_dt17sc_fxnum_observer5writeERKNS_8sc_fxnumE
         U __ZN5sc_dt17sc_fxnum_observer5writeERKNS_8sc_fxnumE
         U __ZN5sc_dt17sc_fxnum_observer5writeERKNS_8sc_fxnumE
         U __ZN5sc_dt17sc_fxnum_observer5writeERKNS_8sc_fxnumE
         U __ZN5sc_dt17sc_fxnum_observer5writeERKNS_8sc_fxnumE
         U __ZN5sc_dt17sc_fxnum_observer5writeERKNS_8sc_fxnumE
         U __ZN5sc_dt17sc_fxnum_observer5writeERKNS_8sc_fxnumE
         U __ZN5sc_dt17sc_fxnum_observer5writeERKNS_8sc_fxnumE
         U __ZN5sc_dt17sc_fxnum_observer5writeERKNS_8sc_fxnumE
         U __ZN5sc_dt17sc_fxnum_observer5writeERKNS_8sc_fxnumE
         U __ZN5sc_dt17sc_fxnum_observer5writeERKNS_8sc_fxnumE
         U __ZN5sc_dt17sc_fxnum_observer8destructERKNS_8sc_fxnumE
         U __ZN5sc_dt17sc_fxnum_observer8destructERKNS_8sc_fxnumE
         U __ZN5sc_dt17sc_fxnum_observer8destructERKNS_8sc_fxnumE
         U __ZN5sc_dt17sc_fxnum_observer8destructERKNS_8sc_fxnumE
         U __ZN5sc_dt17sc_fxnum_observer8destructERKNS_8sc_fxnumE
         U __ZN5sc_dt17sc_fxnum_observer8destructERKNS_8sc_fxnumE
         U __ZN5sc_dt17sc_fxnum_observer8destructERKNS_8sc_fxnumE
         U __ZN5sc_dt17sc_fxnum_observer8destructERKNS_8sc_fxnumE
         U __ZN5sc_dt17sc_fxnum_observer8destructERKNS_8sc_fxnumE
         U __ZN5sc_dt17sc_fxnum_observer8destructERKNS_8sc_fxnumE
         U __ZN5sc_dt17sc_fxnum_observer8destructERKNS_8sc_fxnumE
         U __ZN5sc_dt17sc_fxnum_observer8destructERKNS_8sc_fxnumE
         U __ZN5sc_dt17sc_fxnum_observer8destructERKNS_8sc_fxnumE
         U __ZN5sc_dt17sc_fxnum_observer8destructERKNS_8sc_fxnumE
         U __ZN5sc_dt17sc_fxnum_observer8destructERKNS_8sc_fxnumE
         U __ZN5sc_dt17sc_fxnum_observer8destructERKNS_8sc_fxnumE
         U __ZN5sc_dt17sc_fxnum_observer8destructERKNS_8sc_fxnumE
         U __ZN5sc_dt17sc_fxnum_observer8destructERKNS_8sc_fxnumE
         U __ZN5sc_dt17sc_fxnum_observer8destructERKNS_8sc_fxnumE
         U __ZN5sc_dt17sc_fxnum_observer8destructERKNS_8sc_fxnumE
         U __ZN5sc_dt17sc_fxnum_observer8destructERKNS_8sc_fxnumE
         U __ZN5sc_dt17sc_fxnum_observer8destructERKNS_8sc_fxnumE
         U __ZN5sc_dt17sc_fxnum_observer8destructERKNS_8sc_fxnumE
         U __ZN5sc_dt17sc_fxnum_observer8destructERKNS_8sc_fxnumE
         U __ZN5sc_dt17sc_fxnum_observer8destructERKNS_8sc_fxnumE
         U __ZN5sc_dt17sc_fxnum_observer8destructERKNS_8sc_fxnumE
         U __ZN5sc_dt17sc_fxnum_observer8destructERKNS_8sc_fxnumE
         U __ZN5sc_dt17sc_fxnum_observer8destructERKNS_8sc_fxnumE
         U __ZN5sc_dt17sc_fxnum_observer8destructERKNS_8sc_fxnumE
         U __ZN5sc_dt17sc_fxnum_observer9constructERKNS_8sc_fxnumE
         U __ZN5sc_dt17sc_fxnum_observer9constructERKNS_8sc_fxnumE
         U __ZN5sc_dt17sc_fxnum_observer9constructERKNS_8sc_fxnumE
         U __ZN5sc_dt17sc_fxnum_observer9constructERKNS_8sc_fxnumE
         U __ZN5sc_dt17sc_fxnum_observer9constructERKNS_8sc_fxnumE
         U __ZN5sc_dt17sc_fxnum_observer9constructERKNS_8sc_fxnumE
         U __ZN5sc_dt17sc_fxnum_observer9constructERKNS_8sc_fxnumE
         U __ZN5sc_dt17sc_fxnum_observer9constructERKNS_8sc_fxnumE
         U __ZN5sc_dt17sc_fxnum_observer9constructERKNS_8sc_fxnumE
         U __ZN5sc_dt17sc_fxnum_observer9constructERKNS_8sc_fxnumE
         U __ZN5sc_dt17sc_fxnum_observer9constructERKNS_8sc_fxnumE
         U __ZN5sc_dt17sc_fxnum_observer9constructERKNS_8sc_fxnumE
         U __ZN5sc_dt17sc_fxnum_observer9constructERKNS_8sc_fxnumE
         U __ZN5sc_dt17sc_fxnum_observer9constructERKNS_8sc_fxnumE
         U __ZN5sc_dt17sc_fxnum_observer9constructERKNS_8sc_fxnumE
         U __ZN5sc_dt17sc_fxnum_observer9constructERKNS_8sc_fxnumE
         U __ZN5sc_dt17sc_fxnum_observer9constructERKNS_8sc_fxnumE
         U __ZN5sc_dt17sc_fxnum_observer9constructERKNS_8sc_fxnumE
         U __ZN5sc_dt17sc_fxnum_observer9constructERKNS_8sc_fxnumE
         U __ZN5sc_dt17sc_fxnum_observer9constructERKNS_8sc_fxnumE
         U __ZN5sc_dt17sc_fxnum_observer9constructERKNS_8sc_fxnumE
         U __ZN5sc_dt17sc_fxnum_observer9constructERKNS_8sc_fxnumE
         U __ZN5sc_dt17sc_fxnum_observer9constructERKNS_8sc_fxnumE
         U __ZN5sc_dt17sc_fxnum_observer9constructERKNS_8sc_fxnumE
         U __ZN5sc_dt17sc_fxnum_observer9constructERKNS_8sc_fxnumE
         U __ZN5sc_dt17sc_fxnum_observer9constructERKNS_8sc_fxnumE
         U __ZN5sc_dt17sc_fxnum_observer9constructERKNS_8sc_fxnumE
         U __ZN5sc_dt17sc_fxnum_observer9constructERKNS_8sc_fxnumE
         U __ZN5sc_dt17sc_fxnum_observer9constructERKNS_8sc_fxnumE
         U __ZN5sc_dt17sc_fxnum_observerD0Ev
         U __ZN5sc_dt17sc_fxnum_observerD0Ev
         U __ZN5sc_dt17sc_fxnum_observerD0Ev
         U __ZN5sc_dt17sc_fxnum_observerD0Ev
         U __ZN5sc_dt17sc_fxnum_observerD0Ev
         U __ZN5sc_dt17sc_fxnum_observerD0Ev
         U __ZN5sc_dt17sc_fxnum_observerD0Ev
         U __ZN5sc_dt17sc_fxnum_observerD0Ev
         U __ZN5sc_dt17sc_fxnum_observerD0Ev
         U __ZN5sc_dt17sc_fxnum_observerD0Ev
         U __ZN5sc_dt17sc_fxnum_observerD0Ev
         U __ZN5sc_dt17sc_fxnum_observerD0Ev
         U __ZN5sc_dt17sc_fxnum_observerD0Ev
         U __ZN5sc_dt17sc_fxnum_observerD0Ev
         U __ZN5sc_dt17sc_fxnum_observerD0Ev
         U __ZN5sc_dt17sc_fxnum_observerD0Ev
         U __ZN5sc_dt17sc_fxnum_observerD0Ev
         U __ZN5sc_dt17sc_fxnum_observerD0Ev
         U __ZN5sc_dt17sc_fxnum_observerD0Ev
         U __ZN5sc_dt17sc_fxnum_observerD0Ev
         U __ZN5sc_dt17sc_fxnum_observerD0Ev
         U __ZN5sc_dt17sc_fxnum_observerD0Ev
         U __ZN5sc_dt17sc_fxnum_observerD0Ev
         U __ZN5sc_dt17sc_fxnum_observerD0Ev
         U __ZN5sc_dt17sc_fxnum_observerD0Ev
         U __ZN5sc_dt17sc_fxnum_observerD0Ev
         U __ZN5sc_dt17sc_fxnum_observerD0Ev
         U __ZN5sc_dt17sc_fxnum_observerD0Ev
         U __ZN5sc_dt17sc_fxnum_observerD0Ev
         U __ZN5sc_dt17sc_fxnum_observerD1Ev
         U __ZN5sc_dt17sc_fxnum_observerD1Ev
         U __ZN5sc_dt17sc_fxnum_observerD1Ev
         U __ZN5sc_dt17sc_fxnum_observerD1Ev
         U __ZN5sc_dt17sc_fxnum_observerD1Ev
         U __ZN5sc_dt17sc_fxnum_observerD1Ev
         U __ZN5sc_dt17sc_fxnum_observerD1Ev
         U __ZN5sc_dt17sc_fxnum_observerD1Ev
         U __ZN5sc_dt17sc_fxnum_observerD1Ev
         U __ZN5sc_dt17sc_fxnum_observerD1Ev
         U __ZN5sc_dt17sc_fxnum_observerD1Ev
         U __ZN5sc_dt17sc_fxnum_observerD1Ev
         U __ZN5sc_dt17sc_fxnum_observerD1Ev
         U __ZN5sc_dt17sc_fxnum_observerD1Ev
         U __ZN5sc_dt17sc_fxnum_observerD1Ev
         U __ZN5sc_dt17sc_fxnum_observerD1Ev
         U __ZN5sc_dt17sc_fxnum_observerD1Ev
         U __ZN5sc_dt17sc_fxnum_observerD1Ev
         U __ZN5sc_dt17sc_fxnum_observerD1Ev
         U __ZN5sc_dt17sc_fxnum_observerD1Ev
         U __ZN5sc_dt17sc_fxnum_observerD1Ev
         U __ZN5sc_dt17sc_fxnum_observerD1Ev
         U __ZN5sc_dt17sc_fxnum_observerD1Ev
         U __ZN5sc_dt17sc_fxnum_observerD1Ev
         U __ZN5sc_dt17sc_fxnum_observerD1Ev
         U __ZN5sc_dt17sc_fxnum_observerD1Ev
         U __ZN5sc_dt17sc_fxnum_observerD1Ev
         U __ZN5sc_dt17sc_fxnum_observerD1Ev
         U __ZN5sc_dt17sc_fxnum_observerD1Ev
         U __ZN5sc_dt17sc_fxval_observer4readERKNS_8sc_fxvalE
         U __ZN5sc_dt17sc_fxval_observer4readERKNS_8sc_fxvalE
         U __ZN5sc_dt17sc_fxval_observer4readERKNS_8sc_fxvalE
         U __ZN5sc_dt17sc_fxval_observer4readERKNS_8sc_fxvalE
         U __ZN5sc_dt17sc_fxval_observer4readERKNS_8sc_fxvalE
         U __ZN5sc_dt17sc_fxval_observer4readERKNS_8sc_fxvalE
         U __ZN5sc_dt17sc_fxval_observer4readERKNS_8sc_fxvalE
         U __ZN5sc_dt17sc_fxval_observer4readERKNS_8sc_fxvalE
         U __ZN5sc_dt17sc_fxval_observer4readERKNS_8sc_fxvalE
         U __ZN5sc_dt17sc_fxval_observer4readERKNS_8sc_fxvalE
         U __ZN5sc_dt17sc_fxval_observer4readERKNS_8sc_fxvalE
         U __ZN5sc_dt17sc_fxval_observer4readERKNS_8sc_fxvalE
         U __ZN5sc_dt17sc_fxval_observer4readERKNS_8sc_fxvalE
         U __ZN5sc_dt17sc_fxval_observer4readERKNS_8sc_fxvalE
         U __ZN5sc_dt17sc_fxval_observer4readERKNS_8sc_fxvalE
         U __ZN5sc_dt17sc_fxval_observer4readERKNS_8sc_fxvalE
         U __ZN5sc_dt17sc_fxval_observer4readERKNS_8sc_fxvalE
         U __ZN5sc_dt17sc_fxval_observer4readERKNS_8sc_fxvalE
         U __ZN5sc_dt17sc_fxval_observer4readERKNS_8sc_fxvalE
         U __ZN5sc_dt17sc_fxval_observer4readERKNS_8sc_fxvalE
         U __ZN5sc_dt17sc_fxval_observer4readERKNS_8sc_fxvalE
         U __ZN5sc_dt17sc_fxval_observer4readERKNS_8sc_fxvalE
         U __ZN5sc_dt17sc_fxval_observer4readERKNS_8sc_fxvalE
         U __ZN5sc_dt17sc_fxval_observer4readERKNS_8sc_fxvalE
         U __ZN5sc_dt17sc_fxval_observer4readERKNS_8sc_fxvalE
         U __ZN5sc_dt17sc_fxval_observer4readERKNS_8sc_fxvalE
         U __ZN5sc_dt17sc_fxval_observer4readERKNS_8sc_fxvalE
         U __ZN5sc_dt17sc_fxval_observer4readERKNS_8sc_fxvalE
         U __ZN5sc_dt17sc_fxval_observer4readERKNS_8sc_fxvalE
         U __ZN5sc_dt17sc_fxval_observer4readERKNS_8sc_fxvalE
         U __ZN5sc_dt17sc_fxval_observer5writeERKNS_8sc_fxvalE
         U __ZN5sc_dt17sc_fxval_observer5writeERKNS_8sc_fxvalE
         U __ZN5sc_dt17sc_fxval_observer5writeERKNS_8sc_fxvalE
         U __ZN5sc_dt17sc_fxval_observer5writeERKNS_8sc_fxvalE
         U __ZN5sc_dt17sc_fxval_observer5writeERKNS_8sc_fxvalE
         U __ZN5sc_dt17sc_fxval_observer5writeERKNS_8sc_fxvalE
         U __ZN5sc_dt17sc_fxval_observer5writeERKNS_8sc_fxvalE
         U __ZN5sc_dt17sc_fxval_observer5writeERKNS_8sc_fxvalE
         U __ZN5sc_dt17sc_fxval_observer5writeERKNS_8sc_fxvalE
         U __ZN5sc_dt17sc_fxval_observer5writeERKNS_8sc_fxvalE
         U __ZN5sc_dt17sc_fxval_observer5writeERKNS_8sc_fxvalE
         U __ZN5sc_dt17sc_fxval_observer5writeERKNS_8sc_fxvalE
         U __ZN5sc_dt17sc_fxval_observer5writeERKNS_8sc_fxvalE
         U __ZN5sc_dt17sc_fxval_observer5writeERKNS_8sc_fxvalE
         U __ZN5sc_dt17sc_fxval_observer5writeERKNS_8sc_fxvalE
         U __ZN5sc_dt17sc_fxval_observer5writeERKNS_8sc_fxvalE
         U __ZN5sc_dt17sc_fxval_observer5writeERKNS_8sc_fxvalE
         U __ZN5sc_dt17sc_fxval_observer5writeERKNS_8sc_fxvalE
         U __ZN5sc_dt17sc_fxval_observer5writeERKNS_8sc_fxvalE
         U __ZN5sc_dt17sc_fxval_observer5writeERKNS_8sc_fxvalE
         U __ZN5sc_dt17sc_fxval_observer5writeERKNS_8sc_fxvalE
         U __ZN5sc_dt17sc_fxval_observer5writeERKNS_8sc_fxvalE
         U __ZN5sc_dt17sc_fxval_observer5writeERKNS_8sc_fxvalE
         U __ZN5sc_dt17sc_fxval_observer5writeERKNS_8sc_fxvalE
         U __ZN5sc_dt17sc_fxval_observer5writeERKNS_8sc_fxvalE
         U __ZN5sc_dt17sc_fxval_observer5writeERKNS_8sc_fxvalE
         U __ZN5sc_dt17sc_fxval_observer5writeERKNS_8sc_fxvalE
         U __ZN5sc_dt17sc_fxval_observer5writeERKNS_8sc_fxvalE
         U __ZN5sc_dt17sc_fxval_observer5writeERKNS_8sc_fxvalE
         U __ZN5sc_dt17sc_fxval_observer5writeERKNS_8sc_fxvalE
         U __ZN5sc_dt17sc_fxval_observer8destructERKNS_8sc_fxvalE
         U __ZN5sc_dt17sc_fxval_observer8destructERKNS_8sc_fxvalE
         U __ZN5sc_dt17sc_fxval_observer8destructERKNS_8sc_fxvalE
         U __ZN5sc_dt17sc_fxval_observer8destructERKNS_8sc_fxvalE
         U __ZN5sc_dt17sc_fxval_observer8destructERKNS_8sc_fxvalE
         U __ZN5sc_dt17sc_fxval_observer8destructERKNS_8sc_fxvalE
         U __ZN5sc_dt17sc_fxval_observer8destructERKNS_8sc_fxvalE
         U __ZN5sc_dt17sc_fxval_observer8destructERKNS_8sc_fxvalE
         U __ZN5sc_dt17sc_fxval_observer8destructERKNS_8sc_fxvalE
         U __ZN5sc_dt17sc_fxval_observer8destructERKNS_8sc_fxvalE
         U __ZN5sc_dt17sc_fxval_observer8destructERKNS_8sc_fxvalE
         U __ZN5sc_dt17sc_fxval_observer8destructERKNS_8sc_fxvalE
         U __ZN5sc_dt17sc_fxval_observer8destructERKNS_8sc_fxvalE
         U __ZN5sc_dt17sc_fxval_observer8destructERKNS_8sc_fxvalE
         U __ZN5sc_dt17sc_fxval_observer8destructERKNS_8sc_fxvalE
         U __ZN5sc_dt17sc_fxval_observer8destructERKNS_8sc_fxvalE
         U __ZN5sc_dt17sc_fxval_observer8destructERKNS_8sc_fxvalE
         U __ZN5sc_dt17sc_fxval_observer8destructERKNS_8sc_fxvalE
         U __ZN5sc_dt17sc_fxval_observer8destructERKNS_8sc_fxvalE
         U __ZN5sc_dt17sc_fxval_observer8destructERKNS_8sc_fxvalE
         U __ZN5sc_dt17sc_fxval_observer8destructERKNS_8sc_fxvalE
         U __ZN5sc_dt17sc_fxval_observer8destructERKNS_8sc_fxvalE
         U __ZN5sc_dt17sc_fxval_observer8destructERKNS_8sc_fxvalE
         U __ZN5sc_dt17sc_fxval_observer8destructERKNS_8sc_fxvalE
         U __ZN5sc_dt17sc_fxval_observer8destructERKNS_8sc_fxvalE
         U __ZN5sc_dt17sc_fxval_observer8destructERKNS_8sc_fxvalE
         U __ZN5sc_dt17sc_fxval_observer8destructERKNS_8sc_fxvalE
         U __ZN5sc_dt17sc_fxval_observer8destructERKNS_8sc_fxvalE
         U __ZN5sc_dt17sc_fxval_observer8destructERKNS_8sc_fxvalE
         U __ZN5sc_dt17sc_fxval_observer8destructERKNS_8sc_fxvalE
         U __ZN5sc_dt17sc_fxval_observer9constructERKNS_8sc_fxvalE
         U __ZN5sc_dt17sc_fxval_observer9constructERKNS_8sc_fxvalE
         U __ZN5sc_dt17sc_fxval_observer9constructERKNS_8sc_fxvalE
         U __ZN5sc_dt17sc_fxval_observer9constructERKNS_8sc_fxvalE
         U __ZN5sc_dt17sc_fxval_observer9constructERKNS_8sc_fxvalE
         U __ZN5sc_dt17sc_fxval_observer9constructERKNS_8sc_fxvalE
         U __ZN5sc_dt17sc_fxval_observer9constructERKNS_8sc_fxvalE
         U __ZN5sc_dt17sc_fxval_observer9constructERKNS_8sc_fxvalE
         U __ZN5sc_dt17sc_fxval_observer9constructERKNS_8sc_fxvalE
         U __ZN5sc_dt17sc_fxval_observer9constructERKNS_8sc_fxvalE
         U __ZN5sc_dt17sc_fxval_observer9constructERKNS_8sc_fxvalE
         U __ZN5sc_dt17sc_fxval_observer9constructERKNS_8sc_fxvalE
         U __ZN5sc_dt17sc_fxval_observer9constructERKNS_8sc_fxvalE
         U __ZN5sc_dt17sc_fxval_observer9constructERKNS_8sc_fxvalE
         U __ZN5sc_dt17sc_fxval_observer9constructERKNS_8sc_fxvalE
         U __ZN5sc_dt17sc_fxval_observer9constructERKNS_8sc_fxvalE
         U __ZN5sc_dt17sc_fxval_observer9constructERKNS_8sc_fxvalE
         U __ZN5sc_dt17sc_fxval_observer9constructERKNS_8sc_fxvalE
         U __ZN5sc_dt17sc_fxval_observer9constructERKNS_8sc_fxvalE
         U __ZN5sc_dt17sc_fxval_observer9constructERKNS_8sc_fxvalE
         U __ZN5sc_dt17sc_fxval_observer9constructERKNS_8sc_fxvalE
         U __ZN5sc_dt17sc_fxval_observer9constructERKNS_8sc_fxvalE
         U __ZN5sc_dt17sc_fxval_observer9constructERKNS_8sc_fxvalE
         U __ZN5sc_dt17sc_fxval_observer9constructERKNS_8sc_fxvalE
         U __ZN5sc_dt17sc_fxval_observer9constructERKNS_8sc_fxvalE
         U __ZN5sc_dt17sc_fxval_observer9constructERKNS_8sc_fxvalE
         U __ZN5sc_dt17sc_fxval_observer9constructERKNS_8sc_fxvalE
         U __ZN5sc_dt17sc_fxval_observer9constructERKNS_8sc_fxvalE
         U __ZN5sc_dt17sc_fxval_observer9constructERKNS_8sc_fxvalE
         U __ZN5sc_dt17sc_fxval_observer9constructERKNS_8sc_fxvalE
         U __ZN5sc_dt17sc_fxval_observerD0Ev
         U __ZN5sc_dt17sc_fxval_observerD0Ev
         U __ZN5sc_dt17sc_fxval_observerD0Ev
         U __ZN5sc_dt17sc_fxval_observerD0Ev
         U __ZN5sc_dt17sc_fxval_observerD0Ev
         U __ZN5sc_dt17sc_fxval_observerD0Ev
         U __ZN5sc_dt17sc_fxval_observerD0Ev
         U __ZN5sc_dt17sc_fxval_observerD0Ev
         U __ZN5sc_dt17sc_fxval_observerD0Ev
         U __ZN5sc_dt17sc_fxval_observerD0Ev
         U __ZN5sc_dt17sc_fxval_observerD0Ev
         U __ZN5sc_dt17sc_fxval_observerD0Ev
         U __ZN5sc_dt17sc_fxval_observerD0Ev
         U __ZN5sc_dt17sc_fxval_observerD0Ev
         U __ZN5sc_dt17sc_fxval_observerD0Ev
         U __ZN5sc_dt17sc_fxval_observerD0Ev
         U __ZN5sc_dt17sc_fxval_observerD0Ev
         U __ZN5sc_dt17sc_fxval_observerD0Ev
         U __ZN5sc_dt17sc_fxval_observerD0Ev
         U __ZN5sc_dt17sc_fxval_observerD0Ev
         U __ZN5sc_dt17sc_fxval_observerD0Ev
         U __ZN5sc_dt17sc_fxval_observerD0Ev
         U __ZN5sc_dt17sc_fxval_observerD0Ev
         U __ZN5sc_dt17sc_fxval_observerD0Ev
         U __ZN5sc_dt17sc_fxval_observerD0Ev
         U __ZN5sc_dt17sc_fxval_observerD0Ev
         U __ZN5sc_dt17sc_fxval_observerD0Ev
         U __ZN5sc_dt17sc_fxval_observerD0Ev
         U __ZN5sc_dt17sc_fxval_observerD0Ev
         U __ZN5sc_dt17sc_fxval_observerD0Ev
         U __ZN5sc_dt17sc_fxval_observerD1Ev
         U __ZN5sc_dt17sc_fxval_observerD1Ev
         U __ZN5sc_dt17sc_fxval_observerD1Ev
         U __ZN5sc_dt17sc_fxval_observerD1Ev
         U __ZN5sc_dt17sc_fxval_observerD1Ev
         U __ZN5sc_dt17sc_fxval_observerD1Ev
         U __ZN5sc_dt17sc_fxval_observerD1Ev
         U __ZN5sc_dt17sc_fxval_observerD1Ev
         U __ZN5sc_dt17sc_fxval_observerD1Ev
         U __ZN5sc_dt17sc_fxval_observerD1Ev
         U __ZN5sc_dt17sc_fxval_observerD1Ev
         U __ZN5sc_dt17sc_fxval_observerD1Ev
         U __ZN5sc_dt17sc_fxval_observerD1Ev
         U __ZN5sc_dt17sc_fxval_observerD1Ev
         U __ZN5sc_dt17sc_fxval_observerD1Ev
         U __ZN5sc_dt17sc_fxval_observerD1Ev
         U __ZN5sc_dt17sc_fxval_observerD1Ev
         U __ZN5sc_dt17sc_fxval_observerD1Ev
         U __ZN5sc_dt17sc_fxval_observerD1Ev
         U __ZN5sc_dt17sc_fxval_observerD1Ev
         U __ZN5sc_dt17sc_fxval_observerD1Ev
         U __ZN5sc_dt17sc_fxval_observerD1Ev
         U __ZN5sc_dt17sc_fxval_observerD1Ev
         U __ZN5sc_dt17sc_fxval_observerD1Ev
         U __ZN5sc_dt17sc_fxval_observerD1Ev
         U __ZN5sc_dt17sc_fxval_observerD1Ev
         U __ZN5sc_dt17sc_fxval_observerD1Ev
         U __ZN5sc_dt17sc_fxval_observerD1Ev
         U __ZN5sc_dt17sc_fxval_observerD1Ev
         U __ZN5sc_dt17sc_fxval_observerD1Ev
         U __ZN5sc_dt22sc_fxnum_fast_observer4readERKNS_13sc_fxnum_fastE
         U __ZN5sc_dt22sc_fxnum_fast_observer4readERKNS_13sc_fxnum_fastE
         U __ZN5sc_dt22sc_fxnum_fast_observer4readERKNS_13sc_fxnum_fastE
         U __ZN5sc_dt22sc_fxnum_fast_observer4readERKNS_13sc_fxnum_fastE
         U __ZN5sc_dt22sc_fxnum_fast_observer4readERKNS_13sc_fxnum_fastE
         U __ZN5sc_dt22sc_fxnum_fast_observer4readERKNS_13sc_fxnum_fastE
         U __ZN5sc_dt22sc_fxnum_fast_observer4readERKNS_13sc_fxnum_fastE
         U __ZN5sc_dt22sc_fxnum_fast_observer4readERKNS_13sc_fxnum_fastE
         U __ZN5sc_dt22sc_fxnum_fast_observer4readERKNS_13sc_fxnum_fastE
         U __ZN5sc_dt22sc_fxnum_fast_observer4readERKNS_13sc_fxnum_fastE
         U __ZN5sc_dt22sc_fxnum_fast_observer4readERKNS_13sc_fxnum_fastE
         U __ZN5sc_dt22sc_fxnum_fast_observer4readERKNS_13sc_fxnum_fastE
         U __ZN5sc_dt22sc_fxnum_fast_observer4readERKNS_13sc_fxnum_fastE
         U __ZN5sc_dt22sc_fxnum_fast_observer4readERKNS_13sc_fxnum_fastE
         U __ZN5sc_dt22sc_fxnum_fast_observer4readERKNS_13sc_fxnum_fastE
         U __ZN5sc_dt22sc_fxnum_fast_observer4readERKNS_13sc_fxnum_fastE
         U __ZN5sc_dt22sc_fxnum_fast_observer4readERKNS_13sc_fxnum_fastE
         U __ZN5sc_dt22sc_fxnum_fast_observer4readERKNS_13sc_fxnum_fastE
         U __ZN5sc_dt22sc_fxnum_fast_observer4readERKNS_13sc_fxnum_fastE
         U __ZN5sc_dt22sc_fxnum_fast_observer4readERKNS_13sc_fxnum_fastE
         U __ZN5sc_dt22sc_fxnum_fast_observer4readERKNS_13sc_fxnum_fastE
         U __ZN5sc_dt22sc_fxnum_fast_observer4readERKNS_13sc_fxnum_fastE
         U __ZN5sc_dt22sc_fxnum_fast_observer4readERKNS_13sc_fxnum_fastE
         U __ZN5sc_dt22sc_fxnum_fast_observer4readERKNS_13sc_fxnum_fastE
         U __ZN5sc_dt22sc_fxnum_fast_observer4readERKNS_13sc_fxnum_fastE
         U __ZN5sc_dt22sc_fxnum_fast_observer4readERKNS_13sc_fxnum_fastE
         U __ZN5sc_dt22sc_fxnum_fast_observer4readERKNS_13sc_fxnum_fastE
         U __ZN5sc_dt22sc_fxnum_fast_observer4readERKNS_13sc_fxnum_fastE
         U __ZN5sc_dt22sc_fxnum_fast_observer4readERKNS_13sc_fxnum_fastE
         U __ZN5sc_dt22sc_fxnum_fast_observer5writeERKNS_13sc_fxnum_fastE
         U __ZN5sc_dt22sc_fxnum_fast_observer5writeERKNS_13sc_fxnum_fastE
         U __ZN5sc_dt22sc_fxnum_fast_observer5writeERKNS_13sc_fxnum_fastE
         U __ZN5sc_dt22sc_fxnum_fast_observer5writeERKNS_13sc_fxnum_fastE
         U __ZN5sc_dt22sc_fxnum_fast_observer5writeERKNS_13sc_fxnum_fastE
         U __ZN5sc_dt22sc_fxnum_fast_observer5writeERKNS_13sc_fxnum_fastE
         U __ZN5sc_dt22sc_fxnum_fast_observer5writeERKNS_13sc_fxnum_fastE
         U __ZN5sc_dt22sc_fxnum_fast_observer5writeERKNS_13sc_fxnum_fastE
         U __ZN5sc_dt22sc_fxnum_fast_observer5writeERKNS_13sc_fxnum_fastE
         U __ZN5sc_dt22sc_fxnum_fast_observer5writeERKNS_13sc_fxnum_fastE
         U __ZN5sc_dt22sc_fxnum_fast_observer5writeERKNS_13sc_fxnum_fastE
         U __ZN5sc_dt22sc_fxnum_fast_observer5writeERKNS_13sc_fxnum_fastE
         U __ZN5sc_dt22sc_fxnum_fast_observer5writeERKNS_13sc_fxnum_fastE
         U __ZN5sc_dt22sc_fxnum_fast_observer5writeERKNS_13sc_fxnum_fastE
         U __ZN5sc_dt22sc_fxnum_fast_observer5writeERKNS_13sc_fxnum_fastE
         U __ZN5sc_dt22sc_fxnum_fast_observer5writeERKNS_13sc_fxnum_fastE
         U __ZN5sc_dt22sc_fxnum_fast_observer5writeERKNS_13sc_fxnum_fastE
         U __ZN5sc_dt22sc_fxnum_fast_observer5writeERKNS_13sc_fxnum_fastE
         U __ZN5sc_dt22sc_fxnum_fast_observer5writeERKNS_13sc_fxnum_fastE
         U __ZN5sc_dt22sc_fxnum_fast_observer5writeERKNS_13sc_fxnum_fastE
         U __ZN5sc_dt22sc_fxnum_fast_observer5writeERKNS_13sc_fxnum_fastE
         U __ZN5sc_dt22sc_fxnum_fast_observer5writeERKNS_13sc_fxnum_fastE
         U __ZN5sc_dt22sc_fxnum_fast_observer5writeERKNS_13sc_fxnum_fastE
         U __ZN5sc_dt22sc_fxnum_fast_observer5writeERKNS_13sc_fxnum_fastE
         U __ZN5sc_dt22sc_fxnum_fast_observer5writeERKNS_13sc_fxnum_fastE
         U __ZN5sc_dt22sc_fxnum_fast_observer5writeERKNS_13sc_fxnum_fastE
         U __ZN5sc_dt22sc_fxnum_fast_observer5writeERKNS_13sc_fxnum_fastE
         U __ZN5sc_dt22sc_fxnum_fast_observer5writeERKNS_13sc_fxnum_fastE
         U __ZN5sc_dt22sc_fxnum_fast_observer5writeERKNS_13sc_fxnum_fastE
         U __ZN5sc_dt22sc_fxnum_fast_observer8destructERKNS_13sc_fxnum_fastE
         U __ZN5sc_dt22sc_fxnum_fast_observer8destructERKNS_13sc_fxnum_fastE
         U __ZN5sc_dt22sc_fxnum_fast_observer8destructERKNS_13sc_fxnum_fastE
         U __ZN5sc_dt22sc_fxnum_fast_observer8destructERKNS_13sc_fxnum_fastE
         U __ZN5sc_dt22sc_fxnum_fast_observer8destructERKNS_13sc_fxnum_fastE
         U __ZN5sc_dt22sc_fxnum_fast_observer8destructERKNS_13sc_fxnum_fastE
         U __ZN5sc_dt22sc_fxnum_fast_observer8destructERKNS_13sc_fxnum_fastE
         U __ZN5sc_dt22sc_fxnum_fast_observer8destructERKNS_13sc_fxnum_fastE
         U __ZN5sc_dt22sc_fxnum_fast_observer8destructERKNS_13sc_fxnum_fastE
         U __ZN5sc_dt22sc_fxnum_fast_observer8destructERKNS_13sc_fxnum_fastE
         U __ZN5sc_dt22sc_fxnum_fast_observer8destructERKNS_13sc_fxnum_fastE
         U __ZN5sc_dt22sc_fxnum_fast_observer8destructERKNS_13sc_fxnum_fastE
         U __ZN5sc_dt22sc_fxnum_fast_observer8destructERKNS_13sc_fxnum_fastE
         U __ZN5sc_dt22sc_fxnum_fast_observer8destructERKNS_13sc_fxnum_fastE
         U __ZN5sc_dt22sc_fxnum_fast_observer8destructERKNS_13sc_fxnum_fastE
         U __ZN5sc_dt22sc_fxnum_fast_observer8destructERKNS_13sc_fxnum_fastE
         U __ZN5sc_dt22sc_fxnum_fast_observer8destructERKNS_13sc_fxnum_fastE
         U __ZN5sc_dt22sc_fxnum_fast_observer8destructERKNS_13sc_fxnum_fastE
         U __ZN5sc_dt22sc_fxnum_fast_observer8destructERKNS_13sc_fxnum_fastE
         U __ZN5sc_dt22sc_fxnum_fast_observer8destructERKNS_13sc_fxnum_fastE
         U __ZN5sc_dt22sc_fxnum_fast_observer8destructERKNS_13sc_fxnum_fastE
         U __ZN5sc_dt22sc_fxnum_fast_observer8destructERKNS_13sc_fxnum_fastE
         U __ZN5sc_dt22sc_fxnum_fast_observer8destructERKNS_13sc_fxnum_fastE
         U __ZN5sc_dt22sc_fxnum_fast_observer8destructERKNS_13sc_fxnum_fastE
         U __ZN5sc_dt22sc_fxnum_fast_observer8destructERKNS_13sc_fxnum_fastE
         U __ZN5sc_dt22sc_fxnum_fast_observer8destructERKNS_13sc_fxnum_fastE
         U __ZN5sc_dt22sc_fxnum_fast_observer8destructERKNS_13sc_fxnum_fastE
         U __ZN5sc_dt22sc_fxnum_fast_observer8destructERKNS_13sc_fxnum_fastE
         U __ZN5sc_dt22sc_fxnum_fast_observer8destructERKNS_13sc_fxnum_fastE
         U __ZN5sc_dt22sc_fxnum_fast_observer9constructERKNS_13sc_fxnum_fastE
         U __ZN5sc_dt22sc_fxnum_fast_observer9constructERKNS_13sc_fxnum_fastE
         U __ZN5sc_dt22sc_fxnum_fast_observer9constructERKNS_13sc_fxnum_fastE
         U __ZN5sc_dt22sc_fxnum_fast_observer9constructERKNS_13sc_fxnum_fastE
         U __ZN5sc_dt22sc_fxnum_fast_observer9constructERKNS_13sc_fxnum_fastE
         U __ZN5sc_dt22sc_fxnum_fast_observer9constructERKNS_13sc_fxnum_fastE
         U __ZN5sc_dt22sc_fxnum_fast_observer9constructERKNS_13sc_fxnum_fastE
         U __ZN5sc_dt22sc_fxnum_fast_observer9constructERKNS_13sc_fxnum_fastE
         U __ZN5sc_dt22sc_fxnum_fast_observer9constructERKNS_13sc_fxnum_fastE
         U __ZN5sc_dt22sc_fxnum_fast_observer9constructERKNS_13sc_fxnum_fastE
         U __ZN5sc_dt22sc_fxnum_fast_observer9constructERKNS_13sc_fxnum_fastE
         U __ZN5sc_dt22sc_fxnum_fast_observer9constructERKNS_13sc_fxnum_fastE
         U __ZN5sc_dt22sc_fxnum_fast_observer9constructERKNS_13sc_fxnum_fastE
         U __ZN5sc_dt22sc_fxnum_fast_observer9constructERKNS_13sc_fxnum_fastE
         U __ZN5sc_dt22sc_fxnum_fast_observer9constructERKNS_13sc_fxnum_fastE
         U __ZN5sc_dt22sc_fxnum_fast_observer9constructERKNS_13sc_fxnum_fastE
         U __ZN5sc_dt22sc_fxnum_fast_observer9constructERKNS_13sc_fxnum_fastE
         U __ZN5sc_dt22sc_fxnum_fast_observer9constructERKNS_13sc_fxnum_fastE
         U __ZN5sc_dt22sc_fxnum_fast_observer9constructERKNS_13sc_fxnum_fastE
         U __ZN5sc_dt22sc_fxnum_fast_observer9constructERKNS_13sc_fxnum_fastE
         U __ZN5sc_dt22sc_fxnum_fast_observer9constructERKNS_13sc_fxnum_fastE
         U __ZN5sc_dt22sc_fxnum_fast_observer9constructERKNS_13sc_fxnum_fastE
         U __ZN5sc_dt22sc_fxnum_fast_observer9constructERKNS_13sc_fxnum_fastE
         U __ZN5sc_dt22sc_fxnum_fast_observer9constructERKNS_13sc_fxnum_fastE
         U __ZN5sc_dt22sc_fxnum_fast_observer9constructERKNS_13sc_fxnum_fastE
         U __ZN5sc_dt22sc_fxnum_fast_observer9constructERKNS_13sc_fxnum_fastE
         U __ZN5sc_dt22sc_fxnum_fast_observer9constructERKNS_13sc_fxnum_fastE
         U __ZN5sc_dt22sc_fxnum_fast_observer9constructERKNS_13sc_fxnum_fastE
         U __ZN5sc_dt22sc_fxnum_fast_observer9constructERKNS_13sc_fxnum_fastE
         U __ZN5sc_dt22sc_fxnum_fast_observerD0Ev
         U __ZN5sc_dt22sc_fxnum_fast_observerD0Ev
         U __ZN5sc_dt22sc_fxnum_fast_observerD0Ev
         U __ZN5sc_dt22sc_fxnum_fast_observerD0Ev
         U __ZN5sc_dt22sc_fxnum_fast_observerD0Ev
         U __ZN5sc_dt22sc_fxnum_fast_observerD0Ev
         U __ZN5sc_dt22sc_fxnum_fast_observerD0Ev
         U __ZN5sc_dt22sc_fxnum_fast_observerD0Ev
         U __ZN5sc_dt22sc_fxnum_fast_observerD0Ev
         U __ZN5sc_dt22sc_fxnum_fast_observerD0Ev
         U __ZN5sc_dt22sc_fxnum_fast_observerD0Ev
         U __ZN5sc_dt22sc_fxnum_fast_observerD0Ev
         U __ZN5sc_dt22sc_fxnum_fast_observerD0Ev
         U __ZN5sc_dt22sc_fxnum_fast_observerD0Ev
         U __ZN5sc_dt22sc_fxnum_fast_observerD0Ev
         U __ZN5sc_dt22sc_fxnum_fast_observerD0Ev
         U __ZN5sc_dt22sc_fxnum_fast_observerD0Ev
         U __ZN5sc_dt22sc_fxnum_fast_observerD0Ev
         U __ZN5sc_dt22sc_fxnum_fast_observerD0Ev
         U __ZN5sc_dt22sc_fxnum_fast_observerD0Ev
         U __ZN5sc_dt22sc_fxnum_fast_observerD0Ev
         U __ZN5sc_dt22sc_fxnum_fast_observerD0Ev
         U __ZN5sc_dt22sc_fxnum_fast_observerD0Ev
         U __ZN5sc_dt22sc_fxnum_fast_observerD0Ev
         U __ZN5sc_dt22sc_fxnum_fast_observerD0Ev
         U __ZN5sc_dt22sc_fxnum_fast_observerD0Ev
         U __ZN5sc_dt22sc_fxnum_fast_observerD0Ev
         U __ZN5sc_dt22sc_fxnum_fast_observerD0Ev
         U __ZN5sc_dt22sc_fxnum_fast_observerD0Ev
         U __ZN5sc_dt22sc_fxnum_fast_observerD1Ev
         U __ZN5sc_dt22sc_fxnum_fast_observerD1Ev
         U __ZN5sc_dt22sc_fxnum_fast_observerD1Ev
         U __ZN5sc_dt22sc_fxnum_fast_observerD1Ev
         U __ZN5sc_dt22sc_fxnum_fast_observerD1Ev
         U __ZN5sc_dt22sc_fxnum_fast_observerD1Ev
         U __ZN5sc_dt22sc_fxnum_fast_observerD1Ev
         U __ZN5sc_dt22sc_fxnum_fast_observerD1Ev
         U __ZN5sc_dt22sc_fxnum_fast_observerD1Ev
         U __ZN5sc_dt22sc_fxnum_fast_observerD1Ev
         U __ZN5sc_dt22sc_fxnum_fast_observerD1Ev
         U __ZN5sc_dt22sc_fxnum_fast_observerD1Ev
         U __ZN5sc_dt22sc_fxnum_fast_observerD1Ev
         U __ZN5sc_dt22sc_fxnum_fast_observerD1Ev
         U __ZN5sc_dt22sc_fxnum_fast_observerD1Ev
         U __ZN5sc_dt22sc_fxnum_fast_observerD1Ev
         U __ZN5sc_dt22sc_fxnum_fast_observerD1Ev
         U __ZN5sc_dt22sc_fxnum_fast_observerD1Ev
         U __ZN5sc_dt22sc_fxnum_fast_observerD1Ev
         U __ZN5sc_dt22sc_fxnum_fast_observerD1Ev
         U __ZN5sc_dt22sc_fxnum_fast_observerD1Ev
         U __ZN5sc_dt22sc_fxnum_fast_observerD1Ev
         U __ZN5sc_dt22sc_fxnum_fast_observerD1Ev
         U __ZN5sc_dt22sc_fxnum_fast_observerD1Ev
         U __ZN5sc_dt22sc_fxnum_fast_observerD1Ev
         U __ZN5sc_dt22sc_fxnum_fast_observerD1Ev
         U __ZN5sc_dt22sc_fxnum_fast_observerD1Ev
         U __ZN5sc_dt22sc_fxnum_fast_observerD1Ev
         U __ZN5sc_dt22sc_fxnum_fast_observerD1Ev
         U __ZN5sc_dt22sc_fxval_fast_observer4readERKNS_13sc_fxval_fastE
         U __ZN5sc_dt22sc_fxval_fast_observer4readERKNS_13sc_fxval_fastE
         U __ZN5sc_dt22sc_fxval_fast_observer4readERKNS_13sc_fxval_fastE
         U __ZN5sc_dt22sc_fxval_fast_observer4readERKNS_13sc_fxval_fastE
         U __ZN5sc_dt22sc_fxval_fast_observer4readERKNS_13sc_fxval_fastE
         U __ZN5sc_dt22sc_fxval_fast_observer4readERKNS_13sc_fxval_fastE
         U __ZN5sc_dt22sc_fxval_fast_observer4readERKNS_13sc_fxval_fastE
         U __ZN5sc_dt22sc_fxval_fast_observer4readERKNS_13sc_fxval_fastE
         U __ZN5sc_dt22sc_fxval_fast_observer4readERKNS_13sc_fxval_fastE
         U __ZN5sc_dt22sc_fxval_fast_observer4readERKNS_13sc_fxval_fastE
         U __ZN5sc_dt22sc_fxval_fast_observer4readERKNS_13sc_fxval_fastE
         U __ZN5sc_dt22sc_fxval_fast_observer4readERKNS_13sc_fxval_fastE
         U __ZN5sc_dt22sc_fxval_fast_observer4readERKNS_13sc_fxval_fastE
         U __ZN5sc_dt22sc_fxval_fast_observer4readERKNS_13sc_fxval_fastE
         U __ZN5sc_dt22sc_fxval_fast_observer4readERKNS_13sc_fxval_fastE
         U __ZN5sc_dt22sc_fxval_fast_observer4readERKNS_13sc_fxval_fastE
         U __ZN5sc_dt22sc_fxval_fast_observer4readERKNS_13sc_fxval_fastE
         U __ZN5sc_dt22sc_fxval_fast_observer4readERKNS_13sc_fxval_fastE
         U __ZN5sc_dt22sc_fxval_fast_observer4readERKNS_13sc_fxval_fastE
         U __ZN5sc_dt22sc_fxval_fast_observer4readERKNS_13sc_fxval_fastE
         U __ZN5sc_dt22sc_fxval_fast_observer4readERKNS_13sc_fxval_fastE
         U __ZN5sc_dt22sc_fxval_fast_observer4readERKNS_13sc_fxval_fastE
         U __ZN5sc_dt22sc_fxval_fast_observer4readERKNS_13sc_fxval_fastE
         U __ZN5sc_dt22sc_fxval_fast_observer4readERKNS_13sc_fxval_fastE
         U __ZN5sc_dt22sc_fxval_fast_observer4readERKNS_13sc_fxval_fastE
         U __ZN5sc_dt22sc_fxval_fast_observer4readERKNS_13sc_fxval_fastE
         U __ZN5sc_dt22sc_fxval_fast_observer4readERKNS_13sc_fxval_fastE
         U __ZN5sc_dt22sc_fxval_fast_observer4readERKNS_13sc_fxval_fastE
         U __ZN5sc_dt22sc_fxval_fast_observer4readERKNS_13sc_fxval_fastE
         U __ZN5sc_dt22sc_fxval_fast_observer4readERKNS_13sc_fxval_fastE
         U __ZN5sc_dt22sc_fxval_fast_observer5writeERKNS_13sc_fxval_fastE
         U __ZN5sc_dt22sc_fxval_fast_observer5writeERKNS_13sc_fxval_fastE
         U __ZN5sc_dt22sc_fxval_fast_observer5writeERKNS_13sc_fxval_fastE
         U __ZN5sc_dt22sc_fxval_fast_observer5writeERKNS_13sc_fxval_fastE
         U __ZN5sc_dt22sc_fxval_fast_observer5writeERKNS_13sc_fxval_fastE
         U __ZN5sc_dt22sc_fxval_fast_observer5writeERKNS_13sc_fxval_fastE
         U __ZN5sc_dt22sc_fxval_fast_observer5writeERKNS_13sc_fxval_fastE
         U __ZN5sc_dt22sc_fxval_fast_observer5writeERKNS_13sc_fxval_fastE
         U __ZN5sc_dt22sc_fxval_fast_observer5writeERKNS_13sc_fxval_fastE
         U __ZN5sc_dt22sc_fxval_fast_observer5writeERKNS_13sc_fxval_fastE
         U __ZN5sc_dt22sc_fxval_fast_observer5writeERKNS_13sc_fxval_fastE
         U __ZN5sc_dt22sc_fxval_fast_observer5writeERKNS_13sc_fxval_fastE
         U __ZN5sc_dt22sc_fxval_fast_observer5writeERKNS_13sc_fxval_fastE
         U __ZN5sc_dt22sc_fxval_fast_observer5writeERKNS_13sc_fxval_fastE
         U __ZN5sc_dt22sc_fxval_fast_observer5writeERKNS_13sc_fxval_fastE
         U __ZN5sc_dt22sc_fxval_fast_observer5writeERKNS_13sc_fxval_fastE
         U __ZN5sc_dt22sc_fxval_fast_observer5writeERKNS_13sc_fxval_fastE
         U __ZN5sc_dt22sc_fxval_fast_observer5writeERKNS_13sc_fxval_fastE
         U __ZN5sc_dt22sc_fxval_fast_observer5writeERKNS_13sc_fxval_fastE
         U __ZN5sc_dt22sc_fxval_fast_observer5writeERKNS_13sc_fxval_fastE
         U __ZN5sc_dt22sc_fxval_fast_observer5writeERKNS_13sc_fxval_fastE
         U __ZN5sc_dt22sc_fxval_fast_observer5writeERKNS_13sc_fxval_fastE
         U __ZN5sc_dt22sc_fxval_fast_observer5writeERKNS_13sc_fxval_fastE
         U __ZN5sc_dt22sc_fxval_fast_observer5writeERKNS_13sc_fxval_fastE
         U __ZN5sc_dt22sc_fxval_fast_observer5writeERKNS_13sc_fxval_fastE
         U __ZN5sc_dt22sc_fxval_fast_observer5writeERKNS_13sc_fxval_fastE
         U __ZN5sc_dt22sc_fxval_fast_observer5writeERKNS_13sc_fxval_fastE
         U __ZN5sc_dt22sc_fxval_fast_observer5writeERKNS_13sc_fxval_fastE
         U __ZN5sc_dt22sc_fxval_fast_observer5writeERKNS_13sc_fxval_fastE
         U __ZN5sc_dt22sc_fxval_fast_observer5writeERKNS_13sc_fxval_fastE
         U __ZN5sc_dt22sc_fxval_fast_observer8destructERKNS_13sc_fxval_fastE
         U __ZN5sc_dt22sc_fxval_fast_observer8destructERKNS_13sc_fxval_fastE
         U __ZN5sc_dt22sc_fxval_fast_observer8destructERKNS_13sc_fxval_fastE
         U __ZN5sc_dt22sc_fxval_fast_observer8destructERKNS_13sc_fxval_fastE
         U __ZN5sc_dt22sc_fxval_fast_observer8destructERKNS_13sc_fxval_fastE
         U __ZN5sc_dt22sc_fxval_fast_observer8destructERKNS_13sc_fxval_fastE
         U __ZN5sc_dt22sc_fxval_fast_observer8destructERKNS_13sc_fxval_fastE
         U __ZN5sc_dt22sc_fxval_fast_observer8destructERKNS_13sc_fxval_fastE
         U __ZN5sc_dt22sc_fxval_fast_observer8destructERKNS_13sc_fxval_fastE
         U __ZN5sc_dt22sc_fxval_fast_observer8destructERKNS_13sc_fxval_fastE
         U __ZN5sc_dt22sc_fxval_fast_observer8destructERKNS_13sc_fxval_fastE
         U __ZN5sc_dt22sc_fxval_fast_observer8destructERKNS_13sc_fxval_fastE
         U __ZN5sc_dt22sc_fxval_fast_observer8destructERKNS_13sc_fxval_fastE
         U __ZN5sc_dt22sc_fxval_fast_observer8destructERKNS_13sc_fxval_fastE
         U __ZN5sc_dt22sc_fxval_fast_observer8destructERKNS_13sc_fxval_fastE
         U __ZN5sc_dt22sc_fxval_fast_observer8destructERKNS_13sc_fxval_fastE
         U __ZN5sc_dt22sc_fxval_fast_observer8destructERKNS_13sc_fxval_fastE
         U __ZN5sc_dt22sc_fxval_fast_observer8destructERKNS_13sc_fxval_fastE
         U __ZN5sc_dt22sc_fxval_fast_observer8destructERKNS_13sc_fxval_fastE
         U __ZN5sc_dt22sc_fxval_fast_observer8destructERKNS_13sc_fxval_fastE
         U __ZN5sc_dt22sc_fxval_fast_observer8destructERKNS_13sc_fxval_fastE
         U __ZN5sc_dt22sc_fxval_fast_observer8destructERKNS_13sc_fxval_fastE
         U __ZN5sc_dt22sc_fxval_fast_observer8destructERKNS_13sc_fxval_fastE
         U __ZN5sc_dt22sc_fxval_fast_observer8destructERKNS_13sc_fxval_fastE
         U __ZN5sc_dt22sc_fxval_fast_observer8destructERKNS_13sc_fxval_fastE
         U __ZN5sc_dt22sc_fxval_fast_observer8destructERKNS_13sc_fxval_fastE
         U __ZN5sc_dt22sc_fxval_fast_observer8destructERKNS_13sc_fxval_fastE
         U __ZN5sc_dt22sc_fxval_fast_observer8destructERKNS_13sc_fxval_fastE
         U __ZN5sc_dt22sc_fxval_fast_observer8destructERKNS_13sc_fxval_fastE
         U __ZN5sc_dt22sc_fxval_fast_observer8destructERKNS_13sc_fxval_fastE
         U __ZN5sc_dt22sc_fxval_fast_observer9constructERKNS_13sc_fxval_fastE
         U __ZN5sc_dt22sc_fxval_fast_observer9constructERKNS_13sc_fxval_fastE
         U __ZN5sc_dt22sc_fxval_fast_observer9constructERKNS_13sc_fxval_fastE
         U __ZN5sc_dt22sc_fxval_fast_observer9constructERKNS_13sc_fxval_fastE
         U __ZN5sc_dt22sc_fxval_fast_observer9constructERKNS_13sc_fxval_fastE
         U __ZN5sc_dt22sc_fxval_fast_observer9constructERKNS_13sc_fxval_fastE
         U __ZN5sc_dt22sc_fxval_fast_observer9constructERKNS_13sc_fxval_fastE
         U __ZN5sc_dt22sc_fxval_fast_observer9constructERKNS_13sc_fxval_fastE
         U __ZN5sc_dt22sc_fxval_fast_observer9constructERKNS_13sc_fxval_fastE
         U __ZN5sc_dt22sc_fxval_fast_observer9constructERKNS_13sc_fxval_fastE
         U __ZN5sc_dt22sc_fxval_fast_observer9constructERKNS_13sc_fxval_fastE
         U __ZN5sc_dt22sc_fxval_fast_observer9constructERKNS_13sc_fxval_fastE
         U __ZN5sc_dt22sc_fxval_fast_observer9constructERKNS_13sc_fxval_fastE
         U __ZN5sc_dt22sc_fxval_fast_observer9constructERKNS_13sc_fxval_fastE
         U __ZN5sc_dt22sc_fxval_fast_observer9constructERKNS_13sc_fxval_fastE
         U __ZN5sc_dt22sc_fxval_fast_observer9constructERKNS_13sc_fxval_fastE
         U __ZN5sc_dt22sc_fxval_fast_observer9constructERKNS_13sc_fxval_fastE
         U __ZN5sc_dt22sc_fxval_fast_observer9constructERKNS_13sc_fxval_fastE
         U __ZN5sc_dt22sc_fxval_fast_observer9constructERKNS_13sc_fxval_fastE
         U __ZN5sc_dt22sc_fxval_fast_observer9constructERKNS_13sc_fxval_fastE
         U __ZN5sc_dt22sc_fxval_fast_observer9constructERKNS_13sc_fxval_fastE
         U __ZN5sc_dt22sc_fxval_fast_observer9constructERKNS_13sc_fxval_fastE
         U __ZN5sc_dt22sc_fxval_fast_observer9constructERKNS_13sc_fxval_fastE
         U __ZN5sc_dt22sc_fxval_fast_observer9constructERKNS_13sc_fxval_fastE
         U __ZN5sc_dt22sc_fxval_fast_observer9constructERKNS_13sc_fxval_fastE
         U __ZN5sc_dt22sc_fxval_fast_observer9constructERKNS_13sc_fxval_fastE
         U __ZN5sc_dt22sc_fxval_fast_observer9constructERKNS_13sc_fxval_fastE
         U __ZN5sc_dt22sc_fxval_fast_observer9constructERKNS_13sc_fxval_fastE
         U __ZN5sc_dt22sc_fxval_fast_observer9constructERKNS_13sc_fxval_fastE
         U __ZN5sc_dt22sc_fxval_fast_observer9constructERKNS_13sc_fxval_fastE
         U __ZN5sc_dt22sc_fxval_fast_observerD0Ev
         U __ZN5sc_dt22sc_fxval_fast_observerD0Ev
         U __ZN5sc_dt22sc_fxval_fast_observerD0Ev
         U __ZN5sc_dt22sc_fxval_fast_observerD0Ev
         U __ZN5sc_dt22sc_fxval_fast_observerD0Ev
         U __ZN5sc_dt22sc_fxval_fast_observerD0Ev
         U __ZN5sc_dt22sc_fxval_fast_observerD0Ev
         U __ZN5sc_dt22sc_fxval_fast_observerD0Ev
         U __ZN5sc_dt22sc_fxval_fast_observerD0Ev
         U __ZN5sc_dt22sc_fxval_fast_observerD0Ev
         U __ZN5sc_dt22sc_fxval_fast_observerD0Ev
         U __ZN5sc_dt22sc_fxval_fast_observerD0Ev
         U __ZN5sc_dt22sc_fxval_fast_observerD0Ev
         U __ZN5sc_dt22sc_fxval_fast_observerD0Ev
         U __ZN5sc_dt22sc_fxval_fast_observerD0Ev
         U __ZN5sc_dt22sc_fxval_fast_observerD0Ev
         U __ZN5sc_dt22sc_fxval_fast_observerD0Ev
         U __ZN5sc_dt22sc_fxval_fast_observerD0Ev
         U __ZN5sc_dt22sc_fxval_fast_observerD0Ev
         U __ZN5sc_dt22sc_fxval_fast_observerD0Ev
         U __ZN5sc_dt22sc_fxval_fast_observerD0Ev
         U __ZN5sc_dt22sc_fxval_fast_observerD0Ev
         U __ZN5sc_dt22sc_fxval_fast_observerD0Ev
         U __ZN5sc_dt22sc_fxval_fast_observerD0Ev
         U __ZN5sc_dt22sc_fxval_fast_observerD0Ev
         U __ZN5sc_dt22sc_fxval_fast_observerD0Ev
         U __ZN5sc_dt22sc_fxval_fast_observerD0Ev
         U __ZN5sc_dt22sc_fxval_fast_observerD0Ev
         U __ZN5sc_dt22sc_fxval_fast_observerD0Ev
         U __ZN5sc_dt22sc_fxval_fast_observerD0Ev
         U __ZN5sc_dt22sc_fxval_fast_observerD1Ev
         U __ZN5sc_dt22sc_fxval_fast_observerD1Ev
         U __ZN5sc_dt22sc_fxval_fast_observerD1Ev
         U __ZN5sc_dt22sc_fxval_fast_observerD1Ev
         U __ZN5sc_dt22sc_fxval_fast_observerD1Ev
         U __ZN5sc_dt22sc_fxval_fast_observerD1Ev
         U __ZN5sc_dt22sc_fxval_fast_observerD1Ev
         U __ZN5sc_dt22sc_fxval_fast_observerD1Ev
         U __ZN5sc_dt22sc_fxval_fast_observerD1Ev
         U __ZN5sc_dt22sc_fxval_fast_observerD1Ev
         U __ZN5sc_dt22sc_fxval_fast_observerD1Ev
         U __ZN5sc_dt22sc_fxval_fast_observerD1Ev
         U __ZN5sc_dt22sc_fxval_fast_observerD1Ev
         U __ZN5sc_dt22sc_fxval_fast_observerD1Ev
         U __ZN5sc_dt22sc_fxval_fast_observerD1Ev
         U __ZN5sc_dt22sc_fxval_fast_observerD1Ev
         U __ZN5sc_dt22sc_fxval_fast_observerD1Ev
         U __ZN5sc_dt22sc_fxval_fast_observerD1Ev
         U __ZN5sc_dt22sc_fxval_fast_observerD1Ev
         U __ZN5sc_dt22sc_fxval_fast_observerD1Ev
         U __ZN5sc_dt22sc_fxval_fast_observerD1Ev
         U __ZN5sc_dt22sc_fxval_fast_observerD1Ev
         U __ZN5sc_dt22sc_fxval_fast_observerD1Ev
         U __ZN5sc_dt22sc_fxval_fast_observerD1Ev
         U __ZN5sc_dt22sc_fxval_fast_observerD1Ev
         U __ZN5sc_dt22sc_fxval_fast_observerD1Ev
         U __ZN5sc_dt22sc_fxval_fast_observerD1Ev
         U __ZN5sc_dt22sc_fxval_fast_observerD1Ev
         U __ZN5sc_dt22sc_fxval_fast_observerD1Ev
         U __ZN5sc_dt22sc_fxval_fast_observerD1Ev
         U __ZN5sc_dt6sc_fixD0Ev
         U __ZN5sc_dt6sc_fixD0Ev
         U __ZN5sc_dt6sc_fixD1Ev
         U __ZN5sc_dt6sc_fixD1Ev
         U __ZN5sc_dt7sc_ufixD0Ev
         U __ZN5sc_dt7sc_ufixD0Ev
         U __ZN5sc_dt7sc_ufixD1Ev
         U __ZN5sc_dt7sc_ufixD1Ev
         U __ZN5sc_dt8sc_fxnumD0Ev
         U __ZN5sc_dt8sc_fxnumD0Ev
         U __ZN5sc_dt8sc_fxnumD0Ev
         U __ZN5sc_dt8sc_fxnumD0Ev
         U __ZN5sc_dt8sc_fxnumD0Ev
         U __ZN5sc_dt8sc_fxnumD0Ev
         U __ZN5sc_dt8sc_fxnumD0Ev
         U __ZN5sc_dt8sc_fxnumD0Ev
         U __ZN5sc_dt8sc_fxnumD0Ev
         U __ZN5sc_dt8sc_fxnumD0Ev
         U __ZN5sc_dt8sc_fxnumD0Ev
         U __ZN5sc_dt8sc_fxnumD0Ev
         U __ZN5sc_dt8sc_fxnumD0Ev
         U __ZN5sc_dt8sc_fxnumD0Ev
         U __ZN5sc_dt8sc_fxnumD0Ev
         U __ZN5sc_dt8sc_fxnumD0Ev
         U __ZN5sc_dt8sc_fxnumD0Ev
         U __ZN5sc_dt8sc_fxnumD0Ev
         U __ZN5sc_dt8sc_fxnumD0Ev
         U __ZN5sc_dt8sc_fxnumD0Ev
         U __ZN5sc_dt8sc_fxnumD0Ev
         U __ZN5sc_dt8sc_fxnumD0Ev
         U __ZN5sc_dt8sc_fxnumD0Ev
         U __ZN5sc_dt8sc_fxnumD0Ev
         U __ZN5sc_dt8sc_fxnumD0Ev
         U __ZN5sc_dt8sc_fxnumD0Ev
         U __ZN5sc_dt8sc_fxnumD0Ev
         U __ZN5sc_dt8sc_fxnumD0Ev
         U __ZN5sc_dt8sc_fxnumD0Ev
         U __ZN5sc_dt8sc_fxnumD1Ev
         U __ZN5sc_dt8sc_fxnumD1Ev
         U __ZN5sc_dt8sc_fxnumD1Ev
         U __ZN5sc_dt8sc_fxnumD1Ev
         U __ZN5sc_dt8sc_fxnumD1Ev
         U __ZN5sc_dt8sc_fxnumD1Ev
         U __ZN5sc_dt8sc_fxnumD1Ev
         U __ZN5sc_dt8sc_fxnumD1Ev
         U __ZN5sc_dt8sc_fxnumD1Ev
         U __ZN5sc_dt8sc_fxnumD1Ev
         U __ZN5sc_dt8sc_fxnumD1Ev
         U __ZN5sc_dt8sc_fxnumD1Ev
         U __ZN5sc_dt8sc_fxnumD1Ev
         U __ZN5sc_dt8sc_fxnumD1Ev
         U __ZN5sc_dt8sc_fxnumD1Ev
         U __ZN5sc_dt8sc_fxnumD1Ev
         U __ZN5sc_dt8sc_fxnumD1Ev
         U __ZN5sc_dt8sc_fxnumD1Ev
         U __ZN5sc_dt8sc_fxnumD1Ev
         U __ZN5sc_dt8sc_fxnumD1Ev
         U __ZN5sc_dt8sc_fxnumD1Ev
         U __ZN5sc_dt8sc_fxnumD1Ev
         U __ZN5sc_dt8sc_fxnumD1Ev
         U __ZN5sc_dt8sc_fxnumD1Ev
         U __ZN5sc_dt8sc_fxnumD1Ev
         U __ZN5sc_dt8sc_fxnumD1Ev
         U __ZN5sc_dt8sc_fxnumD1Ev
         U __ZN5sc_dt8sc_fxnumD1Ev
         U __ZN5sc_dt8sc_fxnumD1Ev
         U __ZN5sc_dt8sc_proxyINS_10sc_bv_baseEED0Ev
         U __ZN5sc_dt8sc_proxyINS_10sc_bv_baseEED1Ev
         U __ZN5sc_dt8sc_proxyINS_10sc_lv_baseEED0Ev
         U __ZN5sc_dt8sc_proxyINS_10sc_lv_baseEED1Ev
         U __ZN7sc_core12sc_process_b16add_child_objectEPNS_9sc_objectE
         U __ZN7sc_core12sc_process_b16add_child_objectEPNS_9sc_objectE
         U __ZN7sc_core12sc_process_b16add_child_objectEPNS_9sc_objectE
         U __ZN7sc_core12sc_process_b19remove_child_objectEPNS_9sc_objectE
         U __ZN7sc_core12sc_process_b19remove_child_objectEPNS_9sc_objectE
         U __ZN7sc_core12sc_process_b19remove_child_objectEPNS_9sc_objectE
         U __ZN7sc_core15sc_process_hostD0Ev
         U __ZN7sc_core15sc_process_hostD0Ev
         U __ZN7sc_core15sc_process_hostD1Ev
         U __ZN7sc_core15sc_process_hostD1Ev
         U __ZN7sc_core15sc_signal_in_ifIbED0Ev
         U __ZN7sc_core15sc_signal_in_ifIbED0Ev
         U __ZN7sc_core15sc_signal_in_ifIbED1Ev
         U __ZN7sc_core15sc_signal_in_ifIbED1Ev
         U __ZN7sc_core17sc_event_finder_tINS_15sc_signal_in_ifIbEEED0Ev
         U __ZN7sc_core17sc_event_finder_tINS_15sc_signal_in_ifIbEEED1Ev
         U __ZN7sc_core17sc_foreign_moduleD0Ev
         U __ZN7sc_core17sc_foreign_moduleD1Ev
         U __ZN7sc_core18sc_process_monitor6signalEPNS_17sc_thread_processEi
         U __ZN7sc_core18sc_process_monitor6signalEPNS_17sc_thread_processEi
         U __ZN7sc_core18sc_process_monitor6signalEPNS_17sc_thread_processEi
         U __ZN7sc_core18sc_process_monitor6signalEPNS_17sc_thread_processEi
         U __ZN7sc_core18sc_process_monitor6signalEPNS_17sc_thread_processEi
         U __ZN7sc_core18sc_process_monitor6signalEPNS_17sc_thread_processEi
         U __ZN7sc_core18sc_process_monitor6signalEPNS_17sc_thread_processEi
         U __ZN7sc_core18sc_process_monitor6signalEPNS_17sc_thread_processEi
         U __ZN7sc_core18sc_process_monitor6signalEPNS_17sc_thread_processEi
         U __ZN7sc_core18sc_process_monitor6signalEPNS_17sc_thread_processEi
         U __ZN7sc_core18sc_process_monitor6signalEPNS_17sc_thread_processEi
         U __ZN7sc_core18sc_process_monitor6signalEPNS_17sc_thread_processEi
         U __ZN7sc_core18sc_process_monitor6signalEPNS_17sc_thread_processEi
         U __ZN7sc_core18sc_process_monitor6signalEPNS_17sc_thread_processEi
         U __ZN7sc_core18sc_process_monitor6signalEPNS_17sc_thread_processEi
         U __ZN7sc_core18sc_process_monitor6signalEPNS_17sc_thread_processEi
         U __ZN7sc_core18sc_process_monitor6signalEPNS_17sc_thread_processEi
         U __ZN7sc_core18sc_process_monitor6signalEPNS_17sc_thread_processEi
         U __ZN7sc_core18sc_process_monitor6signalEPNS_17sc_thread_processEi
         U __ZN7sc_core18sc_process_monitor6signalEPNS_17sc_thread_processEi
         U __ZN7sc_core18sc_process_monitor6signalEPNS_17sc_thread_processEi
         U __ZN7sc_core18sc_process_monitor6signalEPNS_17sc_thread_processEi
         U __ZN7sc_core18sc_process_monitor6signalEPNS_17sc_thread_processEi
         U __ZN7sc_core18sc_process_monitor6signalEPNS_17sc_thread_processEi
         U __ZN7sc_core18sc_process_monitor6signalEPNS_17sc_thread_processEi
         U __ZN7sc_core18sc_process_monitor6signalEPNS_17sc_thread_processEi
         U __ZN7sc_core18sc_process_monitor6signalEPNS_17sc_thread_processEi
         U __ZN7sc_core18sc_process_monitor6signalEPNS_17sc_thread_processEi
         U __ZN7sc_core18sc_process_monitor6signalEPNS_17sc_thread_processEi
         U __ZN7sc_core18sc_process_monitor6signalEPNS_17sc_thread_processEi
         U __ZN7sc_core18sc_process_monitor6signalEPNS_17sc_thread_processEi
         U __ZN7sc_core18sc_process_monitor6signalEPNS_17sc_thread_processEi
         U __ZN7sc_core18sc_process_monitor6signalEPNS_17sc_thread_processEi
         U __ZN7sc_core18sc_process_monitor6signalEPNS_17sc_thread_processEi
         U __ZN7sc_core18sc_process_monitor6signalEPNS_17sc_thread_processEi
         U __ZN7sc_core18sc_process_monitor6signalEPNS_17sc_thread_processEi
         U __ZN7sc_core18sc_process_monitor6signalEPNS_17sc_thread_processEi
         U __ZN7sc_core18sc_process_monitor6signalEPNS_17sc_thread_processEi
         U __ZN7sc_core18sc_process_monitor6signalEPNS_17sc_thread_processEi
         U __ZN7sc_core18sc_process_monitor6signalEPNS_17sc_thread_processEi
         U __ZN7sc_core18sc_process_monitor6signalEPNS_17sc_thread_processEi
         U __ZN7sc_core18sc_process_monitor6signalEPNS_17sc_thread_processEi
         U __ZN7sc_core18sc_process_monitor6signalEPNS_17sc_thread_processEi
         U __ZN7sc_core18sc_process_monitor6signalEPNS_17sc_thread_processEi
         U __ZN7sc_core18sc_process_monitor6signalEPNS_17sc_thread_processEi
         U __ZN7sc_core18sc_process_monitor6signalEPNS_17sc_thread_processEi
         U __ZN7sc_core18sc_process_monitor6signalEPNS_17sc_thread_processEi
         U __ZN7sc_core18sc_process_monitor6signalEPNS_17sc_thread_processEi
         U __ZN7sc_core18sc_process_monitorD0Ev
         U __ZN7sc_core18sc_process_monitorD0Ev
         U __ZN7sc_core18sc_process_monitorD0Ev
         U __ZN7sc_core18sc_process_monitorD0Ev
         U __ZN7sc_core18sc_process_monitorD0Ev
         U __ZN7sc_core18sc_process_monitorD0Ev
         U __ZN7sc_core18sc_process_monitorD0Ev
         U __ZN7sc_core18sc_process_monitorD0Ev
         U __ZN7sc_core18sc_process_monitorD0Ev
         U __ZN7sc_core18sc_process_monitorD0Ev
         U __ZN7sc_core18sc_process_monitorD0Ev
         U __ZN7sc_core18sc_process_monitorD0Ev
         U __ZN7sc_core18sc_process_monitorD0Ev
         U __ZN7sc_core18sc_process_monitorD0Ev
         U __ZN7sc_core18sc_process_monitorD0Ev
         U __ZN7sc_core18sc_process_monitorD0Ev
         U __ZN7sc_core18sc_process_monitorD0Ev
         U __ZN7sc_core18sc_process_monitorD0Ev
         U __ZN7sc_core18sc_process_monitorD0Ev
         U __ZN7sc_core18sc_process_monitorD0Ev
         U __ZN7sc_core18sc_process_monitorD0Ev
         U __ZN7sc_core18sc_process_monitorD0Ev
         U __ZN7sc_core18sc_process_monitorD0Ev
         U __ZN7sc_core18sc_process_monitorD0Ev
         U __ZN7sc_core18sc_process_monitorD0Ev
         U __ZN7sc_core18sc_process_monitorD0Ev
         U __ZN7sc_core18sc_process_monitorD0Ev
         U __ZN7sc_core18sc_process_monitorD0Ev
         U __ZN7sc_core18sc_process_monitorD0Ev
         U __ZN7sc_core18sc_process_monitorD0Ev
         U __ZN7sc_core18sc_process_monitorD0Ev
         U __ZN7sc_core18sc_process_monitorD0Ev
         U __ZN7sc_core18sc_process_monitorD0Ev
         U __ZN7sc_core18sc_process_monitorD0Ev
         U __ZN7sc_core18sc_process_monitorD0Ev
         U __ZN7sc_core18sc_process_monitorD0Ev
         U __ZN7sc_core18sc_process_monitorD0Ev
         U __ZN7sc_core18sc_process_monitorD0Ev
         U __ZN7sc_core18sc_process_monitorD0Ev
         U __ZN7sc_core18sc_process_monitorD0Ev
         U __ZN7sc_core18sc_process_monitorD0Ev
         U __ZN7sc_core18sc_process_monitorD0Ev
         U __ZN7sc_core18sc_process_monitorD0Ev
         U __ZN7sc_core18sc_process_monitorD0Ev
         U __ZN7sc_core18sc_process_monitorD0Ev
         U __ZN7sc_core18sc_process_monitorD0Ev
         U __ZN7sc_core18sc_process_monitorD0Ev
         U __ZN7sc_core18sc_process_monitorD0Ev
         U __ZN7sc_core18sc_process_monitorD1Ev
         U __ZN7sc_core18sc_process_monitorD1Ev
         U __ZN7sc_core18sc_process_monitorD1Ev
         U __ZN7sc_core18sc_process_monitorD1Ev
         U __ZN7sc_core18sc_process_monitorD1Ev
         U __ZN7sc_core18sc_process_monitorD1Ev
         U __ZN7sc_core18sc_process_monitorD1Ev
         U __ZN7sc_core18sc_process_monitorD1Ev
         U __ZN7sc_core18sc_process_monitorD1Ev
         U __ZN7sc_core18sc_process_monitorD1Ev
         U __ZN7sc_core18sc_process_monitorD1Ev
         U __ZN7sc_core18sc_process_monitorD1Ev
         U __ZN7sc_core18sc_process_monitorD1Ev
         U __ZN7sc_core18sc_process_monitorD1Ev
         U __ZN7sc_core18sc_process_monitorD1Ev
         U __ZN7sc_core18sc_process_monitorD1Ev
         U __ZN7sc_core18sc_process_monitorD1Ev
         U __ZN7sc_core18sc_process_monitorD1Ev
         U __ZN7sc_core18sc_process_monitorD1Ev
         U __ZN7sc_core18sc_process_monitorD1Ev
         U __ZN7sc_core18sc_process_monitorD1Ev
         U __ZN7sc_core18sc_process_monitorD1Ev
         U __ZN7sc_core18sc_process_monitorD1Ev
         U __ZN7sc_core18sc_process_monitorD1Ev
         U __ZN7sc_core18sc_process_monitorD1Ev
         U __ZN7sc_core18sc_process_monitorD1Ev
         U __ZN7sc_core18sc_process_monitorD1Ev
         U __ZN7sc_core18sc_process_monitorD1Ev
         U __ZN7sc_core18sc_process_monitorD1Ev
         U __ZN7sc_core18sc_process_monitorD1Ev
         U __ZN7sc_core18sc_process_monitorD1Ev
         U __ZN7sc_core18sc_process_monitorD1Ev
         U __ZN7sc_core18sc_process_monitorD1Ev
         U __ZN7sc_core18sc_process_monitorD1Ev
         U __ZN7sc_core18sc_process_monitorD1Ev
         U __ZN7sc_core18sc_process_monitorD1Ev
         U __ZN7sc_core18sc_process_monitorD1Ev
         U __ZN7sc_core18sc_process_monitorD1Ev
         U __ZN7sc_core18sc_process_monitorD1Ev
         U __ZN7sc_core18sc_process_monitorD1Ev
         U __ZN7sc_core18sc_process_monitorD1Ev
         U __ZN7sc_core18sc_process_monitorD1Ev
         U __ZN7sc_core18sc_process_monitorD1Ev
         U __ZN7sc_core18sc_process_monitorD1Ev
         U __ZN7sc_core18sc_process_monitorD1Ev
         U __ZN7sc_core18sc_process_monitorD1Ev
         U __ZN7sc_core18sc_process_monitorD1Ev
         U __ZN7sc_core18sc_process_monitorD1Ev
         U __ZN7sc_core18sc_signal_inout_ifIbED0Ev
         U __ZN7sc_core18sc_signal_inout_ifIbED0Ev
         U __ZN7sc_core18sc_signal_inout_ifIbED1Ev
         U __ZN7sc_core18sc_signal_inout_ifIbED1Ev
         U __ZN7sc_core18sc_signal_write_ifIbED0Ev
         U __ZN7sc_core18sc_signal_write_ifIbED0Ev
         U __ZN7sc_core18sc_signal_write_ifIbED1Ev
         U __ZN7sc_core18sc_signal_write_ifIbED1Ev
         U __ZN7sc_core5sc_inIbED1Ev
         U __ZN7sc_core7sc_portINS_15sc_signal_in_ifIbEELi1ELNS_14sc_port_policyE0EED0Ev
         U __ZN7sc_core7sc_portINS_15sc_signal_in_ifIbEELi1ELNS_14sc_port_policyE0EED1Ev
         U __ZN7sc_core9sc_module13mti_is_regionEv
         U __ZN7sc_core9sc_module13mti_is_regionEv
         U __ZN7sc_core9sc_module13mti_is_regionEv
         U __ZN7sc_core9sc_module13mti_is_regionEv
         U __ZN7sc_core9sc_module13mti_is_regionEv
         U __ZN7sc_core9sc_object13mti_is_regionEv
         U __ZN7sc_core9sc_object13mti_is_regionEv
         U __ZN7sc_core9sc_object13mti_is_regionEv
         U __ZN7sc_core9sc_object13mti_is_regionEv
         U __ZN7sc_core9sc_object13mti_is_regionEv
         U __ZN7sc_core9sc_object13mti_is_regionEv
         U __ZN7sc_core9sc_object13mti_is_regionEv
         U __ZN7sc_core9sc_object13mti_is_regionEv
         U __ZN7sc_core9sc_object13mti_is_regionEv
         U __ZN7sc_core9sc_object13mti_is_regionEv
         U __ZN7sc_core9sc_object13mti_is_regionEv
         U __ZN7sc_core9sc_object23mti_is_use_default_nameEv
         U __ZN7sc_core9sc_object23mti_is_use_default_nameEv
         U __ZN7sc_core9sc_object23mti_is_use_default_nameEv
         U __ZN7sc_core9sc_object23mti_is_use_default_nameEv
         U __ZN7sc_core9sc_object23mti_is_use_default_nameEv
         U __ZN7sc_core9sc_object23mti_is_use_default_nameEv
         U __ZN7sc_core9sc_object23mti_is_use_default_nameEv
         U __ZN7sc_core9sc_object23mti_is_use_default_nameEv
         U __ZN7sc_core9sc_object23mti_is_use_default_nameEv
         U __ZN7sc_core9sc_object23mti_is_use_default_nameEv
         U __ZN7sc_core9sc_object23mti_is_use_default_nameEv
         U __ZN7sc_core9sc_object23mti_is_use_default_nameEv
         U __ZN7sc_core9sc_object23mti_is_use_default_nameEv
         U __ZN7sc_core9sc_object23mti_is_use_default_nameEv
         U __ZN7sc_core9sc_object23mti_is_use_default_nameEv
         U __ZN7sc_core9sc_object24mti_set_use_default_nameEb
         U __ZN7sc_core9sc_object24mti_set_use_default_nameEb
         U __ZN7sc_core9sc_object24mti_set_use_default_nameEb
         U __ZN7sc_core9sc_object24mti_set_use_default_nameEb
         U __ZN7sc_core9sc_object24mti_set_use_default_nameEb
         U __ZN7sc_core9sc_object24mti_set_use_default_nameEb
         U __ZN7sc_core9sc_object24mti_set_use_default_nameEb
         U __ZN7sc_core9sc_object24mti_set_use_default_nameEb
         U __ZN7sc_core9sc_object24mti_set_use_default_nameEb
         U __ZN7sc_core9sc_object24mti_set_use_default_nameEb
         U __ZN7sc_core9sc_object24mti_set_use_default_nameEb
         U __ZN7sc_core9sc_object24mti_set_use_default_nameEb
         U __ZN7sc_core9sc_object24mti_set_use_default_nameEb
         U __ZN7sc_core9sc_object24mti_set_use_default_nameEb
         U __ZN7sc_core9sc_object24mti_set_use_default_nameEb
         U __ZN7sc_core9sc_port_bINS_15sc_signal_in_ifIbEEE13add_interfaceEPNS_12sc_interfaceE
         U __ZN7sc_core9sc_port_bINS_15sc_signal_in_ifIbEEE13get_interfaceEv
         U __ZN7sc_core9sc_port_bINS_15sc_signal_in_ifIbEEE15interface_countEv
         U __ZN7sc_core9sc_port_bINS_15sc_signal_in_ifIbEEE4bindERS2_
         U __ZN7sc_core9sc_port_bINS_15sc_signal_in_ifIbEEE4bindERS3_
         U __ZN7sc_core9sc_port_bINS_15sc_signal_in_ifIbEEE5vbindERNS_12sc_interfaceE
         U __ZN7sc_core9sc_port_bINS_15sc_signal_in_ifIbEEE5vbindERNS_12sc_port_baseE
         U __ZN7sc_core9sc_port_bINS_15sc_signal_in_ifIbEEED0Ev
         U __ZN7sc_core9sc_port_bINS_15sc_signal_in_ifIbEEED1Ev
         U __ZN7sc_core9sc_signalIbLNS_16sc_writer_policyE0EE18mti_get_channel_idEPNS_9sc_objectE
         U __ZN7sc_core9sc_signalIbLNS_16sc_writer_policyE0EE18mti_get_channel_idEPNS_9sc_objectE
         U __ZN7sc_core9sc_signalIbLNS_16sc_writer_policyE0EE20mti_get_channel_typeEv
         U __ZN7sc_core9sc_signalIbLNS_16sc_writer_policyE0EE20mti_get_channel_typeEv
         U __ZN7sc_core9sc_signalIbLNS_16sc_writer_policyE0EE21mti_get_channel_valueEi
         U __ZN7sc_core9sc_signalIbLNS_16sc_writer_policyE0EE21mti_get_channel_valueEi
         U __ZN7sc_core9sc_signalIbLNS_16sc_writer_policyE0EE21mti_set_channel_valueEPvi
         U __ZN7sc_core9sc_signalIbLNS_16sc_writer_policyE0EE21mti_set_channel_valueEPvi
         U __ZN7sc_core9sc_signalIbLNS_16sc_writer_policyE0EE27mti_get_construction_paramsEPiS3_S3_S3_S3_
         U __ZN7sc_core9sc_signalIbLNS_16sc_writer_policyE0EE27mti_get_construction_paramsEPiS3_S3_S3_S3_
         U __ZN7sc_core9sc_signalIbLNS_16sc_writer_policyE0EEC1EPKc
         U __ZN8ptrarrayIPcED1Ev
         U __ZN8ptrarrayIPKN7sc_core8sc_eventEE15resize_physicalEi
         U __ZN8ptrarrayIPKN7sc_core8sc_eventEE15resize_physicalEi
         U __ZN8ptrarrayIPKN7sc_core8sc_eventEE9push_backES3_
         U __ZN8ptrarrayIPKN7sc_core8sc_eventEE9push_backES3_
         U __ZN8ptrarrayIPKN7sc_core8sc_eventEEC1Ev
         U __ZN8ptrarrayIPKN7sc_core8sc_eventEEC1Ev
         U __ZN8ptrarrayIPKN7sc_core8sc_eventEEC1Ev
         U __ZN8ptrarrayIPKN7sc_core8sc_eventEED1Ev
         U __ZN8ptrarrayIPKN7sc_core8sc_eventEED1Ev
         U __ZN8ptrarrayIPKN7sc_core8sc_eventEED1Ev
         U __ZN8ptrarrayIPKN7sc_core8sc_eventEED1Ev
         U __ZN8ptrarrayIPKN7sc_core8sc_eventEEixEi
         U __ZN8ptrarrayIPN7sc_core12sc_interfaceEEC1Ev
         U __ZN8ptrarrayIPN7sc_core12sc_interfaceEEC1Ev
         U __ZN8ptrarrayIPN7sc_core12sc_port_baseEE15resize_physicalEi
         U __ZN8ptrarrayIPN7sc_core12sc_port_baseEE9push_backES2_
         U __ZN8ptrarrayIPN7sc_core12sc_port_baseEEC1Ev
         U __ZN8ptrarrayIPN7sc_core12sc_port_baseEEC1Ev
         U __ZN8ptrarrayIPN7sc_core12sc_port_baseEEC1Ev
         U __ZN8ptrarrayIPN7sc_core12sc_port_baseEEC1Ev
         U __ZN8ptrarrayIPN7sc_core12sc_port_baseEED1Ev
         U __ZN8ptrarrayIPN7sc_core12sc_port_baseEED1Ev
         U __ZN8ptrarrayIPN7sc_core12sc_port_baseEEixEi
         U __ZN8ptrarrayIPN7sc_core15sc_event_finderEEC1Ev
         U __ZN8ptrarrayIPN7sc_core15sc_event_finderEEC1Ev
         U __ZN8ptrarrayIPN7sc_core15sc_signal_in_ifIbEEE15resize_physicalEi
         U __ZN8ptrarrayIPN7sc_core15sc_signal_in_ifIbEEE9push_backES3_
         U __ZN8ptrarrayIPN7sc_core15sc_signal_in_ifIbEEED1Ev
         U __ZN8ptrarrayIPN7sc_core15sc_signal_in_ifIbEEEixEi
         U __ZN8ptrarrayIPN7sc_core15sc_trace_paramsEED1Ev
         U __ZN8ptrarrayIPN7sc_core15sc_trace_paramsEEixEi
         U __ZN8ptrarrayIPN7sc_core17sc_method_processEE15resize_physicalEi
         U __ZN8ptrarrayIPN7sc_core17sc_method_processEE15resize_physicalEi
         U __ZN8ptrarrayIPN7sc_core17sc_method_processEE9push_backES2_
         U __ZN8ptrarrayIPN7sc_core17sc_method_processEE9push_backES2_
         U __ZN8ptrarrayIPN7sc_core17sc_method_processEEC1Ev
         U __ZN8ptrarrayIPN7sc_core17sc_method_processEED1Ev
         U __ZN8ptrarrayIPN7sc_core17sc_thread_processEE15resize_physicalEi
         U __ZN8ptrarrayIPN7sc_core17sc_thread_processEE15resize_physicalEi
         U __ZN8ptrarrayIPN7sc_core17sc_thread_processEE9push_backES2_
         U __ZN8ptrarrayIPN7sc_core17sc_thread_processEE9push_backES2_
         U __ZN8ptrarrayIPN7sc_core17sc_thread_processEEC1Ev
         U __ZN8ptrarrayIPN7sc_core17sc_thread_processEED1Ev
         U __ZN8ptrarrayIPN7sc_core18sc_process_monitorEEC1Ev
         U __ZN8ptrarrayIPN7sc_core18sc_process_monitorEED1Ev
         U __ZN8ptrarrayIPN7sc_core18sc_process_monitorEEixEi
         U __ZN8ptrarrayIPN7sc_core19sc_spawn_reset_baseEEC1Ev
         U __ZN8ptrarrayIPN7sc_core19sc_spawn_reset_baseEEC1Ev
         U __ZN9__gnu_cxx24__concurrence_lock_errorD0Ev
         U __ZN9__gnu_cxx24__concurrence_lock_errorD0Ev
         U __ZN9__gnu_cxx24__concurrence_lock_errorD0Ev
         U __ZN9__gnu_cxx24__concurrence_lock_errorD1Ev
         U __ZN9__gnu_cxx24__concurrence_lock_errorD1Ev
         U __ZN9__gnu_cxx24__concurrence_lock_errorD1Ev
         U __ZN9__gnu_cxx26__concurrence_unlock_errorD0Ev
         U __ZN9__gnu_cxx26__concurrence_unlock_errorD0Ev
         U __ZN9__gnu_cxx26__concurrence_unlock_errorD0Ev
         U __ZN9__gnu_cxx26__concurrence_unlock_errorD1Ev
         U __ZN9__gnu_cxx26__concurrence_unlock_errorD1Ev
         U __ZN9__gnu_cxx26__concurrence_unlock_errorD1Ev
         U __ZNK13sc_mti_access17mti_get_dpi_valueEPv
         U __ZNK13sc_mti_access17mti_get_dpi_valueEPv
         U __ZNK13sc_mti_access17mti_get_dpi_valueEPv
         U __ZNK13sc_mti_access17mti_get_dpi_valueEPv
         U __ZNK13sc_mti_access17mti_get_dpi_valueEPv
         U __ZNK13sc_mti_access17mti_get_dpi_valueEPv
         U __ZNK13sc_mti_access17mti_get_dpi_valueEPv
         U __ZNK13sc_mti_access17mti_get_dpi_valueEPv
         U __ZNK13sc_mti_access17mti_get_dpi_valueEPv
         U __ZNK13sc_mti_access17mti_get_dpi_valueEPv
         U __ZNK13sc_mti_access17mti_get_dpi_valueEPv
         U __ZNK13sc_mti_access17mti_get_dpi_valueEPv
         U __ZNK13sc_mti_access17mti_get_dpi_valueEPv
         U __ZNK13sc_mti_access17mti_get_dpi_valueEPv
         U __ZNK13sc_mti_access17mti_get_dpi_valueEPv
         U __ZNK13sc_mti_access17mti_get_dpi_valueEPv
         U __ZNK13sc_mti_access17mti_get_dpi_valueEPv
         U __ZNK13sc_mti_access17mti_get_dpi_valueEPv
         U __ZNK13sc_mti_access17mti_get_dpi_valueEPv
         U __ZNK13sc_mti_access17mti_get_dpi_valueEPv
         U __ZNK13sc_mti_access17mti_get_dpi_valueEPv
         U __ZNK13sc_mti_access17mti_get_dpi_valueEPv
         U __ZNK13sc_mti_access17mti_get_dpi_valueEPv
         U __ZNK13sc_mti_access17mti_get_dpi_valueEPv
         U __ZNK13sc_mti_access17mti_get_dpi_valueEPv
         U __ZNK13sc_mti_access17mti_get_dpi_valueEPv
         U __ZNK13sc_mti_access17mti_get_dpi_valueEPv
         U __ZNK13sc_mti_access17mti_get_dpi_valueEPv
         U __ZNK13sc_mti_access17mti_get_dpi_valueEPv
         U __ZNK13sc_mti_access17mti_get_dpi_valueEPv
         U __ZNK13sc_mti_access17mti_get_dpi_valueEPv
         U __ZNK13sc_mti_access17mti_get_dpi_valueEPv
         U __ZNK13sc_mti_access17mti_get_dpi_valueEPv
         U __ZNK13sc_mti_access17mti_get_dpi_valueEPv
         U __ZNK5sc_dt11sc_int_base13concat_lengthEPb
         U __ZNK5sc_dt11sc_int_base17concat_get_uint64Ev
         U __ZNK5sc_dt12sc_uint_base13concat_lengthEPb
         U __ZNK5sc_dt12sc_uint_base17concat_get_uint64Ev
         U __ZNK7sc_core12sc_port_base4kindEv
         U __ZNK7sc_core12sc_port_base4kindEv
         U __ZNK7sc_core12sc_process_b10terminatedEv
         U __ZNK7sc_core12sc_process_b10terminatedEv
         U __ZNK7sc_core12sc_process_b10terminatedEv
         U __ZNK7sc_core12sc_process_b17get_child_objectsEv
         U __ZNK7sc_core12sc_process_b17get_child_objectsEv
         U __ZNK7sc_core12sc_process_b17get_child_objectsEv
         U __ZNK7sc_core15sc_signal_in_ifIbE8is_resetEv
         U __ZNK7sc_core15sc_signal_in_ifIbE8is_resetEv
         U __ZNK7sc_core17sc_event_finder_tINS_15sc_signal_in_ifIbEEE10find_eventEPNS_12sc_interfaceE
         U __ZNK7sc_core18sc_signal_write_ifIbE17get_writer_policyEv
         U __ZNK7sc_core18sc_signal_write_ifIbE17get_writer_policyEv
         U __ZNK7sc_core7sc_portINS_15sc_signal_in_ifIbEELi1ELNS_14sc_port_policyE0EE4kindEv
         U __ZNK7sc_core9sc_module4kindEv
         U __ZNK7sc_core9sc_module4kindEv
         U __ZNK7sc_core9sc_module4kindEv
         U __ZNK7sc_core9sc_module4kindEv
         U __ZNK7sc_core9sc_module4kindEv
         U __ZNK7sc_core9sc_object16get_child_eventsEv
         U __ZNK7sc_core9sc_object16get_child_eventsEv
         U __ZNK7sc_core9sc_object16get_child_eventsEv
         U __ZNK7sc_core9sc_object16get_child_eventsEv
         U __ZNK7sc_core9sc_object16get_child_eventsEv
         U __ZNK7sc_core9sc_object16get_child_eventsEv
         U __ZNK7sc_core9sc_object16get_child_eventsEv
         U __ZNK7sc_core9sc_object16get_child_eventsEv
         U __ZNK7sc_core9sc_object16get_child_eventsEv
         U __ZNK7sc_core9sc_object16get_child_eventsEv
         U __ZNK7sc_core9sc_object16get_child_eventsEv
         U __ZNK7sc_core9sc_object16get_child_eventsEv
         U __ZNK7sc_core9sc_object16get_child_eventsEv
         U __ZNK7sc_core9sc_object16get_child_eventsEv
         U __ZNK7sc_core9sc_object16get_child_eventsEv
         U __ZNK7sc_core9sc_object17get_child_objectsEv
         U __ZNK7sc_core9sc_object17get_child_objectsEv
         U __ZNK7sc_core9sc_object17get_child_objectsEv
         U __ZNK7sc_core9sc_object17get_child_objectsEv
         U __ZNK7sc_core9sc_object17get_child_objectsEv
         U __ZNK7sc_core9sc_object17get_child_objectsEv
         U __ZNK7sc_core9sc_object17get_child_objectsEv
         U __ZNK7sc_core9sc_object4kindEv
         U __ZNK7sc_core9sc_object4kindEv
         U __ZNK7sc_core9sc_port_bINS_15sc_signal_in_ifIbEEE11if_typenameEv
         U __ZNK7sc_core9sc_port_bINS_15sc_signal_in_ifIbEEE13get_interfaceEv
         U __ZNK7sc_core9sc_port_bINS_15sc_signal_in_ifIbEEE14make_sensitiveEPNS_17sc_method_processEPNS_15sc_event_finderE
         U __ZNK7sc_core9sc_port_bINS_15sc_signal_in_ifIbEEE14make_sensitiveEPNS_17sc_thread_processEPNS_15sc_event_finderE
         U __ZNK7sc_core9sc_signalIbLNS_16sc_writer_policyE0EE12get_data_refEv
         U __ZNK7sc_core9sc_signalIbLNS_16sc_writer_policyE0EE12get_data_refEv
         U __ZNK7sc_core9sc_signalIbLNS_16sc_writer_policyE0EE13default_eventEv
         U __ZNK7sc_core9sc_signalIbLNS_16sc_writer_policyE0EE13default_eventEv
         U __ZNK7sc_core9sc_signalIbLNS_16sc_writer_policyE0EE17get_writer_policyEv
         U __ZNK7sc_core9sc_signalIbLNS_16sc_writer_policyE0EE17get_writer_policyEv
         U __ZNK7sc_core9sc_signalIbLNS_16sc_writer_policyE0EE4kindEv
         U __ZNK7sc_core9sc_signalIbLNS_16sc_writer_policyE0EE4kindEv
         U __ZNK7sc_core9sc_signalIbLNS_16sc_writer_policyE0EE4readEv
         U __ZNK7sc_core9sc_signalIbLNS_16sc_writer_policyE0EE4readEv
         U __ZNK7sc_core9sc_signalIbLNS_16sc_writer_policyE0EE5eventEv
         U __ZNK7sc_core9sc_signalIbLNS_16sc_writer_policyE0EE5eventEv
         U __ZNK7sc_core9sc_signalIbLNS_16sc_writer_policyE0EE5traceEPNS_13sc_trace_fileE
         U __ZNK7sc_core9sc_signalIbLNS_16sc_writer_policyE0EE5traceEPNS_13sc_trace_fileE
         U __ZNK7sc_core9sc_signalIbLNS_16sc_writer_policyE0EE7negedgeEv
         U __ZNK7sc_core9sc_signalIbLNS_16sc_writer_policyE0EE7negedgeEv
         U __ZNK7sc_core9sc_signalIbLNS_16sc_writer_policyE0EE7posedgeEv
         U __ZNK7sc_core9sc_signalIbLNS_16sc_writer_policyE0EE7posedgeEv
         U __ZNK8ptrarrayIPKN7sc_core8sc_eventEEixEi
         U __ZNK8ptrarrayIPKN7sc_core8sc_eventEEixEi
         U __ZNK8ptrarrayIPN7sc_core12sc_interfaceEEixEi
         U __ZNK8ptrarrayIPN7sc_core12sc_port_baseEEixEi
         U __ZNK8ptrarrayIPN7sc_core12sc_port_baseEEixEi
         U __ZNK8ptrarrayIPN7sc_core15sc_event_finderEEixEi
         U __ZNK8ptrarrayIPN7sc_core15sc_signal_in_ifIbEEEixEi
         U __ZNK8ptrarrayIPN7sc_core9sc_moduleEEixEi
         U __ZNK9__gnu_cxx24__concurrence_lock_error4whatEv
         U __ZNK9__gnu_cxx24__concurrence_lock_error4whatEv
         U __ZNK9__gnu_cxx24__concurrence_lock_error4whatEv
         U __ZNK9__gnu_cxx26__concurrence_unlock_error4whatEv
         U __ZNK9__gnu_cxx26__concurrence_unlock_error4whatEv
         U __ZNK9__gnu_cxx26__concurrence_unlock_error4whatEv
         U __ZNKSt5ctypeIcE8do_widenEc
         U __ZNKSt5ctypeIcE8do_widenEPKcS2_Pc
         U __ZNKSt5ctypeIcE9do_narrowEcc
         U __ZNKSt5ctypeIcE9do_narrowEPKcS2_cPc
         U __ZNSs12_S_constructIPcEES0_T_S1_RKSaIcESt20forward_iterator_tag
         U __ZNSs12_S_constructIPcEES0_T_S1_RKSaIcESt20forward_iterator_tag
         U __ZNSs12_S_constructIPcEES0_T_S1_RKSaIcESt20forward_iterator_tag
         U __ZNSs12_S_constructIPcEES0_T_S1_RKSaIcESt20forward_iterator_tag
         U __ZNSs12_S_constructIPcEES0_T_S1_RKSaIcESt20forward_iterator_tag
         U __ZNSs12_S_constructIPcEES0_T_S1_RKSaIcESt20forward_iterator_tag
         U __ZNSs12_S_constructIPcEES0_T_S1_RKSaIcESt20forward_iterator_tag
         U __ZNSsC1IPcEET_S1_RKSaIcE
         U __ZNSsC1IPcEET_S1_RKSaIcE
         U __ZNSsC1IPcEET_S1_RKSaIcE
         U __ZNSsC1IPcEET_S1_RKSaIcE
         U __ZNSsC1IPcEET_S1_RKSaIcE
         U __ZNSsC1IPcEET_S1_RKSaIcE
         U __ZNSsC1IPcEET_S1_RKSaIcE
         U __ZNSt11range_errorD0Ev
         U __ZNSt11range_errorD1Ev
         U __ZNSt12domain_errorD0Ev
         U __ZNSt12domain_errorD1Ev
         U __ZNSt12length_errorD0Ev
         U __ZNSt12length_errorD1Ev
         U __ZNSt12out_of_rangeD0Ev
         U __ZNSt12out_of_rangeD1Ev
         U __ZNSt14overflow_errorD0Ev
         U __ZNSt14overflow_errorD1Ev
         U __ZNSt15underflow_errorD0Ev
         U __ZNSt15underflow_errorD1Ev
         U __ZNSt16invalid_argumentD0Ev
         U __ZNSt16invalid_argumentD1Ev
         U __ZNSt6vectorIPN7sc_core8sc_eventESaIS2_EE13_M_insert_auxEN9__gnu_cxx17__normal_iteratorIPS2_S4_EERKS2_
         U __ZNSt6vectorIPN7sc_core9sc_objectESaIS2_EE13_M_insert_auxEN9__gnu_cxx17__normal_iteratorIPS2_S4_EERKS2_
         U __ZNSt6vectorIPN7sc_core9sc_objectESaIS2_EE13_M_insert_auxEN9__gnu_cxx17__normal_iteratorIPS2_S4_EERKS2_
         U __ZSt16__convert_from_vRKPiPciPKcz
         U __ZStplIcSt11char_traitsIcESaIcEESbIT_T0_T1_ERKS6_S8_
         U __ZTv0_n16_NK7sc_core9sc_signalIbLNS_16sc_writer_policyE0EE13default_eventEv
         U __ZTv0_n16_NK7sc_core9sc_signalIbLNS_16sc_writer_policyE0EE13default_eventEv
         U __ZTv0_n20_N7sc_core15sc_signal_in_ifIbED0Ev
         U __ZTv0_n20_N7sc_core15sc_signal_in_ifIbED0Ev
         U __ZTv0_n20_N7sc_core15sc_signal_in_ifIbED1Ev
         U __ZTv0_n20_N7sc_core15sc_signal_in_ifIbED1Ev
         U __ZTv0_n20_N7sc_core18sc_signal_inout_ifIbED0Ev
         U __ZTv0_n20_N7sc_core18sc_signal_inout_ifIbED0Ev
         U __ZTv0_n20_N7sc_core18sc_signal_inout_ifIbED1Ev
         U __ZTv0_n20_N7sc_core18sc_signal_inout_ifIbED1Ev
         U __ZTv0_n20_N7sc_core18sc_signal_write_ifIbED0Ev
         U __ZTv0_n20_N7sc_core18sc_signal_write_ifIbED0Ev
         U __ZTv0_n20_N7sc_core18sc_signal_write_ifIbED1Ev
         U __ZTv0_n20_N7sc_core18sc_signal_write_ifIbED1Ev
         U __ZTv0_n24_N7sc_core9sc_signalIbLNS_16sc_writer_policyE0EE18mti_get_channel_idEPNS_9sc_objectE
         U __ZTv0_n24_N7sc_core9sc_signalIbLNS_16sc_writer_policyE0EE18mti_get_channel_idEPNS_9sc_objectE
         U __ZThn4_N7sc_core18sc_signal_inout_ifIbED0Ev
         U __ZThn4_N7sc_core18sc_signal_inout_ifIbED0Ev
         U __ZThn4_N7sc_core18sc_signal_inout_ifIbED1Ev
         U __ZThn4_N7sc_core18sc_signal_inout_ifIbED1Ev
         U __ZThn4_NK5sc_dt11sc_int_base13concat_lengthEPb
         U __ZThn4_NK5sc_dt11sc_int_base17concat_get_uint64Ev
         U __ZThn4_NK5sc_dt12sc_uint_base13concat_lengthEPb
         U __ZThn4_NK5sc_dt12sc_uint_base17concat_get_uint64Ev
         U __ZThn56_N7sc_core17sc_foreign_moduleD0Ev
         U __ZThn56_N7sc_core17sc_foreign_moduleD1Ev
         U __ZThn80_NK7sc_core9sc_signalIbLNS_16sc_writer_policyE0EE12get_data_refEv
         U __ZThn80_NK7sc_core9sc_signalIbLNS_16sc_writer_policyE0EE12get_data_refEv
         U __ZThn80_NK7sc_core9sc_signalIbLNS_16sc_writer_policyE0EE4readEv
         U __ZThn80_NK7sc_core9sc_signalIbLNS_16sc_writer_policyE0EE4readEv
         U __ZThn80_NK7sc_core9sc_signalIbLNS_16sc_writer_policyE0EE5eventEv
         U __ZThn80_NK7sc_core9sc_signalIbLNS_16sc_writer_policyE0EE5eventEv
         U __ZThn80_NK7sc_core9sc_signalIbLNS_16sc_writer_policyE0EE7negedgeEv
         U __ZThn80_NK7sc_core9sc_signalIbLNS_16sc_writer_policyE0EE7negedgeEv
         U __ZThn80_NK7sc_core9sc_signalIbLNS_16sc_writer_policyE0EE7posedgeEv
         U __ZThn80_NK7sc_core9sc_signalIbLNS_16sc_writer_policyE0EE7posedgeEv
         U __ZThn84_NK7sc_core9sc_signalIbLNS_16sc_writer_policyE0EE17get_writer_policyEv
         U __ZThn84_NK7sc_core9sc_signalIbLNS_16sc_writer_policyE0EE17get_writer_policyEv
00000000 A .weak.___deregister_frame_info.___gcc_register_frame
00000000 A .weak.___register_frame_info.___gcc_register_frame
00000000 A .weak.__Jv_RegisterClasses.___gcc_register_frame
00000000 A __dll__
00000000 A __loader_flags__
00000000 A __minor_image_version__
00000000 A __minor_os_version__
00000000 A __minor_subsystem_version__
00000001 A __major_image_version__
00000003 A __subsystem__
00000004 A __major_os_version__
00000004 A __major_subsystem_version__
00000200 A __file_alignment__
00001000 A __section_alignment__
00001000 A __size_of_heap_commit__
00001000 A __size_of_stack_commit__
00100000 A __size_of_heap_reserve__
00200000 A __size_of_stack_reserve__
60580000 A __image_base__
60581000 t .text
60581000 t ___dll_exit
60581000 T __end__
60581058 T _DllMainCRTStartup@12
60581138 T _atexit
60581160 T __onexit
60581190 t .text
60581190 T ___gcc_register_frame
605811fc T ___gcc_deregister_frame
60581220 t ___do_global_dtors
6058124c T ___main
605812c0 t .text
605812c0 t __ZSt17__verify_groupingPKcjRKSs
605813b8 t __Z41__static_initialization_and_destruction_0ii
60581400 t __GLOBAL__I_sc_main
6058141a t ___tcf_0
60581432 T _sc_main
60581a00 t .text
60581a00 t __Z41__static_initialization_and_destruction_0ii
60581a34 t __GLOBAL__I__ZN5sc_dt13sc_value_base17concat_clear_dataEb
60581a44 t ___tcf_0
60581a5c T __ZN5sc_dt13sc_value_base10concat_setEyi
60581aa0 T __ZN5sc_dt13sc_value_base10concat_setERKNS_11sc_unsignedEi
60581ae0 T __ZN5sc_dt13sc_value_base10concat_setERKNS_9sc_signedEi
60581b20 T __ZN5sc_dt13sc_value_base10concat_setExi
60581b60 T __ZNK5sc_dt13sc_value_base13concat_lengthEPb
60581ba0 T __ZNK5sc_dt13sc_value_base17concat_get_uint64Ev
60581be0 T __ZNK5sc_dt13sc_value_base15concat_get_dataEPji
60581c20 T __ZNK5sc_dt13sc_value_base15concat_get_ctrlEPji
60581c60 T __ZN5sc_dt13sc_value_base17concat_clear_dataEb
60581ca0 t .text
60581ca0 T __ZN5sc_dt20assert_sc_digit_sizeEv
60581ca8 t __Z41__static_initialization_and_destruction_0ii
60581cdc t __GLOBAL__I__ZN5sc_dt11UINT64_ZEROE
60581cec t ___tcf_0
60581d10 t .text
60581d10 T __ZNK5sc_dt15sc_int_subref_r15concat_get_ctrlEPji
60581dec T __ZNK5sc_dt15sc_int_subref_r15concat_get_dataEPji
60581fb8 T __ZN5sc_dt13sc_int_subrefaSEx
60582050 T __ZN5sc_dt11sc_int_baseaSERKNS_10sc_bv_baseE
60582170 T __ZNK5sc_dt11sc_int_base10and_reduceEv
60582188 T __ZNK5sc_dt11sc_int_base9or_reduceEv
6058219c T __ZNK5sc_dt11sc_int_base10xor_reduceEv
605822c8 T __ZThn4_NK5sc_dt11sc_int_base15concat_get_ctrlEPji
605822d0 T __ZNK5sc_dt11sc_int_base15concat_get_ctrlEPji
60582360 T __ZThn4_NK5sc_dt11sc_int_base15concat_get_dataEPji
60582368 T __ZNK5sc_dt11sc_int_base15concat_get_dataEPji
6058250c T __ZN5sc_dt11sc_int_base18mti_get_value_sizeEPiS1_S1_
6058252c T __ZN5sc_dt11sc_int_base13mti_set_valueEPv
605825cc t ___tcf_2
60582634 t ___tcf_1
6058269c t __Z41__static_initialization_and_destruction_0ii
605827fc t __GLOBAL__I__ZN5sc_dt29sc_int_concref_invalid_lengthEi
60582810 t ___tcf_0
60582828 T __ZN5sc_dt11sc_int_base18mti_get_value_typeEv
60582840 T __ZNK5sc_dt11sc_int_base11check_valueEv
605828dc T __ZNK5sc_dt11sc_int_base13invalid_rangeEii
60582928 T __ZNK5sc_dt11sc_int_base13invalid_indexEi
60582970 T __ZNK5sc_dt11sc_int_base14invalid_lengthEv
605829b4 T __ZN5sc_dt29sc_int_concref_invalid_lengthEi
605829f8 T __ZN5sc_dt11sc_int_baseaSERKNS_11sc_unsignedE
60582af4 T __ZN5sc_dt11sc_int_baseaSERKNS_9sc_signedE
60582c30 T __ZThn4_N5sc_dt11sc_int_base10concat_setExi
60582c38 T __ZN5sc_dt11sc_int_base10concat_setExi
60582c94 T __ZThn4_N5sc_dt11sc_int_base10concat_setEyi
60582c9c T __ZN5sc_dt11sc_int_base10concat_setEyi
60582cf0 T __ZNK5sc_dt11sc_int_base17mti_get_dpi_valueEPv
60582d8c T __ZN5sc_dt13sc_int_bitref4scanERSi
60582e2c T __ZN5sc_dt11sc_int_base17mti_set_dpi_valueEPv
60582ee4 T __ZN5sc_dt11sc_int_base13mti_get_valueEv
60582f84 T __ZN5sc_dt11sc_int_baseC1ERKNS_11sc_unsignedE
60583024 T __ZN5sc_dt11sc_int_baseC2ERKNS_11sc_unsignedE
605830c4 T __ZN5sc_dt11sc_int_baseC1ERKNS_9sc_signedE
60583164 T __ZN5sc_dt11sc_int_baseC2ERKNS_9sc_signedE
60583204 T __ZN5sc_dt11sc_int_baseC1ERKNS_20sc_unsigned_subref_rE
605832bc T __ZN5sc_dt11sc_int_baseC2ERKNS_20sc_unsigned_subref_rE
60583374 T __ZN5sc_dt11sc_int_baseC1ERKNS_18sc_signed_subref_rE
6058342c T __ZN5sc_dt11sc_int_baseC2ERKNS_18sc_signed_subref_rE
605834e4 T __ZN5sc_dt11sc_int_baseC1ERKNS_16sc_uint_subref_rE
6058362c T __ZN5sc_dt11sc_int_baseC1ERKNS_10sc_bv_baseE
605836a4 T __ZN5sc_dt11sc_int_baseC2ERKNS_10sc_bv_baseE
6058371c T __ZN5sc_dt11sc_int_baseaSERKNS_10sc_lv_baseE
605838cc T __ZN5sc_dt11sc_int_baseC1ERKNS_10sc_lv_baseE
60583948 T __ZN5sc_dt11sc_int_baseC2ERKNS_10sc_lv_baseE
605839c4 T __ZN5sc_dt11sc_int_baseC2ERKNS_16sc_uint_subref_rE
60583b0c T __ZNK5sc_dt11sc_int_base9to_stringENS_9sc_numrepEb
60583d10 T __ZNK5sc_dt11sc_int_base9to_stringENS_9sc_numrepE
60583f08 T __ZN5sc_dt11sc_int_baseaSEPKc
60584348 T __ZN5sc_dt11sc_int_base4scanERSi
60584424 T __ZThn4_N5sc_dt11sc_int_base10concat_setERKNS_11sc_unsignedEi
6058442c T __ZN5sc_dt11sc_int_base10concat_setERKNS_11sc_unsignedEi
605844fc T __ZThn4_N5sc_dt11sc_int_base10concat_setERKNS_9sc_signedEi
60584504 T __ZN5sc_dt11sc_int_base10concat_setERKNS_9sc_signedEi
60584600 T __ZN5sc_dt13sc_int_subref10concat_setEyi
605846d0 T __ZN5sc_dt13sc_int_subref10concat_setERKNS_11sc_unsignedEi
60584818 T __ZN5sc_dt13sc_int_subref10concat_setERKNS_9sc_signedEi
60584970 T __ZN5sc_dt13sc_int_subref10concat_setExi
60584a44 T __ZN5sc_dt13sc_int_subrefaSERKNS_10sc_lv_baseE
60584ad0 T __ZN5sc_dt13sc_int_subrefaSERKNS_10sc_bv_baseE
60584b58 T __ZN5sc_dt13sc_int_subrefaSERKNS_11sc_unsignedE
60584be4 T __ZN5sc_dt13sc_int_subrefaSERKNS_9sc_signedE
60584c70 T __ZN5sc_dt13sc_int_bitref10concat_setEyi
60584d38 T __ZN5sc_dt13sc_int_bitref10concat_setERKNS_11sc_unsignedEi
60584fbc T __ZN5sc_dt13sc_int_bitref10concat_setERKNS_9sc_signedEi
605852a8 T __ZN5sc_dt13sc_int_bitref10concat_setExi
60585370 T __ZN5sc_dt13sc_int_subref4scanERSi
605854e0 t .text
605854e0 T __ZN7sc_core16sc_process_tableC2Ev
60585504 T __ZN7sc_core16sc_process_tableC1Ev
60585528 T __ZN7sc_core13sc_simcontext8simulateERKNS_7sc_timeE
60585530 T __ZN7sc_core16sc_get_stop_modeEv
6058553c T __ZNK7sc_core13sc_simcontext28mti_is_creating_dynamic_procEv
6058554c T __ZN7sc_core13sc_simcontext24mti_set_exception_statusEb
60585560 T __ZN7sc_core13sc_simcontext23mti_is_exception_activeEv
60585570 T __ZN7sc_core13sc_simcontext11trace_cycleEb
605855ac T __ZN7sc_core13sc_simcontext17remove_trace_fileEPNS_13sc_trace_fileE
605855c0 t ___tcf_0
605855d8 T __ZN7sc_core13sc_simcontext25mti_create_thread_packageEv
60585628 T __ZN7sc_core13sc_simcontext23mark_to_collect_processEPNS_12sc_process_bE
6058563c T __ZN7sc_core13sc_simcontext16mti_get_oomr_objEPNS_15sc_prim_channelE
605856dc T __ZNK7sc_core13sc_simcontext19mti_is_valid_exportEPNS_14sc_export_baseE
605856f8 T __ZNK7sc_core13sc_simcontext17mti_is_valid_portEPNS_12sc_port_baseE
60585714 T __ZNK7sc_core13sc_simcontext25mti_is_valid_prim_channelEPNS_15sc_prim_channelE
60585730 T __ZNK7sc_core13sc_simcontext19mti_is_valid_moduleEPNS_9sc_moduleE
6058574c T __ZN7sc_core18sc_set_random_seedEj
60585774 T __ZNK7sc_core13sc_simcontext10is_runningEv
605857b8 T __ZNK7sc_core13sc_simcontext17get_child_objectsEv
605857f8 T __ZN7sc_core27sc_defunct_process_functionEPNS_9sc_moduleE
60585814 T __ZN7sc_core13sc_simcontext8next_corEv
6058588c T __ZN7sc_core13sc_simcontext11find_objectEPKc
605858dc T __ZNK7sc_core13sc_simcontext35mti_pending_activity_at_future_timeEv
60585920 T __ZNK7sc_core13sc_simcontext32pending_activity_at_current_timeEv
6058595c T __ZNK7sc_core13sc_simcontext11delta_countEv
6058599c T __ZNK7sc_core13sc_simcontext18mti_event_occurredEyy
60585a08 T __ZN7sc_core13sc_simcontext14add_trace_fileEPNS_13sc_trace_fileE
60585a2c T __ZN7sc_core13sc_simcontext15gen_unique_nameEPKcb
60585a48 T __ZN7sc_core13sc_simcontext11next_objectEv
60585a5c T __ZN7sc_core13sc_simcontext12first_objectEv
60585a70 T __ZNK7sc_core13sc_simcontext14hierarchy_currEv
60585a84 T __ZN7sc_core13sc_simcontext13active_objectEv
60585aac T __ZN7sc_core13sc_simcontext13hierarchy_popEv
60585ac0 T __ZN7sc_core13sc_simcontext14hierarchy_pushEPNS_9sc_moduleE
60585ad4 T __ZN7sc_core13sc_simcontext3endEv
60585b34 T __ZN7sc_core13sc_simcontext17do_sc_stop_actionEv
60585b6c T __ZN7sc_core13sc_simcontext4stopEv
60585c3c T __ZN7sc_core13sc_simcontext4initEv
60586048 T __ZN7sc_core13sc_simcontext12mti_sc_pauseEv
6058608c T __ZN7sc_core22sc_notify_time_compareEPKvS1_
605860d4 T __ZNK7sc_core13sc_simcontext9next_timeERNS_7sc_timeE
60586148 T __ZN7sc_core16sc_process_table6removeEPNS_17sc_method_processE
605861a4 T __ZN7sc_core16sc_process_table6removeEPNS_17sc_thread_processE
60586200 T __ZN7sc_core13sc_simcontext18remove_delta_eventEPNS_8sc_eventE
60586264 T __ZN7sc_core13sc_simcontext42mti_process_signal_hierarchical_referencesEv
605863c8 T __ZN7sc_core13sc_simcontext9elaborateEv
605865e4 T __ZN7sc_core13sc_simcontext10initializeEb
60586628 T __ZN7sc_core13sc_simcontext27create_method_debug_processEPKcbMNS_15sc_process_hostEFvvEPS3_PKNS_16sc_spawn_optionsE
60586714 T __ZN7sc_core13sc_simcontext22create_cthread_processEPKcbMNS_15sc_process_hostEFvvEPS3_PKNS_16sc_spawn_optionsE
605867ec T __ZN7sc_core13sc_simcontext15add_child_eventEPNS_8sc_eventE
60586820 T __ZN7sc_core13sc_simcontext18remove_child_eventEPNS_8sc_eventE
605868b4 T __ZN7sc_core13sc_simcontext16add_child_objectEPNS_9sc_objectE
605868e8 T __ZN7sc_core13sc_simcontext19remove_child_objectEPNS_9sc_objectE
6058698c T __ZN7sc_core23mti_return_child_eventsEPKNS_13sc_simcontextE
60586aa8 T __ZN7sc_core13sc_simcontext19prepare_to_simulateEv
60586e28 T __ZN7sc_core13sc_simcontext28mti_call_prepare_to_simulateEv
60586e34 t ___tcf_1
60586e54 T __ZN7sc_core13sc_simcontextC1Ev
60587050 T __ZN7sc_core13sc_simcontextC2Ev
6058724c T __ZN7sc_core28mti_return_top_level_objectsEPKNS_13sc_simcontextE
6058764c T __ZN7sc_core13sc_simcontext23suspend_current_processEv
605877ec T __ZN7sc_core16sc_process_tableD2Ev
60587880 T __ZN7sc_core16sc_process_tableD1Ev
60587914 T __ZN7sc_core13sc_simcontext5cleanEv
60587c78 T __ZN7sc_core13sc_simcontext5resetEv
60587c98 T __ZN7sc_core13sc_simcontextD1Ev
60587d64 T __ZN7sc_core13sc_simcontextD2Ev
60587e30 T __ZN7sc_corelsERSoNS_9sc_statusE
605881a4 T __ZN7sc_core13sc_simcontext21create_method_processEPKcbMNS_15sc_process_hostEFvvEPS3_PKNS_16sc_spawn_optionsE
605886fc T __ZN7sc_core13sc_simcontext21create_thread_processEPKcbMNS_15sc_process_hostEFvvEPS3_PKNS_16sc_spawn_optionsE
60588c6c T __ZN7sc_core21questa_init_simcontxtC1Ev
60588cc8 t __Z41__static_initialization_and_destruction_0ii
60588d30 t __GLOBAL__I__ZN7sc_core9stop_modeE
60588d40 T __ZN7sc_core21questa_init_simcontxtC2Ev
60588d9c T __ZNK7sc_core13sc_simcontext19curr_module_contextEi
60588e68 T __ZN7sc_core26sc_get_curr_process_handleEv
60588f10 T __ZN7sc_core29sc_get_current_process_handleEv
60588fe4 T __ZN7sc_core15sc_is_unwindingEv
6058905c T __ZN7sc_core18sc_gen_unique_nameEPKcb
60589170 T __ZN7sc_core13sc_simcontext26mti_observe_foreign_signalEPNS_15sc_prim_channelEPKci
6058949c T __ZN7sc_core13sc_simcontext26mti_control_foreign_signalEPNS_15sc_prim_channelEPKci
605897cc T __ZN7sc_core16sc_set_stop_modeENS_12sc_stop_modeE
6058986c T __ZN7sc_core18sc_simulation_timeEv
605899c0 T __ZN7sc_core13sc_time_stampEv
60589a90 T __ZN7sc_core27sc_time_to_pending_activityEPKNS_13sc_simcontextE
60589b74 T __ZN7sc_core11sc_max_timeEv
60589c2c T __ZN7sc_core14sc_find_objectEPKc
60589c90 T __ZN7sc_core13sc_find_eventEPKc
60589cf4 T __ZN7sc_core7sc_stopEv
60589d58 T __ZN7sc_core19mti_handle_sc_startE19mtiScStartModeEnum_PKNS_7sc_timeE
6058a064 T __ZN7sc_core8sc_startEv
6058a078 T __ZN7sc_core8sc_startERKNS_7sc_timeENS_20sc_starvation_policyE
6058a0c0 T __ZN7sc_core8sc_cycleERKNS_7sc_timeE
6058a124 T __ZN7sc_core13sc_initializeEv
6058a1ec T __ZN7sc_core8sc_startEd
6058a27c T __ZN7sc_core13sc_simcontext12preempt_withEPNS_17sc_method_processE
6058a750 t .text
6058a750 t __Z41__static_initialization_and_destruction_0ii
6058a7dc t __GLOBAL__I__ZN7sc_core22SC_ID_STRING_TOO_LONG_E
6058a7f0 t .text
6058a7f0 T __ZNK5sc_dt16sc_uint_subref_r15concat_get_ctrlEPji
6058a87c T __ZNK5sc_dt16sc_uint_subref_r15concat_get_dataEPji
6058aa44 T __ZN5sc_dt14sc_uint_subrefaSEy
6058ab04 T __ZN5sc_dt12sc_uint_baseaSERKNS_10sc_bv_baseE
6058ac24 T __ZNK5sc_dt12sc_uint_base10and_reduceEv
6058ac64 T __ZNK5sc_dt12sc_uint_base9or_reduceEv
6058ac78 T __ZNK5sc_dt12sc_uint_base10xor_reduceEv
6058ad94 T __ZThn4_NK5sc_dt12sc_uint_base15concat_get_ctrlEPji
6058ad9c T __ZNK5sc_dt12sc_uint_base15concat_get_ctrlEPji
6058ae38 T __ZThn4_NK5sc_dt12sc_uint_base15concat_get_dataEPji
6058ae40 T __ZNK5sc_dt12sc_uint_base15concat_get_dataEPji
6058aff4 T __ZN5sc_dt12sc_uint_base18mti_get_value_sizeEPiS1_S1_
6058b014 T __ZN5sc_dt12sc_uint_base13mti_set_valueEPv
6058b088 t ___tcf_2
6058b0f0 t ___tcf_1
6058b158 t __Z41__static_initialization_and_destruction_0ii
6058b2b8 t __GLOBAL__I__ZN5sc_dt30sc_uint_concref_invalid_lengthEi
6058b2cc t ___tcf_0
6058b2e4 T __ZN5sc_dt12sc_uint_base18mti_get_value_typeEv
6058b2fc T __ZNK5sc_dt12sc_uint_base11check_valueEv
6058b378 T __ZNK5sc_dt12sc_uint_base13invalid_rangeEii
6058b3c4 T __ZNK5sc_dt12sc_uint_base13invalid_indexEi
6058b40c T __ZNK5sc_dt12sc_uint_base14invalid_lengthEv
6058b450 T __ZN5sc_dt30sc_uint_concref_invalid_lengthEi
6058b494 T __ZN5sc_dt12sc_uint_baseaSERKNS_11sc_unsignedE
6058b590 T __ZN5sc_dt12sc_uint_baseaSERKNS_9sc_signedE
6058b6c8 T __ZThn4_N5sc_dt12sc_uint_base10concat_setEyi
6058b6d0 T __ZN5sc_dt12sc_uint_base10concat_setEyi
6058b740 T __ZThn4_N5sc_dt12sc_uint_base10concat_setExi
6058b748 T __ZN5sc_dt12sc_uint_base10concat_setExi
6058b7c0 T __ZN5sc_dt14sc_uint_bitref4scanERSi
6058b83c T __ZN5sc_dt12sc_uint_base13mti_get_valueEv
6058b8dc T __ZN5sc_dt12sc_uint_base17mti_set_dpi_valueEPv
6058b968 T __ZNK5sc_dt12sc_uint_base17mti_get_dpi_valueEPv
6058ba04 T __ZN5sc_dt12sc_uint_baseC1ERKNS_20sc_unsigned_subref_rE
6058baf0 T __ZN5sc_dt12sc_uint_baseC2ERKNS_20sc_unsigned_subref_rE
6058bbdc T __ZN5sc_dt12sc_uint_baseC1ERKNS_18sc_signed_subref_rE
6058bcc8 T __ZN5sc_dt12sc_uint_baseC2ERKNS_18sc_signed_subref_rE
6058bdb4 T __ZN5sc_dt12sc_uint_baseC1ERKNS_15sc_int_subref_rE
6058bebc T __ZN5sc_dt12sc_uint_baseC2ERKNS_15sc_int_subref_rE
6058bfc4 T __ZN5sc_dt12sc_uint_baseC1ERKNS_10sc_bv_baseE
6058c03c T __ZN5sc_dt12sc_uint_baseC2ERKNS_10sc_bv_baseE
6058c0b4 T __ZN5sc_dt12sc_uint_baseaSERKNS_10sc_lv_baseE
6058c260 T __ZN5sc_dt12sc_uint_baseC1ERKNS_10sc_lv_baseE
6058c2dc T __ZN5sc_dt12sc_uint_baseC2ERKNS_10sc_lv_baseE
6058c358 T __ZN5sc_dt12sc_uint_baseC1ERKNS_11sc_unsignedE
6058c42c T __ZN5sc_dt12sc_uint_baseC2ERKNS_11sc_unsignedE
6058c500 T __ZN5sc_dt12sc_uint_baseC1ERKNS_9sc_signedE
6058c5d0 T __ZN5sc_dt12sc_uint_baseC2ERKNS_9sc_signedE
6058c6a0 T __ZNK5sc_dt12sc_uint_base9to_stringENS_9sc_numrepEb
6058c8a4 T __ZNK5sc_dt12sc_uint_base9to_stringENS_9sc_numrepE
6058ca9c T __ZN5sc_dt12sc_uint_baseaSEPKc
6058cedc T __ZN5sc_dt12sc_uint_base4scanERSi
6058cfb8 T __ZThn4_N5sc_dt12sc_uint_base10concat_setERKNS_11sc_unsignedEi
6058cfc0 T __ZN5sc_dt12sc_uint_base10concat_setERKNS_11sc_unsignedEi
6058d090 T __ZThn4_N5sc_dt12sc_uint_base10concat_setERKNS_9sc_signedEi
6058d098 T __ZN5sc_dt12sc_uint_base10concat_setERKNS_9sc_signedEi
6058d1a8 T __ZN5sc_dt14sc_uint_subrefaSERKNS_9sc_signedE
6058d288 T __ZN5sc_dt14sc_uint_bitref10concat_setEyi
6058d344 T __ZN5sc_dt14sc_uint_bitref10concat_setERKNS_11sc_unsignedEi
6058d5d4 T __ZN5sc_dt14sc_uint_bitref10concat_setERKNS_9sc_signedEi
6058d8c4 T __ZN5sc_dt14sc_uint_bitref10concat_setExi
6058d998 T __ZN5sc_dt14sc_uint_subref10concat_setEyi
6058daac T __ZN5sc_dt14sc_uint_subref4scanERSi
6058dc68 T __ZN5sc_dt14sc_uint_subref10concat_setERKNS_11sc_unsignedEi
6058de1c T __ZN5sc_dt14sc_uint_subref10concat_setERKNS_9sc_signedEi
6058e018 T __ZN5sc_dt14sc_uint_subref10concat_setExi
6058e130 T __ZN5sc_dt14sc_uint_subrefaSERKNS_10sc_lv_baseE
6058e210 T __ZN5sc_dt14sc_uint_subrefaSERKNS_10sc_bv_baseE
6058e2bc T __ZN5sc_dt14sc_uint_subrefaSERKNS_11sc_unsignedE
6058e3a0 t .text
6058e3a0 T __ZN7sc_core15sc_prim_channel6updateEv
6058e3a8 T __ZN7sc_core15sc_prim_channel25before_end_of_elaborationEv
6058e3b0 T __ZN7sc_core15sc_prim_channel18end_of_elaborationEv
6058e3b8 T __ZN7sc_core15sc_prim_channel19start_of_simulationEv
6058e3c0 T __ZN7sc_core15sc_prim_channel17end_of_simulationEv
6058e3c8 T __ZNK7sc_core24sc_prim_channel_registry21pending_async_updatesEv
6058e3e4 T __ZN7sc_core15sc_prim_channel21mti_get_channel_valueEi
6058e3ec T __ZN7sc_core15sc_prim_channel21mti_set_channel_valueEPvi
6058e3f4 t __Z41__static_initialization_and_destruction_0ii
6058e434 t __GLOBAL__I__ZN7sc_core28mti_is_creating_dummy_signalE
6058e444 t ___tcf_0
6058e45c T __ZN7sc_core15sc_prim_channel21mti_prim_channel_initEv
6058e5a0 T __ZN7sc_core15sc_prim_channel27mti_record_parent_region_idEv
6058e5c0 T __ZN7sc_core24sc_prim_channel_registry6removeERNS_15sc_prim_channelE
6058e600 T __ZNK7sc_core24sc_prim_channel_registry25mti_is_valid_prim_channelEPNS_15sc_prim_channelE
6058e64c T __ZN7sc_core24sc_prim_channel_registry18mti_create_signalsEv
6058e6c0 T __ZN7sc_core24sc_prim_channel_registry14perform_updateEv
6058e7d8 T __ZN7sc_core24sc_prim_channel_registry20async_request_updateERNS_15sc_prim_channelE
6058e844 T __ZN7sc_core15sc_prim_channel17construction_doneEv
6058e8f8 T __ZN7sc_core24sc_prim_channel_registry17construction_doneEv
6058e948 T __ZN7sc_core24sc_prim_channel_registry6insertERNS_15sc_prim_channelE
6058ea9c T __ZN7sc_core15sc_prim_channelC1EPKc
6058eb0c T __ZN7sc_core15sc_prim_channelC2EPKc
6058eb7c T __ZN7sc_core15sc_prim_channelC1Ev
6058ebec T __ZN7sc_core15sc_prim_channelC2Ev
6058ec5c T __ZN7sc_core24sc_prim_channel_registryC1ERNS_13sc_simcontextE
6058ed34 T __ZN7sc_core24sc_prim_channel_registryC2ERNS_13sc_simcontextE
6058ee0c T __ZN7sc_core15sc_prim_channel15simulation_doneEv
6058eec0 T __ZN7sc_core24sc_prim_channel_registry15simulation_doneEv
6058eefc T __ZN7sc_core15sc_prim_channel16start_simulationEv
6058efa8 T __ZN7sc_core24sc_prim_channel_registry16start_simulationEv
6058efe4 T __ZN7sc_core15sc_prim_channel16elaboration_doneEv
6058f098 T __ZN7sc_core24sc_prim_channel_registry16elaboration_doneEv
6058f0d4 T __ZN7sc_core15sc_prim_channelD0Ev
6058f4c0 T __ZN7sc_core15sc_prim_channelD1Ev
6058f8a4 T __ZN7sc_core15sc_prim_channelD2Ev
6058fc88 T __ZN7sc_core24sc_prim_channel_registryD2Ev
6058fd40 T __ZN7sc_core24sc_prim_channel_registryD1Ev
6058fe00 t .text
6058fe00 T __ZN7sc_core5sc_inIN5sc_dt8sc_logicEE5vbindERNS_12sc_port_baseE
6058fe68 T __ZN7sc_core5sc_inIbE5vbindERNS_12sc_port_baseE
6058fed0 T __ZN7sc_core23sc_deprecated_add_traceEv
6058ff10 t __Z41__static_initialization_and_destruction_0ii
6058ff50 t __GLOBAL__I__ZN7sc_core5sc_inIbE18end_of_elaborationEv
6058ff60 t ___tcf_0
6058ff78 T __ZN7sc_core8sc_inoutIbE10initializeERKb
6058fff0 T __ZNK7sc_core8sc_inoutIN5sc_dt8sc_logicEE18add_trace_internalEPNS_13sc_trace_fileERKSs
6059007c T __ZNK7sc_core8sc_inoutIN5sc_dt8sc_logicEE9add_traceEPNS_13sc_trace_fileERKSs
605900a8 T __ZNK7sc_core8sc_inoutIbE18add_trace_internalEPNS_13sc_trace_fileERKSs
60590134 T __ZNK7sc_core8sc_inoutIbE9add_traceEPNS_13sc_trace_fileERKSs
60590160 T __ZNK7sc_core5sc_inIN5sc_dt8sc_logicEE18add_trace_internalEPNS_13sc_trace_fileERKSs
605901ec T __ZNK7sc_core5sc_inIN5sc_dt8sc_logicEE9add_traceEPNS_13sc_trace_fileERKSs
60590218 T __ZNK7sc_core5sc_inIbE18add_trace_internalEPNS_13sc_trace_fileERKSs
605902a4 T __ZNK7sc_core5sc_inIbE9add_traceEPNS_13sc_trace_fileERKSs
605902d0 T __ZN7sc_core8sc_inoutIN5sc_dt8sc_logicEE10initializeERKS2_
6059035c T __ZN7sc_core5sc_inIbE5vbindERNS_12sc_interfaceE
605903a4 T __ZN7sc_core5sc_inIN5sc_dt8sc_logicEE5vbindERNS_12sc_interfaceE
605903ec T __ZNK7sc_core5sc_inIN5sc_dt8sc_logicEE13remove_tracesEv
605904b0 T __ZN7sc_core5sc_inIN5sc_dt8sc_logicEE18end_of_elaborationEv
6059053c T __ZNK7sc_core5sc_inIbE13remove_tracesEv
60590600 T __ZN7sc_core5sc_inIbE18end_of_elaborationEv
60590694 T __ZNK7sc_core8sc_inoutIN5sc_dt8sc_logicEE13remove_tracesEv
60590758 T __ZN7sc_core8sc_inoutIN5sc_dt8sc_logicEE18end_of_elaborationEv
6059083c T __ZNK7sc_core8sc_inoutIbE13remove_tracesEv
60590900 T __ZN7sc_core8sc_inoutIbE18end_of_elaborationEv
605909f0 t .text
605909f0 T __ZN7sc_core12sc_process_b15dont_initializeEb
60590a00 t ___tcf_1
60590a20 t ___tcf_3
60590a38 t ___tcf_0
60590a50 T __ZN7sc_core17sc_process_handlecvPNS_17sc_thread_processEEv
60590a78 T __ZN7sc_core17sc_process_handlecvPNS_17sc_method_processEEv
60590aa0 T __ZN7sc_core17sc_process_handlecvPNS_18sc_cthread_processEEv
60590ac8 T __ZN7sc_core12sc_process_b19trigger_reset_eventEv
60590ae8 T __ZNK7sc_core12sc_process_b34report_immediate_self_notificationEv
60590b2c T __ZN7sc_core12sc_process_b20remove_static_eventsEv
60590bfc T __ZN7sc_core12sc_process_b15gen_unique_nameEPKcb
60590c70 T __ZN7sc_core12sc_process_b16add_static_eventERKNS_8sc_eventE
60590d20 T __ZN7sc_core12sc_process_bC2EPKcbbMNS_15sc_process_hostEFvvEPS3_PKNS_16sc_spawn_optionsE
60590ee0 t __Z41__static_initialization_and_destruction_0ii
60590f90 t __GLOBAL__I__ZN7sc_core17sc_process_handle18empty_event_vectorE
60590fa4 T __ZN7sc_core12sc_process_b21remove_dynamic_eventsEb
605910c8 t ___tcf_2
605910e8 T __ZN7sc_core12sc_process_b14delete_processEv
60591254 T __ZN7sc_core12sc_process_b18disconnect_processEv
60591384 T __ZNK7sc_core12sc_process_b10dump_stateEv
605914cc T __ZN7sc_core12sc_process_b21mti_create_process_idEPNS_15sc_process_hostE
6059197c T __ZN7sc_core12sc_process_b16terminated_eventEv
60591bc4 T __ZN7sc_core12sc_process_b11reset_eventEv
60591e0c T __ZN7sc_core12sc_process_bD0Ev
60591f78 T __ZN7sc_core12sc_process_bD1Ev
605920d8 T __ZN7sc_core12sc_process_bD2Ev
60592238 T __ZN7sc_core12sc_process_bC1EPKcbbMNS_15sc_process_hostEFvvEPS3_PKNS_16sc_spawn_optionsE
605923f8 T __ZNK7sc_core12sc_process_b12report_errorEPKcS2_
60592cc0 T __ZN7sc_core12sc_process_b13reset_changedEbb
60592e4c T __ZN7sc_core12sc_process_b13reset_processENS0_10reset_typeENS_28sc_descendant_inclusion_infoE
60593070 t .text
60593070 T __ZN7sc_core7sc_timeC2EdNS_12sc_time_unitEPNS_13sc_simcontextE
605930e4 T __ZN7sc_core7sc_timeC1EdNS_12sc_time_unitEPNS_13sc_simcontextE
60593158 T __ZN7sc_core14sc_time_paramsC2Ev
6059318c T __ZN7sc_core14sc_time_paramsC1Ev
605931c0 T __ZN7sc_core14sc_time_paramsD2Ev
605931c8 T __ZN7sc_core14sc_time_paramsD1Ev
605931d0 t __Z41__static_initialization_and_destruction_0ii
60593224 t __GLOBAL__I__ZN7sc_core11time_valuesE
60593234 t ___tcf_0
6059324c t __ZN7sc_core28report_time_res_and_unit_msgEiiPKcS1_
605932c4 T __ZN7sc_core7sc_timeC2Eyb
60593410 T __ZN7sc_core7sc_timeC1Edb
60593524 T __ZN7sc_core7sc_timeC2Edb
60593638 T __ZN7sc_core7sc_timeC1EdNS_12sc_time_unitE
605936f8 T __ZN7sc_core7sc_timeC2EdNS_12sc_time_unitE
605937b8 T __ZNK7sc_core7sc_time9to_stringEv
60593aec T __ZNK7sc_core7sc_time5printERSo
60593bbc T __ZNK7sc_core7sc_time10to_secondsEv
60593c40 T __ZNK7sc_core7sc_time21to_default_time_unitsEv
60593cd4 T __ZN7sc_core7sc_time10from_valueEy
60593d64 T __ZN7sc_core24sc_get_default_time_unitEv
60593e10 T __ZN7sc_core22sc_get_time_resolutionEv
60593e38 T __ZN7sc_core7sc_timeC1Eyb
60593f84 T __ZN7sc_core40sc_get_requested_time_resolution_or_unitEdNS_12sc_time_unitE
6059477c T __ZN7sc_core14sc_time_params19set_time_resolutionEdNS_12sc_time_unitEii
60594cf8 T __ZN7sc_core22sc_set_time_resolutionEdNS_12sc_time_unitE
60594df4 t __ZN7sc_core40modified_msg_for_default_time_unit_errorEdNS_12sc_time_unitEPKc
605950c4 T __ZN7sc_core14sc_time_params21set_default_time_unitEdNS_12sc_time_unitEi
6059586c T __ZN7sc_core24sc_set_default_time_unitEdNS_12sc_time_unitE
60595a70 t .text
60595a70 T __ZN7sc_core8sc_event22mti_set_is_clock_eventEPNS_8sc_clockENS0_17mtiClockEdgeTypeTE
60595a84 T __ZN7sc_core14sc_event_timed10deallocateEPv
60595aa0 T __ZN7sc_core8sc_event5resetEv
60595acc T __ZNK7sc_core8sc_event14remove_dynamicEPNS_17sc_method_processE
60595aec T __ZNK7sc_core8sc_event13remove_staticEPNS_17sc_method_processE
60595b0c T __ZNK7sc_core8sc_event14remove_dynamicEPNS_17sc_thread_processE
60595b2c T __ZNK7sc_core8sc_event13remove_staticEPNS_17sc_thread_processE
60595b4c t __Z41__static_initialization_and_destruction_0ii
60595b8c t __GLOBAL__I__ZNK7sc_core8sc_event8basenameEv
60595b9c t ___tcf_0
60595bb4 T __ZN7sc_core8sc_event29mti_set_is_prim_channel_eventEb
60595bd4 t __ZN7sc_core14sc_warn_notifyEv
60595c14 T __ZNK7sc_core13sc_event_list27report_invalid_modificationEv
60595c3c t __ZN7sc_core22sc_warn_notify_delayedEv
60595c7c T __ZNK7sc_core13sc_event_list28report_premature_destructionEv
60595cd8 T __ZN7sc_core14sc_event_timed8allocateEv
60595d38 T __ZN7sc_core13sc_event_list9push_backERKNS_8sc_eventE
60595d88 T __ZNK7sc_core8sc_event26mti_resume_clock_edge_evalEv
60595da4 T __ZN7sc_core8sc_event12triggerClockEv
60595ddc T __ZN7sc_core8sc_event6cancelEv
60595e30 T __ZNK7sc_core13sc_event_list14remove_dynamicEPNS_17sc_thread_processEPKNS_8sc_eventE
60595e70 T __ZNK7sc_core13sc_event_list14remove_dynamicEPNS_17sc_method_processEPKNS_8sc_eventE
60595eb0 T __ZNK7sc_core13sc_event_list11add_dynamicEPNS_17sc_thread_processE
60595f08 T __ZNK7sc_core13sc_event_list11add_dynamicEPNS_17sc_method_processE
60595f60 T __ZN7sc_core13sc_event_list9push_backERKS0_
60595fdc T __ZNK7sc_core8sc_event8basenameEv
6059600c T __ZN7sc_core8sc_eventD1Ev
60596168 T __ZN7sc_core8sc_eventD2Ev
605962c4 T __ZN7sc_core8sc_event14register_eventEPKc
60596458 T __ZN7sc_core8sc_event37mti_print_object_non_creation_warningEv
605965a0 T __ZN7sc_core8sc_eventC2EPKc
6059675c T __ZN7sc_core8sc_event7triggerEi
60596a30 T __ZN7sc_core8sc_event14notify_delayedERKNS_7sc_timeE
60596b00 T __ZN7sc_core8sc_event14notify_delayedEdNS_12sc_time_unitE
60596c20 T __ZN7sc_core8sc_event14notify_delayedEv
60596c9c T __ZN7sc_core8sc_event6notifyERKNS_7sc_timeE
60596d54 T __ZN7sc_core6notifyERKNS_7sc_timeERNS_8sc_eventE
60596d74 T __ZN7sc_core8sc_event6notifyEv
60596dc0 T __ZN7sc_core6notifyERNS_8sc_eventE
60596dd8 T __ZN7sc_core6notifyEdNS_12sc_time_unitERNS_8sc_eventE
60596ee4 T __ZN7sc_core8sc_eventC1Ev
605970a0 T __ZN7sc_core8sc_eventC2Ev
6059725c T __ZN7sc_core8sc_eventC1EPKc
60597420 t .text
60597420 t __Z41__static_initialization_and_destruction_0ii
60597460 t __GLOBAL__I__ZN7sc_core17warn_cthread_waitEv
60597470 t ___tcf_0
60597488 T __ZN7sc_core17warn_cthread_waitEv
605974c4 T __ZN7sc_core15sc_set_locationEPKciPNS_13sc_simcontextE
605974dc T __ZN7sc_core9timed_outEPNS_13sc_simcontextE
60597524 T __ZN7sc_core12next_triggerERKNS_17sc_event_and_listEPNS_13sc_simcontextE
60597598 T __ZN7sc_core12next_triggerERKNS_16sc_event_or_listEPNS_13sc_simcontextE
60597604 T __ZN7sc_core12next_triggerEPNS_13sc_simcontextE
6059764c T __ZN7sc_core12next_triggerERKNS_8sc_eventEPNS_13sc_simcontextE
605976d0 T __ZN7sc_core12next_triggerERKNS_7sc_timeERKNS_16sc_event_or_listEPNS_13sc_simcontextE
605977fc T __ZN7sc_core12next_triggerERKNS_7sc_timeERKNS_8sc_eventEPNS_13sc_simcontextE
60597944 T __ZN7sc_core12next_triggerERKNS_7sc_timeEPNS_13sc_simcontextE
60597a54 T __ZN7sc_core12next_triggerERKNS_7sc_timeERKNS_17sc_event_and_listEPNS_13sc_simcontextE
60597b84 T __ZN7sc_core4waitERKNS_8sc_eventEPNS_13sc_simcontextE
605980e0 T __ZN7sc_core4waitERKNS_7sc_timeERKNS_8sc_eventEPNS_13sc_simcontextE
605987c0 T __ZN7sc_core4waitERKNS_7sc_timeEPNS_13sc_simcontextE
60598ef4 T __ZN7sc_core4waitERKNS_17sc_event_and_listEPNS_13sc_simcontextE
6059942c T __ZN7sc_core4waitERKNS_16sc_event_or_listEPNS_13sc_simcontextE
6059997c T __ZN7sc_core4waitERKNS_7sc_timeERKNS_17sc_event_and_listEPNS_13sc_simcontextE
6059a02c T __ZN7sc_core4waitERKNS_7sc_timeERKNS_16sc_event_or_listEPNS_13sc_simcontextE
6059a6d0 T __ZN7sc_core4waitEPNS_13sc_simcontextE
6059aa50 t .text
6059aa50 t __Z41__static_initialization_and_destruction_0ii
6059aa90 t __GLOBAL__I__ZN7sc_core24sc_signal_invalid_writerEPNS_9sc_objectES1_S1_b
6059aaa0 t ___tcf_0
6059aab8 T __ZN7sc_core19sc_deprecated_traceEv
6059aaf4 T __ZN7sc_core27sc_deprecated_get_new_valueEv
6059ab30 T __ZN7sc_core26sc_deprecated_get_data_refEv
6059ab6c T __ZN7sc_core20sc_lazy_kernel_eventEPPNS_8sc_eventEPKc
6059aca8 T __ZN7sc_core24sc_signal_invalid_writerEPNS_9sc_objectES1_S1_b
6059b66c T __ZN7sc_core27sc_writer_policy_check_port10check_portEPNS_9sc_objectEPNS_12sc_port_baseEb
6059b710 t .text
6059b710 T __ZN7sc_core12sc_sensitiveC2EPNS_9sc_moduleE
6059b72c T __ZN7sc_core12sc_sensitiveC1EPNS_9sc_moduleE
6059b748 T __ZN7sc_core12sc_sensitiveD2Ev
6059b750 T __ZN7sc_core12sc_sensitiveD1Ev
6059b758 T __ZN7sc_core12sc_sensitive5resetEv
6059b768 T __ZN7sc_core16sc_sensitive_posC2EPNS_9sc_moduleE
6059b784 T __ZN7sc_core16sc_sensitive_posC1EPNS_9sc_moduleE
6059b7a0 T __ZN7sc_core16sc_sensitive_posD2Ev
6059b7a8 T __ZN7sc_core16sc_sensitive_posD1Ev
6059b7b0 T __ZN7sc_core16sc_sensitive_poslsEPNS_17sc_method_processE
6059b7c8 T __ZN7sc_core16sc_sensitive_poslsEPNS_17sc_thread_processE
6059b7e0 T __ZN7sc_core16sc_sensitive_pos5resetEv
6059b7f0 T __ZN7sc_core16sc_sensitive_negC2EPNS_9sc_moduleE
6059b80c T __ZN7sc_core16sc_sensitive_negC1EPNS_9sc_moduleE
6059b828 T __ZN7sc_core16sc_sensitive_negD2Ev
6059b830 T __ZN7sc_core16sc_sensitive_negD1Ev
6059b838 T __ZN7sc_core16sc_sensitive_neglsEPNS_17sc_method_processE
6059b850 T __ZN7sc_core16sc_sensitive_neglsEPNS_17sc_thread_processE
6059b868 T __ZN7sc_core16sc_sensitive_neg5resetEv
6059b878 t __Z41__static_initialization_and_destruction_0ii
6059b8b8 t __GLOBAL__I__ZN7sc_core12sc_sensitiveC2EPNS_9sc_moduleE
6059b8c8 t ___tcf_0
6059b8e0 t __ZN7sc_core27sc_deprecated_sensitive_negEv
6059b920 t __ZN7sc_core27sc_deprecated_sensitive_posEv
6059b960 t __ZN7sc_core14warn_no_parensEv
6059b99c t __ZN7sc_core16as_thread_handleEPNS_12sc_process_bE
6059b9c0 t __ZN7sc_core16as_method_handleEPNS_12sc_process_bE
6059b9e4 T __ZN7sc_core12sc_sensitive23make_static_sensitivityEPNS_12sc_process_bERKNS_12sc_port_baseE
6059ba34 T __ZN7sc_core12sc_sensitiveclEPNS_18sc_cthread_processERKNS_15sc_signal_in_ifIN5sc_dt8sc_logicEEE
6059ba54 T __ZN7sc_core12sc_sensitiveclEPNS_18sc_cthread_processERKNS_15sc_signal_in_ifIbEE
6059ba74 T __ZN7sc_core12sc_sensitive23make_static_sensitivityEPNS_12sc_process_bERKNS_12sc_interfaceE
6059ba9c T __ZN7sc_core12sc_sensitive23make_static_sensitivityEPNS_12sc_process_bERKNS_8sc_eventE
6059baa8 T __ZN7sc_core12sc_sensitiveclEPNS_18sc_cthread_processERNS_15sc_event_finderE
6059bac4 T __ZN7sc_core12sc_sensitivelsENS_17sc_process_handleE
6059bb20 T __ZN7sc_core16sc_sensitive_neglsENS_17sc_process_handleE
6059bb80 T __ZN7sc_core16sc_sensitive_poslsENS_17sc_process_handleE
6059bbe0 T __ZN7sc_core12sc_sensitiveclEPNS_18sc_cthread_processERKNS_8sc_inoutIN5sc_dt8sc_logicEEE
6059bc58 T __ZN7sc_core12sc_sensitiveclEPNS_18sc_cthread_processERKNS_8sc_inoutIbEE
6059bcd0 T __ZN7sc_core12sc_sensitiveclEPNS_18sc_cthread_processERKNS_5sc_inIN5sc_dt8sc_logicEEE
6059bd48 T __ZN7sc_core12sc_sensitiveclEPNS_18sc_cthread_processERKNS_5sc_inIbEE
6059bdc0 T __ZN7sc_core16sc_sensitive_poslsERKNS_5sc_inIbEE
6059bf4c T __ZN7sc_core16sc_sensitive_posclERKNS_5sc_inIbEE
6059bf6c T __ZN7sc_core12sc_sensitivelsERKNS_8sc_eventE
6059c00c T __ZN7sc_core12sc_sensitiveclERKNS_8sc_eventE
6059c02c T __ZN7sc_core16sc_sensitive_neglsERKNS_8sc_inoutIN5sc_dt8sc_logicEEE
6059c1b8 T __ZN7sc_core16sc_sensitive_negclERKNS_8sc_inoutIN5sc_dt8sc_logicEEE
6059c1d8 T __ZN7sc_core16sc_sensitive_neglsERKNS_8sc_inoutIbEE
6059c364 T __ZN7sc_core16sc_sensitive_negclERKNS_8sc_inoutIbEE
6059c384 T __ZN7sc_core12sc_sensitivelsERKNS_12sc_port_baseE
6059c478 T __ZN7sc_core12sc_sensitiveclERKNS_12sc_port_baseE
6059c498 T __ZN7sc_core12sc_sensitivelsERKNS_12sc_interfaceE
6059c548 T __ZN7sc_core12sc_sensitiveclERKNS_12sc_interfaceE
6059c568 T __ZN7sc_core16sc_sensitive_poslsERKNS_15sc_signal_in_ifIN5sc_dt8sc_logicEEE
6059c620 T __ZN7sc_core16sc_sensitive_posclERKNS_15sc_signal_in_ifIN5sc_dt8sc_logicEEE
6059c640 T __ZN7sc_core16sc_sensitive_poslsERKNS_15sc_signal_in_ifIbEE
6059c6f8 T __ZN7sc_core16sc_sensitive_posclERKNS_15sc_signal_in_ifIbEE
6059c718 T __ZN7sc_core12sc_sensitive23make_static_sensitivityEPNS_12sc_process_bERNS_15sc_event_finderE
6059c7ec T __ZN7sc_core12sc_sensitivelsERNS_15sc_event_finderE
6059c8e4 T __ZN7sc_core12sc_sensitiveclERNS_15sc_event_finderE
6059c904 T __ZN7sc_core16sc_sensitive_neglsERKNS_5sc_inIN5sc_dt8sc_logicEEE
6059ca90 T __ZN7sc_core16sc_sensitive_negclERKNS_5sc_inIN5sc_dt8sc_logicEEE
6059cab0 T __ZN7sc_core16sc_sensitive_neglsERKNS_5sc_inIbEE
6059cc3c T __ZN7sc_core16sc_sensitive_negclERKNS_5sc_inIbEE
6059cc5c T __ZN7sc_core16sc_sensitive_neglsERKNS_15sc_signal_in_ifIN5sc_dt8sc_logicEEE
6059cd14 T __ZN7sc_core16sc_sensitive_negclERKNS_15sc_signal_in_ifIN5sc_dt8sc_logicEEE
6059cd34 T __ZN7sc_core16sc_sensitive_neglsERKNS_15sc_signal_in_ifIbEE
6059cdec T __ZN7sc_core16sc_sensitive_negclERKNS_15sc_signal_in_ifIbEE
6059ce0c T __ZN7sc_core16sc_sensitive_poslsERKNS_8sc_inoutIN5sc_dt8sc_logicEEE
6059cf98 T __ZN7sc_core16sc_sensitive_posclERKNS_8sc_inoutIN5sc_dt8sc_logicEEE
6059cfb8 T __ZN7sc_core16sc_sensitive_poslsERKNS_8sc_inoutIbEE
6059d144 T __ZN7sc_core16sc_sensitive_posclERKNS_8sc_inoutIbEE
6059d164 T __ZN7sc_core16sc_sensitive_poslsERKNS_5sc_inIN5sc_dt8sc_logicEEE
6059d2f0 T __ZN7sc_core16sc_sensitive_posclERKNS_5sc_inIN5sc_dt8sc_logicEEE
6059d310 t .text
6059d310 t __Z41__static_initialization_and_destruction_0ii
6059d350 t __GLOBAL__I__ZN7sc_core17sc_foreign_moduleC2ERKNS_14sc_module_nameEPKciPS5_
6059d360 t ___tcf_0
6059d378 T __ZN7sc_core17sc_foreign_module20clear_parameter_listEv
6059d3c8 T __ZN7sc_core17sc_foreign_module24elaborate_foreign_moduleEPKciPS2_
6059d540 T __ZN7sc_core17sc_foreign_module13add_parameterEPKc
6059d57c T __ZN7sc_core17sc_foreign_moduleC1ERKNS_14sc_module_nameEiPPKc
6059d5f4 T __ZN7sc_core17sc_foreign_moduleC2ERKNS_14sc_module_nameEiPPKc
6059d66c T __ZN7sc_core17sc_foreign_moduleC1ERKNS_14sc_module_nameEPKciPS5_
6059d6e8 T __ZN7sc_core17sc_foreign_moduleC2ERKNS_14sc_module_nameEPKciPS5_
6059d764 T __ZN7sc_core17sc_foreign_module13add_parameterEPKci
6059d880 t .text
6059d880 T __ZN7sc_core13sc_bind_proxyC2Ev
6059d898 T __ZN7sc_core13sc_bind_proxyC1Ev
6059d8b0 T __ZN7sc_core13sc_bind_proxyC2ERNS_12sc_interfaceE
6059d8c4 T __ZN7sc_core13sc_bind_proxyC1ERNS_12sc_interfaceE
6059d8d8 T __ZN7sc_core13sc_bind_proxyC2ERNS_12sc_port_baseE
6059d8ec T __ZN7sc_core13sc_bind_proxyC1ERNS_12sc_port_baseE
6059d900 T __ZNK7sc_core9sc_module17get_child_objectsEv
6059d90c T __ZN7sc_core9sc_module25before_end_of_elaborationEv
6059d914 T __ZN7sc_core9sc_module18end_of_elaborationEv
6059d91c T __ZN7sc_core9sc_module19start_of_simulationEv
6059d924 T __ZN7sc_core9sc_module17end_of_simulationEv
6059d92c t __Z41__static_initialization_and_destruction_0ii
6059d974 t __GLOBAL__I__ZN7sc_core26mti_is_elab_foreign_moduleE
6059d984 t ___tcf_1
6059d99c t __ZN7sc_core24sc_warn_arrow_arrow_bindEv
6059d9dc T __ZN7sc_core9sc_module15positional_bindERNS_12sc_port_baseE
6059db14 T __ZN7sc_core9sc_modulelsERNS_12sc_port_baseE
6059db38 T __ZN7sc_core9sc_module15positional_bindERNS_12sc_interfaceE
6059dc70 T __ZN7sc_core9sc_moduleclERKNS_13sc_bind_proxyES3_S3_S3_S3_S3_S3_S3_S3_S3_S3_S3_S3_S3_S3_S3_S3_S3_S3_S3_S3_S3_S3_S3_S3_S3_S3_S3_S3_S3_S3_S3_S3_S3_S3_S3_S3_S3_S3_S3_S3_S3_S3_S3_S3_S3_S3_S3_S3_S3_S3_S3_S3_S3_S3_S3_S3_S3_S3_S3_S3_S3_S3_S3_
6059eea4 T __ZN7sc_core9sc_modulelsERNS_12sc_interfaceE
6059eec8 T __ZN7sc_core9sc_module11append_portEPNS_12sc_port_baseE
6059ef0c T __ZN7sc_core9sc_module15gen_unique_nameEPKcb
6059ef28 T __ZN7sc_core9sc_module15reset_signal_isERKNS_15sc_signal_in_ifIbEEb
6059ef40 T __ZN7sc_core9sc_module21async_reset_signal_isERKNS_15sc_signal_in_ifIbEEb
6059ef58 T __ZN7sc_core9sc_module15reset_signal_isERKNS_6sc_outIbEEb
6059ef70 T __ZN7sc_core9sc_module21async_reset_signal_isERKNS_6sc_outIbEEb
6059ef88 T __ZN7sc_core9sc_module15reset_signal_isERKNS_8sc_inoutIbEEb
6059efa0 T __ZN7sc_core9sc_module21async_reset_signal_isERKNS_8sc_inoutIbEEb
6059efb8 T __ZN7sc_core9sc_module15reset_signal_isERKNS_5sc_inIbEEb
6059efd0 T __ZN7sc_core9sc_module21async_reset_signal_isERKNS_5sc_inIbEEb
6059efe8 T __ZN7sc_core9sc_module10end_moduleEv
6059f070 T __ZN7sc_core9sc_module14sc_module_initEv
6059f1bc T __ZN7sc_core18sc_module_dynallocEPNS_9sc_moduleE
6059f21c T __ZN7sc_core9sc_module26mti_set_region_id_on_portsEv
6059f254 T __ZN7sc_core23sc_module_dynalloc_listD1Ev
6059f2f4 T __ZN7sc_core30delete_sc_module_dynalloc_listEv
6059f328 T __ZN7sc_core23sc_module_dynalloc_listD2Ev
6059f3c8 T __ZN7sc_core9sc_module15dont_initializeEv
6059f47c T __ZN7sc_core9sc_module15simulation_doneEv
6059f4cc T __ZN7sc_core9sc_module17construction_doneEv
6059f51c T __ZN7sc_core9sc_module16start_simulationEv
6059f56c T __ZN7sc_core9sc_module16elaboration_doneERb
6059f628 T __ZN7sc_core9sc_moduleC2Ev
6059f79c T __ZN7sc_core9sc_module14set_stack_sizeEj
6059f910 T __ZN7sc_core9sc_moduleC1ERKNS_14sc_module_nameE
6059fa84 T __ZN7sc_core9sc_moduleC2ERKNS_14sc_module_nameE
6059fbf8 T __ZN7sc_core9sc_moduleC1Ev
6059fd6c t ___tcf_0
6059fdd0 T __ZN7sc_core9sc_module25mti_find_parameter_objectEPKcS2_
605a0250 T __ZN7sc_core9sc_module19sc_get_string_paramEPKccPi
605a04ac T __ZN7sc_core9sc_module12sc_get_paramEPKcRSsc
605a0598 T __ZN7sc_core9sc_module17sc_get_real_paramEPKcPi
605a074c T __ZN7sc_core9sc_module12sc_get_paramEPKcRd
605a0774 T __ZN7sc_core9sc_module16sc_get_int_paramEPKcPi
605a0928 T __ZN7sc_core9sc_module12sc_get_paramEPKcRi
605a0950 T __ZN7sc_core9sc_moduleC2EPKc
605a0b00 T __ZN7sc_core9sc_moduleC1ERKSs
605a0cb0 T __ZN7sc_core9sc_moduleC2ERKSs
605a0e60 T __ZN7sc_core9sc_moduleC1EPKc
605a1010 T __ZThn56_N7sc_core9sc_moduleD1Ev
605a1018 T __ZN7sc_core9sc_moduleD1Ev
605a1548 T __ZN7sc_core9sc_moduleD2Ev
605a1a78 T __ZThn56_N7sc_core9sc_moduleD0Ev
605a1a80 T __ZN7sc_core9sc_moduleD0Ev
605a1fc0 t .text
605a1fc0 T __ZN7sc_core8sc_clock25before_end_of_elaborationEv
605a1fc8 T __ZTv0_n12_N7sc_core8sc_clock13register_portERNS_12sc_port_baseEPKc
605a1fd8 T __ZN7sc_core8sc_clock13register_portERNS_12sc_port_baseEPKc
605a1fe0 T __ZN7sc_core17mti_sc_clock_ctrl4initEv
605a200c T __ZNK7sc_core17mti_sc_clock_ctrl33num_of_posedge_event_static_trigsEv
605a2050 T __ZNK7sc_core17mti_sc_clock_ctrl33num_of_negedge_event_static_trigsEv
605a2094 T __ZNK7sc_core17mti_sc_clock_ctrl34num_of_posedge_event_dynamic_trigsEv
605a20d8 T __ZNK7sc_core17mti_sc_clock_ctrl34num_of_negedge_event_dynamic_trigsEv
605a211c t __Z41__static_initialization_and_destruction_0ii
605a215c t __GLOBAL__I__ZN7sc_core8sc_clockC2Ev
605a216c t ___tcf_0
605a2184 T __ZThn56_N7sc_core17mti_sc_clock_ctrlD0Ev
605a218c T __ZN7sc_core17mti_sc_clock_ctrlD0Ev
605a21b8 T __ZThn56_N7sc_core17mti_sc_clock_ctrlD1Ev
605a21c0 T __ZN7sc_core17mti_sc_clock_ctrlD1Ev
605a21dc T __ZN7sc_core17mti_sc_clock_ctrlD2Ev
605a21f8 T __ZN7sc_core8sc_clock26mti_resume_clock_edge_evalENS_8sc_event17mtiClockEdgeTypeTE
605a2250 T __ZN7sc_core8sc_clock10time_stampEv
605a225c T __ZNK7sc_core8sc_clock12report_errorEPKcS2_
605a22d8 T __ZThn84_N7sc_core8sc_clock5writeERKb
605a22e0 T __ZN7sc_core8sc_clock5writeERKb
605a2308 T __ZTv0_n20_N7sc_core8sc_clockD0Ev
605a2318 T __ZThn84_N7sc_core8sc_clockD0Ev
605a2320 T __ZThn80_N7sc_core8sc_clockD0Ev
605a2328 T __ZN7sc_core8sc_clockD0Ev
605a23f0 T __ZTv0_n20_N7sc_core8sc_clockD1Ev
605a2400 T __ZThn84_N7sc_core8sc_clockD1Ev
605a2408 T __ZThn80_N7sc_core8sc_clockD1Ev
605a2410 T __ZN7sc_core8sc_clockD1Ev
605a24d0 T __ZN7sc_core8sc_clockD2Ev
605a2584 T __ZN7sc_core8sc_clock21mti_get_channel_valueEi
605a2638 T __ZN7sc_core17mti_sc_clock_ctrl16posedge_callbackEv
605a26c4 T __ZN7sc_core17mti_sc_clock_ctrl16negedge_callbackEv
605a2750 T __ZN7sc_core8sc_clock28mti_activate_clock_edge_evalENS_8sc_event17mtiClockEdgeTypeTE
605a2854 T __ZN7sc_core8sc_clock4initERKNS_7sc_timeEdS3_b
605a2d14 T __ZN7sc_core8sc_clockC2EPKc
605a2f0c T __ZN7sc_core17mti_sc_clock_ctrl28mti_create_edge_eval_processEb
605a31c0 T __ZN7sc_core16debug_clock_evalEPNS_17mti_sc_clock_ctrlEPKc
605a3328 T __ZN7sc_core17mti_sc_clock_ctrl18end_of_elaborationEv
605a3438 T __ZN7sc_core8sc_clockC2EPKcdNS_12sc_time_unitEd
605a3634 T __ZN7sc_core8sc_clockC1EPKcRKNS_7sc_timeEdS5_b
605a382c T __ZN7sc_core8sc_clockC2EPKcRKNS_7sc_timeEdS5_b
605a3a14 T __ZN7sc_core8sc_clockC1EPKc
605a3c18 T __ZN7sc_core8sc_clockC2EPKcdddb
605a4264 T __ZN7sc_core8sc_clockC1EPKcdNS_12sc_time_unitEddS3_b
605a4804 T __ZN7sc_core8sc_clockC2EPKcdNS_12sc_time_unitEddS3_b
605a4da8 T __ZN7sc_core8sc_clockC1EPKcdNS_12sc_time_unitEd
605a516c T __ZN7sc_core8sc_clockC1EPKcdddb
605a57b8 T __ZN7sc_core8sc_clockC2Ev
605a5b80 T __ZN7sc_core8sc_clockC1Ev
605a5f50 t .text
605a5f50 T __ZN7sc_core14sc_module_nameC2ERKS0_
605a5f78 T __ZN7sc_core14sc_module_nameC1ERKS0_
605a5fa0 T __ZNK7sc_core14sc_module_namecvPKcEv
605a5fac t __Z41__static_initialization_and_destruction_0ii
605a5fec t __GLOBAL__I__ZN7sc_core14sc_module_nameC2EPKc
605a5ffc t ___tcf_0
605a6014 T __ZN7sc_core14sc_module_nameC2EPKc
605a6094 T __ZN7sc_core14sc_module_nameC1EPKc
605a6114 T __ZN7sc_core14sc_module_nameD2Ev
605a6294 T __ZN7sc_core14sc_module_nameD1Ev
605a6420 t .text
605a6420 T __ZN7sc_core9vcd_trace9set_widthEv
605a6428 T __ZN7sc_core14vcd_bool_trace7changedEv
605a6440 T __ZN7sc_core16vcd_sc_bit_trace7changedEv
605a6458 T __ZN7sc_core18vcd_sc_logic_trace7changedEv
605a6470 T __ZN7sc_core22vcd_sc_uint_base_trace7changedEv
605a6498 T __ZN7sc_core21vcd_sc_int_base_trace7changedEv
605a64c0 T __ZN7sc_core23vcd_sc_fxval_fast_trace7changedEv
605a64e4 T __ZN7sc_core23vcd_sc_fxnum_fast_trace7changedEv
605a6508 T __ZN7sc_core22vcd_unsigned_int_trace7changedEv
605a6520 T __ZN7sc_core24vcd_unsigned_short_trace7changedEv
605a6538 T __ZN7sc_core23vcd_unsigned_char_trace7changedEv
605a6550 T __ZN7sc_core23vcd_unsigned_long_trace7changedEv
605a6568 T __ZN7sc_core20vcd_signed_int_trace7changedEv
605a6580 T __ZN7sc_core22vcd_signed_short_trace7changedEv
605a6598 T __ZN7sc_core21vcd_signed_char_trace7changedEv
605a65b0 T __ZN7sc_core15vcd_int64_trace7changedEv
605a65d8 T __ZN7sc_core16vcd_uint64_trace7changedEv
605a6600 T __ZN7sc_core21vcd_signed_long_trace7changedEv
605a6618 T __ZN7sc_core15vcd_float_trace7changedEv
605a663c T __ZN7sc_core16vcd_double_trace7changedEv
605a6660 T __ZN7sc_core14vcd_enum_trace7changedEv
605a6678 t __Z41__static_initialization_and_destruction_0ii
605a66b8 t __GLOBAL__I__ZN7sc_core9vcd_typesE
605a66c8 t ___tcf_8
605a66e0 T __ZN7sc_core23sc_close_vcd_trace_fileEPNS_13sc_trace_fileE
605a6760 T __ZN7sc_core14vcd_trace_file11obtain_nameEv
605a6858 T __ZN7sc_core9vcd_trace18strip_leading_bitsEPKc
605a68b4 T __ZN7sc_core14vcd_trace_fileC1EPKc
605a6904 T __ZN7sc_core24sc_create_vcd_trace_fileEPKc
605a6940 T __ZN7sc_core18vcd_sc_fxnum_trace7changedEv
605a6964 T __ZN7sc_core18vcd_sc_fxval_trace7changedEv
605a6988 T __ZN7sc_core18vcd_sc_fxval_trace5writeEP6_iobuf
605a6a70 T __ZN7sc_core19vcd_sc_signed_trace7changedEv
605a6a8c T __ZN7sc_core21vcd_sc_unsigned_trace7changedEv
605a6aa8 T __ZN7sc_core9vcd_trace17compose_data_lineEPcS1_
605a6b34 T __ZN7sc_core14vcd_enum_trace5writeEP6_iobuf
605a6bec T __ZN7sc_core21vcd_signed_long_trace5writeEP6_iobuf
605a6ca4 T __ZN7sc_core16vcd_uint64_trace5writeEP6_iobuf
605a6dbc T __ZN7sc_core15vcd_int64_trace5writeEP6_iobuf
605a6ed4 T __ZN7sc_core21vcd_signed_char_trace5writeEP6_iobuf
605a6fa0 T __ZN7sc_core22vcd_signed_short_trace5writeEP6_iobuf
605a7078 T __ZN7sc_core20vcd_signed_int_trace5writeEP6_iobuf
605a7130 T __ZN7sc_core23vcd_unsigned_long_trace5writeEP6_iobuf
605a71e8 T __ZN7sc_core23vcd_unsigned_char_trace5writeEP6_iobuf
605a72b4 T __ZN7sc_core24vcd_unsigned_short_trace5writeEP6_iobuf
605a7370 T __ZN7sc_core22vcd_unsigned_int_trace5writeEP6_iobuf
605a7428 T __ZN7sc_core18vcd_sc_logic_trace5writeEP6_iobuf
605a749c T __ZN7sc_core14vcd_bool_trace5writeEP6_iobuf
605a74ec T __ZN7sc_core14vcd_trace_file13write_commentERKSs
605a754c T __ZN7sc_core16vcd_double_trace5writeEP6_iobuf
605a7584 T __ZN7sc_core15vcd_float_trace5writeEP6_iobuf
605a75bc T __ZN7sc_core23vcd_sc_fxval_fast_trace5writeEP6_iobuf
605a75fc T __ZN7sc_core19vcd_sc_signed_trace9set_widthEv
605a7610 T __ZN7sc_core21vcd_sc_unsigned_trace9set_widthEv
605a7624 T __ZN7sc_core18vcd_sc_fxnum_trace9set_widthEv
605a7638 T __ZN7sc_core23vcd_sc_fxnum_fast_trace9set_widthEv
605a764c T __ZN7sc_core22vcd_sc_uint_base_trace9set_widthEv
605a7660 T __ZN7sc_core21vcd_sc_int_base_trace9set_widthEv
605a7674 T __ZN7sc_core14vcd_trace_fileC2EPKc
605a76c4 T __ZN7sc_core21vcd_sc_int_base_trace5writeEP6_iobuf
605a77d8 T __ZN7sc_core22vcd_sc_uint_base_trace5writeEP6_iobuf
605a7900 T __ZN7sc_core16vcd_sc_bit_trace5writeEP6_iobuf
605a7980 T __ZN7sc_core14vcd_trace_fileD2Ev
605a7a18 T __ZN7sc_core14vcd_trace_fileD0Ev
605a7abc T __ZN7sc_core14vcd_trace_fileD1Ev
605a7b54 T __ZN7sc_core14vcd_trace_file13do_initializeEv
605a8154 T __ZN7sc_core9vcd_traceD0Ev
605a8274 T __ZN7sc_core9vcd_traceD1Ev
605a8388 T __ZN7sc_core9vcd_traceD2Ev
605a849c T __ZN7sc_core9vcd_traceC2ERKSsS2_
605a8540 T __ZN7sc_core14vcd_trace_file5traceERKN5sc_dt10sc_lv_baseERKSs
605a86a4 T __ZN7sc_core14vcd_trace_file5traceERKN5sc_dt10sc_bv_baseERKSs
605a8808 T __ZN7sc_core14vcd_enum_traceC1ERKjRKSsS4_PPKc
605a88b0 T __ZN7sc_core14vcd_trace_file5traceERKjRKSsPPKc
605a89e4 T __ZN7sc_core14vcd_enum_traceC2ERKjRKSsS4_PPKc
605a8a8c T __ZN7sc_core16vcd_double_traceC1ERKdRKSsS4_
605a8ad0 T __ZN7sc_core14vcd_trace_file5traceERKdRKSs
605a8c04 T __ZN7sc_core16vcd_double_traceC2ERKdRKSsS4_
605a8c48 T __ZN7sc_core15vcd_float_traceC1ERKfRKSsS4_
605a8c88 T __ZN7sc_core14vcd_trace_file5traceERKfRKSs
605a8dbc T __ZN7sc_core15vcd_float_traceC2ERKfRKSsS4_
605a8dfc T __ZN7sc_core21vcd_signed_long_traceC1ERKlRKSsS4_i
605a8e58 T __ZN7sc_core14vcd_trace_file5traceERKlRKSsi
605a8f8c T __ZN7sc_core21vcd_signed_long_traceC2ERKlRKSsS4_i
605a8fe8 T __ZN7sc_core16vcd_uint64_traceC1ERKyRKSsS4_i
605a9068 T __ZN7sc_core14vcd_trace_file5traceERKyRKSsi
605a919c T __ZN7sc_core16vcd_uint64_traceC2ERKyRKSsS4_i
605a921c T __ZN7sc_core15vcd_int64_traceC1ERKxRKSsS4_i
605a929c T __ZN7sc_core14vcd_trace_file5traceERKxRKSsi
605a93d0 T __ZN7sc_core15vcd_int64_traceC2ERKxRKSsS4_i
605a9450 T __ZN7sc_core21vcd_signed_char_traceC1ERKcRKSsS4_i
605a94a8 T __ZN7sc_core14vcd_trace_file5traceERKcRKSsi
605a95dc T __ZN7sc_core21vcd_signed_char_traceC2ERKcRKSsS4_i
605a9634 T __ZN7sc_core22vcd_signed_short_traceC1ERKsRKSsS4_i
605a9694 T __ZN7sc_core14vcd_trace_file5traceERKsRKSsi
605a97c8 T __ZN7sc_core22vcd_signed_short_traceC2ERKsRKSsS4_i
605a9828 T __ZN7sc_core20vcd_signed_int_traceC1ERKiRKSsS4_i
605a9884 T __ZN7sc_core14vcd_trace_file5traceERKiRKSsi
605a99b8 T __ZN7sc_core20vcd_signed_int_traceC2ERKiRKSsS4_i
605a9a14 T __ZN7sc_core23vcd_unsigned_long_traceC1ERKmRKSsS4_i
605a9a70 T __ZN7sc_core14vcd_trace_file5traceERKmRKSsi
605a9ba4 T __ZN7sc_core23vcd_unsigned_long_traceC2ERKmRKSsS4_i
605a9c00 T __ZN7sc_core23vcd_unsigned_char_traceC1ERKhRKSsS4_i
605a9c58 T __ZN7sc_core14vcd_trace_file5traceERKhRKSsi
605a9d8c T __ZN7sc_core23vcd_unsigned_char_traceC2ERKhRKSsS4_i
605a9de4 T __ZN7sc_core24vcd_unsigned_short_traceC1ERKtRKSsS4_i
605a9e44 T __ZN7sc_core14vcd_trace_file5traceERKtRKSsi
605a9f78 T __ZN7sc_core24vcd_unsigned_short_traceC2ERKtRKSsS4_i
605a9fd8 T __ZN7sc_core22vcd_unsigned_int_traceC1ERKjRKSsS4_i
605aa034 T __ZN7sc_core14vcd_trace_file5traceERKjRKSsi
605aa168 T __ZN7sc_core22vcd_unsigned_int_traceC2ERKjRKSsS4_i
605aa1c4 T __ZN7sc_core23vcd_sc_fxnum_fast_traceC1ERKN5sc_dt13sc_fxnum_fastERKSsS6_
605aa2d8 T __ZN7sc_core14vcd_trace_file5traceERKN5sc_dt13sc_fxnum_fastERKSs
605aa40c T __ZN7sc_core23vcd_sc_fxnum_fast_traceC2ERKN5sc_dt13sc_fxnum_fastERKSsS6_
605aa520 T __ZN7sc_core18vcd_sc_fxnum_traceC1ERKN5sc_dt8sc_fxnumERKSsS6_
605aa78c T __ZN7sc_core14vcd_trace_file5traceERKN5sc_dt8sc_fxnumERKSs
605aa8c0 T __ZN7sc_core18vcd_sc_fxnum_traceC2ERKN5sc_dt8sc_fxnumERKSsS6_
605aab2c T __ZN7sc_core23vcd_sc_fxval_fast_traceC1ERKN5sc_dt13sc_fxval_fastERKSsS6_
605aab78 T __ZN7sc_core14vcd_trace_file5traceERKN5sc_dt13sc_fxval_fastERKSs
605aacac T __ZN7sc_core23vcd_sc_fxval_fast_traceC2ERKN5sc_dt13sc_fxval_fastERKSsS6_
605aacf8 T __ZN7sc_core18vcd_sc_fxval_traceC1ERKN5sc_dt8sc_fxvalERKSsS6_
605aad7c T __ZN7sc_core14vcd_trace_file5traceERKN5sc_dt8sc_fxvalERKSs
605aaeb0 T __ZN7sc_core18vcd_sc_fxval_traceC2ERKN5sc_dt8sc_fxvalERKSsS6_
605aaf34 T __ZN7sc_core21vcd_sc_int_base_traceC1ERKN5sc_dt11sc_int_baseERKSsS6_
605ab008 T __ZN7sc_core14vcd_trace_file5traceERKN5sc_dt11sc_int_baseERKSs
605ab13c T __ZN7sc_core21vcd_sc_int_base_traceC2ERKN5sc_dt11sc_int_baseERKSsS6_
605ab210 T __ZN7sc_core22vcd_sc_uint_base_traceC1ERKN5sc_dt12sc_uint_baseERKSsS6_
605ab2f8 T __ZN7sc_core14vcd_trace_file5traceERKN5sc_dt12sc_uint_baseERKSs
605ab42c T __ZN7sc_core22vcd_sc_uint_base_traceC2ERKN5sc_dt12sc_uint_baseERKSsS6_
605ab514 T __ZN7sc_core19vcd_sc_signed_traceC1ERKN5sc_dt9sc_signedERKSsS6_
605ab5bc T __ZN7sc_core14vcd_trace_file5traceERKN5sc_dt9sc_signedERKSs
605ab6f0 T __ZN7sc_core19vcd_sc_signed_traceC2ERKN5sc_dt9sc_signedERKSsS6_
605ab798 T __ZN7sc_core21vcd_sc_unsigned_traceC1ERKN5sc_dt11sc_unsignedERKSsS6_
605ab848 T __ZN7sc_core14vcd_trace_file5traceERKN5sc_dt11sc_unsignedERKSs
605ab97c T __ZN7sc_core21vcd_sc_unsigned_traceC2ERKN5sc_dt11sc_unsignedERKSsS6_
605aba2c T __ZN7sc_core18vcd_sc_logic_traceC1ERKN5sc_dt8sc_logicERKSsS6_
605aba78 T __ZN7sc_core14vcd_trace_file5traceERKN5sc_dt8sc_logicERKSs
605abbac T __ZN7sc_core18vcd_sc_logic_traceC2ERKN5sc_dt8sc_logicERKSsS6_
605abbf8 T __ZN7sc_core16vcd_sc_bit_traceC1ERKN5sc_dt6sc_bitERKSsS6_
605abc44 T __ZN7sc_core14vcd_trace_file5traceERKN5sc_dt6sc_bitERKSs
605abd78 T __ZN7sc_core16vcd_sc_bit_traceC2ERKN5sc_dt6sc_bitERKSsS6_
605abdc4 T __ZN7sc_core14vcd_bool_traceC1ERKbRKSsS4_
605abe04 T __ZN7sc_core14vcd_trace_file5traceERKbRKSs
605abf38 T __ZN7sc_core14vcd_bool_traceC2ERKbRKSsS4_
605abf78 T __ZN7sc_core9vcd_traceC1ERKSsS2_
605ac01c t ___tcf_0
605ac03c t ___tcf_2
605ac05c T __ZN7sc_core21vcd_sc_unsigned_trace5writeEP6_iobuf
605ac404 t ___tcf_1
605ac424 t ___tcf_5
605ac444 t ___tcf_4
605ac464 T __ZN7sc_core19vcd_sc_signed_trace5writeEP6_iobuf
605ac808 t ___tcf_3
605ac828 T __ZN7sc_core23vcd_sc_fxnum_fast_trace5writeEP6_iobuf
605acbdc t ___tcf_7
605acbfc t ___tcf_6
605acc1c T __ZN7sc_core18vcd_sc_fxnum_trace5writeEP6_iobuf
605ad0b8 T __ZN7sc_core9vcd_trace12compose_lineERKSs
605ad488 T __ZN7sc_core14vcd_trace_file5cycleEb
605adfc0 t __ZN7sc_core24remove_vcd_name_problemsEPKNS_9vcd_traceERSs
605ae468 T __ZN7sc_core9vcd_trace31print_variable_declaration_lineEP6_iobuf
605ae970 t .text
605ae970 T __ZN7sc_core15sc_event_finderC2ERKNS_12sc_port_baseE
605ae984 T __ZN7sc_core15sc_event_finderC1ERKNS_12sc_port_baseE
605ae998 T __ZN7sc_core15sc_event_finderD0Ev
605ae9ac T __ZN7sc_core15sc_event_finderD1Ev
605ae9bc T __ZN7sc_core15sc_event_finderD2Ev
605ae9cc t __Z41__static_initialization_and_destruction_0ii
605aea0c t __GLOBAL__I__ZNK7sc_core15sc_event_finder12report_errorEPKcS2_
605aea1c t ___tcf_0
605aea34 T __ZNK7sc_core15sc_event_finder12report_errorEPKcS2_
605aead0 t .text
605aead0 T __ZNK7sc_core9sc_object5traceEPNS_13sc_trace_fileE
605aead8 T __ZNK7sc_core9sc_object14num_attributesEv
605aeaf4 t __Z41__static_initialization_and_destruction_0ii
605aeb34 t __GLOBAL__I__ZN7sc_core23sc_enable_name_checkingE
605aeb44 t ___tcf_0
605aeb5c T __ZN7sc_core9sc_object16mti_set_typenameEPKc
605aebcc T __ZNK7sc_core9sc_object10get_parentEv
605aec0c T __ZNK7sc_core9sc_object9attr_cltnEv
605aec5c T __ZN7sc_core9sc_object9attr_cltnEv
605aecac T __ZN7sc_core9sc_object21remove_all_attributesEv
605aecc8 T __ZN7sc_core9sc_object16remove_attributeERKSs
605aece4 T __ZNK7sc_core9sc_object13get_attributeERKSs
605aed40 T __ZN7sc_core9sc_object13get_attributeERKSs
605aed9c T __ZN7sc_core9sc_object13add_attributeERNS_12sc_attr_baseE
605aedf4 T __ZN7sc_core9sc_object6detachEv
605aee44 T __ZN7sc_core9sc_object15mti_delete_nameEv
605aee94 t __ZN7sc_core24object_name_illegal_charEc
605aeef4 T __ZNK7sc_core9sc_object8basenameEv
605aef30 T __ZN7sc_core9sc_object36unregister_simulation_phase_callbackEj
605aef4c T __ZN7sc_core9sc_object34register_simulation_phase_callbackEj
605aef68 T __ZN7sc_core9sc_object19remove_child_objectEPS0_
605aefd4 T __ZN7sc_core9sc_object18remove_child_eventEPNS_8sc_eventE
605af040 T __ZN7sc_core9sc_object19orphan_child_eventsEv
605af090 T __ZN7sc_core9sc_object20orphan_child_objectsEv
605af0e0 T __ZN7sc_core9sc_object16add_child_objectEPS0_
605af114 T __ZN7sc_core9sc_object15add_child_eventEPNS_8sc_eventE
605af148 T __ZN7sc_core9sc_object13mti_init_nameEPKc
605af4dc T __ZN7sc_core9sc_object20mti_fix_default_nameEv
605af5c4 T __ZN7sc_core9sc_object14sc_object_initEPKc
605af618 T __ZNK7sc_core9sc_object4nameEv
605af740 T __ZN7sc_core9sc_object25simulation_phase_callbackEv
605af76c T __ZN7sc_core9sc_object20mti_bind_sc_obj_nameEPc
605af8e8 T __ZNK7sc_core9sc_object5printERSo
605af948 T __ZNK7sc_core9sc_object4dumpERSo
605afa38 T __ZN7sc_core9sc_objectD2Ev
605afba0 T __ZN7sc_core9sc_objectC1EPKc
605afeac T __ZN7sc_core9sc_objectC2EPKc
605b01b8 T __ZN7sc_core9sc_objectC1ERKS0_
605b02b8 T __ZN7sc_core9sc_objectC2Ev
605b03b4 T __ZN7sc_core9sc_objectC2ERKS0_
605b04b4 T __ZN7sc_core9sc_objectC1Ev
605b05b0 T __ZN7sc_core9sc_objectD0Ev
605b0724 T __ZN7sc_core9sc_objectD1Ev
605b0890 t .text
605b0890 T __ZN7sc_core12sc_interface13register_portERNS_12sc_port_baseEPKc
605b0898 T __ZN7sc_core12sc_interfaceC2Ev
605b08a8 T __ZN7sc_core12sc_interfaceC1Ev
605b08b8 T __ZN7sc_core12sc_interface18mti_get_channel_idEPNS_9sc_objectE
605b08c0 T __ZN7sc_core12sc_interfaceD0Ev
605b08d4 T __ZN7sc_core12sc_interfaceD1Ev
605b08e4 T __ZN7sc_core12sc_interfaceD2Ev
605b08f4 t __Z41__static_initialization_and_destruction_0ii
605b0950 t __GLOBAL__I__ZN7sc_core12sc_interface13register_portERNS_12sc_port_baseEPKc
605b0960 t ___tcf_1
605b0978 t ___tcf_0
605b0990 T __ZNK7sc_core12sc_interface13default_eventEv
605b09c0 t .text
605b09c0 T __ZN7sc_core12sc_bind_elemC2Ev
605b09d8 T __ZN7sc_core12sc_bind_elemC1Ev
605b09f0 T __ZN7sc_core12sc_bind_elemC2EPNS_12sc_interfaceE
605b0a04 T __ZN7sc_core12sc_bind_elemC1EPNS_12sc_interfaceE
605b0a18 T __ZN7sc_core12sc_bind_elemC2EPNS_12sc_port_baseE
605b0a2c T __ZN7sc_core12sc_bind_elemC1EPNS_12sc_port_baseE
605b0a40 T __ZN7sc_core10sc_bind_efC2EPNS_12sc_process_bEPNS_15sc_event_finderE
605b0a54 T __ZN7sc_core10sc_bind_efC1EPNS_12sc_process_bEPNS_15sc_event_finderE
605b0a68 T __ZN7sc_core10sc_bind_efD2Ev
605b0a70 T __ZN7sc_core10sc_bind_efD1Ev
605b0a78 T __ZN7sc_core12sc_bind_infoC1EiNS_14sc_port_policyE
605b0ae0 T __ZNK7sc_core12sc_bind_info8max_sizeEv
605b0af8 T __ZNK7sc_core12sc_bind_info6policyEv
605b0b04 T __ZNK7sc_core12sc_bind_info4sizeEv
605b0b18 T __ZN7sc_core12sc_port_base10bind_countEv
605b0b38 T __ZN7sc_core12sc_port_base25before_end_of_elaborationEv
605b0b40 T __ZN7sc_core12sc_port_base18end_of_elaborationEv
605b0b48 T __ZN7sc_core12sc_port_base19start_of_simulationEv
605b0b50 T __ZN7sc_core12sc_port_base17end_of_simulationEv
605b0b58 T __ZN7sc_core12sc_port_base12first_parentEv
605b0b90 T __ZN7sc_core16sc_port_registry12replace_portEPS0_
605b0b98 T __ZN7sc_core16sc_port_registryC1ERNS_13sc_simcontextE
605b0bb8 T __ZN7sc_core16sc_port_registryC2ERNS_13sc_simcontextE
605b0bd8 t __Z41__static_initialization_and_destruction_0ii
605b0c18 t __GLOBAL__I__ZN7sc_core12sc_bind_elemC2Ev
605b0c28 t ___tcf_0
605b0c40 T __ZN7sc_core24sc_warn_port_constructorEv
605b0c80 T __ZN7sc_core16sc_port_registryD1Ev
605b0c90 T __ZN7sc_core16sc_port_registryD2Ev
605b0ca0 T __ZNK7sc_core12sc_port_base16add_static_eventEPNS_17sc_thread_processERKNS_8sc_eventE
605b0cb8 T __ZNK7sc_core12sc_port_base16add_static_eventEPNS_17sc_method_processERKNS_8sc_eventE
605b0cd0 T __ZNK7sc_core12sc_port_base12report_errorEPKcS2_
605b0d64 T __ZN7sc_core16sc_port_registry6removeEPNS_12sc_port_baseE
605b0d9c T __ZN7sc_core12sc_port_base5pbindERS0_
605b0df4 T __ZN7sc_core12sc_port_base5pbindERNS_12sc_interfaceE
605b0e4c T __ZNK7sc_core16sc_port_registry17mti_is_valid_portEPNS_12sc_port_baseE
605b0e94 T __ZN7sc_core12sc_port_base4bindERS0_
605b0f34 T __ZN7sc_core12sc_port_base15simulation_doneEv
605b0f98 T __ZN7sc_core16sc_port_registry15simulation_doneEv
605b0fd0 T __ZN7sc_core12sc_port_base16start_simulationEv
605b1034 T __ZN7sc_core16sc_port_registry16start_simulationEv
605b106c T __ZN7sc_core12sc_port_base17construction_doneEv
605b10d0 T __ZN7sc_core16sc_port_registry17construction_doneEv
605b1128 T __ZNK7sc_core12sc_port_base14make_sensitiveEPNS_17sc_thread_processEPNS_15sc_event_finderE
605b11a0 T __ZNK7sc_core12sc_port_base14make_sensitiveEPNS_17sc_method_processEPNS_15sc_event_finderE
605b1218 T __ZN7sc_core12sc_port_base4bindERNS_12sc_interfaceE
605b12ac T __ZN7sc_core12sc_port_base13insert_parentEi
605b1410 T __ZN7sc_core16sc_port_registry6insertEPNS_12sc_port_baseE
605b158c T __ZN7sc_core12sc_port_baseC1EPKciNS_14sc_port_policyE
605b1620 T __ZN7sc_core12sc_port_baseC2EPKciNS_14sc_port_policyE
605b16b4 T __ZN7sc_core12sc_port_baseC1EiNS_14sc_port_policyE
605b1758 T __ZN7sc_core12sc_port_baseC2EiNS_14sc_port_policyE
605b17fc T __ZN7sc_core12sc_port_base23mti_create_signal_aliasEv
605b1bec T __ZN7sc_core12sc_port_base20mti_complete_bindingEPNS_12sc_interfaceE
605b2218 T __ZN7sc_core12sc_port_base16complete_bindingEv
605b2664 T __ZN7sc_core16sc_port_registry16complete_bindingEv
605b269c T __ZN7sc_core12sc_bind_infoC2EiNS_14sc_port_policyE
605b2704 T __ZN7sc_core12sc_bind_infoD1Ev
605b2798 T __ZN7sc_core12sc_port_base16elaboration_doneEv
605b283c T __ZN7sc_core16sc_port_registry16elaboration_doneEv
605b2880 T __ZN7sc_core12sc_port_baseD0Ev
605b28ec T __ZN7sc_core12sc_port_baseD1Ev
605b294c T __ZN7sc_core12sc_port_baseD2Ev
605b29ac T __ZN7sc_core12sc_bind_infoD2Ev
605b2a40 t .text
605b2a40 T __ZN7sc_core13sc_trace_fileC2Ev
605b2a50 T __ZN7sc_core13sc_trace_fileC1Ev
605b2a60 T __ZN7sc_core13sc_trace_file5spaceEi
605b2a68 T __ZN7sc_core13sc_trace_file12delta_cyclesEb
605b2a70 T __ZN7sc_core8sc_traceEPNS_13sc_trace_fileERKNS_15sc_signal_in_ifIcEERKSsi
605b2ac0 T __ZN7sc_core8sc_traceEPNS_13sc_trace_fileERKNS_15sc_signal_in_ifIsEERKSsi
605b2b10 T __ZN7sc_core8sc_traceEPNS_13sc_trace_fileERKNS_15sc_signal_in_ifIiEERKSsi
605b2b60 T __ZN7sc_core8sc_traceEPNS_13sc_trace_fileERKNS_15sc_signal_in_ifIlEERKSsi
605b2bb0 T __ZN7sc_core23double_to_special_int64EdPjS0_
605b2c70 T __ZN7sc_core8sc_traceEPNS_13sc_trace_fileERKN5sc_dt6sc_bitERKSs
605b2c88 T __ZN7sc_core8sc_traceEPNS_13sc_trace_fileEPKN5sc_dt6sc_bitERKSs
605b2ca0 T __ZN7sc_core8sc_traceEPNS_13sc_trace_fileERKN5sc_dt8sc_logicERKSs
605b2cb8 T __ZN7sc_core8sc_traceEPNS_13sc_trace_fileEPKN5sc_dt8sc_logicERKSs
605b2cd0 T __ZN7sc_core8sc_traceEPNS_13sc_trace_fileERKN5sc_dt11sc_int_baseERKSs
605b2ce8 T __ZN7sc_core8sc_traceEPNS_13sc_trace_fileEPKN5sc_dt11sc_int_baseERKSs
605b2d00 T __ZN7sc_core8sc_traceEPNS_13sc_trace_fileERKN5sc_dt12sc_uint_baseERKSs
605b2d18 T __ZN7sc_core8sc_traceEPNS_13sc_trace_fileEPKN5sc_dt12sc_uint_baseERKSs
605b2d30 T __ZN7sc_core8sc_traceEPNS_13sc_trace_fileERKN5sc_dt9sc_signedERKSs
605b2d48 T __ZN7sc_core8sc_traceEPNS_13sc_trace_fileEPKN5sc_dt9sc_signedERKSs
605b2d60 T __ZN7sc_core8sc_traceEPNS_13sc_trace_fileERKN5sc_dt11sc_unsignedERKSs
605b2d78 T __ZN7sc_core8sc_traceEPNS_13sc_trace_fileEPKN5sc_dt11sc_unsignedERKSs
605b2d90 T __ZN7sc_core8sc_traceEPNS_13sc_trace_fileERKN5sc_dt10sc_bv_baseERKSs
605b2da8 T __ZN7sc_core8sc_traceEPNS_13sc_trace_fileERKN5sc_dt10sc_lv_baseERKSs
605b2dc0 t __Z41__static_initialization_and_destruction_0ii
605b2df4 t __GLOBAL__I__ZN7sc_core13sc_trace_fileC2Ev
605b2e04 t ___tcf_0
605b2e1c T __ZN7sc_core8sc_traceEPNS_13sc_trace_fileERKjRKSsPPKc
605b2e94 T __ZN7sc_core8sc_traceEPNS_13sc_trace_fileEPKvRKSs
605b2ebc T __ZN7sc_core7tprintfEPNS_13sc_trace_fileEPKcz
605b2fc0 t .text
605b2fc0 T __ZN7sc_core25mti_is_internal_report_idEi
605b2ff0 T __ZN7sc_core17sc_report_handler9get_countENS_11sc_severityE
605b3000 T __ZN7sc_core17sc_report_handler7executeEPNS_10sc_msg_defENS_11sc_severityE
605b30cc T __ZN7sc_core17sc_report_handler20add_static_msg_typesEPNS0_13msg_def_itemsE
605b30e8 T __ZN7sc_core17sc_report_handler11set_actionsENS_11sc_severityEj
605b3104 T __ZN7sc_core17sc_report_handler10stop_afterENS_11sc_severityEi
605b3134 T __ZN7sc_core17sc_report_handler8suppressEj
605b3148 T __ZN7sc_core17sc_report_handler8suppressEv
605b3154 T __ZN7sc_core17sc_report_handler5forceEj
605b3168 T __ZN7sc_core17sc_report_handler5forceEv
605b3174 T __ZN7sc_core17sc_report_handler11set_handlerEPFvRKNS_9sc_reportERKjE
605b319c T __ZN7sc_core17sc_report_handler11get_handlerEv
605b31a8 T __ZN7sc_core17sc_report_handler17get_new_action_idEv
605b31d8 T __ZN7sc_core17sc_report_handler17get_log_file_nameEv
605b31e4 T __ZN7sc_core17sc_report_handler8mdlookupEi
605b322c T __ZN7sc_core17sc_report_handler19get_verbosity_levelEv
605b3238 T __ZN7sc_core17sc_report_handler19set_verbosity_levelEi
605b324c t __Z41__static_initialization_and_destruction_0ii
605b3298 t __GLOBAL__I__ZN7sc_core17sc_report_handler9cb_list_pE
605b32a8 t ___tcf_0
605b32c0 T __ZN7sc_core17sc_report_handler11register_cbEPFvPKNS_9sc_reportEE
605b3320 T __ZN7sc_core17sc_report_handler17set_log_file_nameEPKc
605b3398 T __ZN7sc_core27sc_report_close_default_logEv
605b33e0 T __ZN7sc_core17sc_report_handler7releaseEv
605b34cc t ___tcf_1
605b34d8 T __ZN7sc_core17sc_report_handler12add_msg_typeEiPKc
605b35a0 T __ZN7sc_core17sc_report_handler8mdlookupEPKc
605b3614 T __ZN7sc_core17sc_report_handler12add_msg_typeEPKc
605b36e4 T __ZN7sc_core17sc_report_handler10stop_afterEPKcNS_11sc_severityEi
605b3760 T __ZN7sc_core17sc_report_handler10stop_afterEPKci
605b37c4 T __ZN7sc_core17sc_report_handler11set_actionsEPKcNS_11sc_severityEj
605b3804 T __ZN7sc_core17sc_report_handler11set_actionsEPKcj
605b3848 T __ZN7sc_core17sc_report_handler10initializeEv
605b3914 T __ZN7sc_core17sc_report_handler9get_countEPKcNS_11sc_severityE
605b3958 T __ZN7sc_core17sc_report_handler9get_countEPKc
605b398c T __ZNK7sc_core9sc_report16get_process_nameEv
605b39a8 T __ZN7sc_core17sc_report_handler17get_cached_reportEv
605b3a18 T __ZN7sc_core17sc_report_handler12cache_reportERKNS_9sc_reportE
605b3b08 T __ZN7sc_core17sc_report_handler6reportENS_11sc_severityEPKcS3_S3_i
605b3bbc T __ZN7sc_core17sc_report_handler6reportENS_11sc_severityEPKcS3_iS3_i
605b3c6c T __ZN7sc_core17sc_report_handler15default_handlerERKNS_9sc_reportERKj
605b4034 T __ZN7sc_core17sc_report_handler19clear_cached_reportEv
605b40d4 T __ZN7sc_core25sc_report_compose_messageERKNS_9sc_reportE
605b4420 t .text
605b4420 t __Z41__static_initialization_and_destruction_0ii
605b4460 t __GLOBAL__I__ZN5sc_dt8mask_intE
605b4470 t ___tcf_0
605b4490 t .text
605b4490 T __ZN5sc_dt8sc_logic18mti_get_value_sizeEPiS1_S1_
605b44b0 T __ZN5sc_dt8sc_logic13mti_get_valueEv
605b44ec T __ZNK5sc_dt8sc_logic17mti_get_dpi_valueEPv
605b4520 T __ZN5sc_dt8sc_logic17mti_set_dpi_valueEPv
605b4558 t ___tcf_0
605b4570 T __ZN5sc_dt8sc_logic18mti_get_value_typeEv
605b4580 T __ZN5sc_dt8sc_logic13mti_set_valueEPv
605b45e0 T __ZNK5sc_dt8sc_logic10invalid_01Ev
605b462c T __ZN5sc_dt8sc_logic13invalid_valueEi
605b466c T __ZN5sc_dt8sc_logic13invalid_valueEc
605b46b0 T __ZN5sc_dt8sc_logic13invalid_valueENS_16sc_logic_value_tE
605b46f0 t __Z41__static_initialization_and_destruction_0ii
605b485c t __GLOBAL__I__ZN5sc_dt8sc_logic13invalid_valueENS_16sc_logic_value_tE
605b4870 T __ZN5sc_dt8sc_logic4scanERSi
605b48e0 t ___tcf_8
605b48f0 t ___tcf_7
605b4900 t ___tcf_2
605b4910 t ___tcf_1
605b4920 t ___tcf_6
605b4930 t ___tcf_5
605b4940 t ___tcf_4
605b4950 t ___tcf_3
605b4960 t .text
605b4960 T __ZThn4_NK5sc_dt11sc_unsigned15concat_get_ctrlEPji
605b4968 T __ZNK5sc_dt11sc_unsigned15concat_get_ctrlEPji
605b49f8 T __ZThn4_NK5sc_dt11sc_unsigned15concat_get_dataEPji
605b4a00 T __ZNK5sc_dt11sc_unsigned15concat_get_dataEPji
605b4f28 T __ZThn4_NK5sc_dt11sc_unsigned17concat_get_uint64Ev
605b4f30 T __ZNK5sc_dt11sc_unsigned17concat_get_uint64Ev
605b4fa4 T __ZNK5sc_dt11sc_unsigned10and_reduceEv
605b5024 T __ZNK5sc_dt11sc_unsigned9or_reduceEv
605b5038 T __ZNK5sc_dt11sc_unsigned8to_int64Ev
605b50b4 T __ZNK5sc_dt11sc_unsigned7to_longEv
605b5110 T __ZNK5sc_dt11sc_unsigned6to_intEv
605b516c T __ZNK5sc_dt11sc_unsigned9to_doubleEv
605b51d4 T __ZNK5sc_dt11sc_unsigned16check_if_outsideEi
605b51f8 T __ZN5sc_dt11sc_unsigned10initializeEv
605b5204 t ___tcf_4
605b526c t ___tcf_3
605b52d4 t ___tcf_2
605b5344 t ___tcf_1
605b5364 T __ZNK5sc_dt11sc_unsigned4testEi
605b5464 T __ZNK5sc_dt20sc_unsigned_bitref_rcoEv
605b5480 T __ZNK5sc_dt20sc_unsigned_bitref_rntEv
605b549c T __ZNK5sc_dt20sc_unsigned_bitref_rcvyEv
605b54b8 T __ZNK5sc_dt11sc_unsigned10xor_reduceEv
605b5508 T __ZNK5sc_dt11sc_unsigned9to_uint64Ev
605b56cc t ___tcf_0
605b56e4 T __ZN5sc_dt11sc_unsigneddVEx
605b5828 T __ZN5sc_dt11sc_unsignedmLEy
605b58ec T __ZN5sc_dt11sc_unsignedmLEx
605b59f0 T __ZNK5sc_dt11sc_unsigned13invalid_rangeEii
605b5a40 T __ZNK5sc_dt11sc_unsigned13invalid_indexEi
605b5a8c T __ZN5sc_dt11sc_unsignedmLERKNS_12sc_uint_baseE
605b5aa8 T __ZN5sc_dt11sc_unsigneddVERKNS_11sc_int_baseE
605b5ac4 T __ZN5sc_dt11sc_unsignedmLERKNS_11sc_int_baseE
605b5ae0 T __ZN5sc_dt11sc_unsigned6resizeEi
605b5b68 T __ZN5sc_dt11sc_unsigned18mti_get_value_typeEv
605b5b80 T __ZN5sc_dt11sc_unsigned18mti_get_value_sizeEPiS1_S1_
605b5ba4 T __ZN5sc_dt11sc_unsignedmLERKNS_9sc_signedE
605b5c18 T __ZN5sc_dt11sc_unsignedmLERKS0_
605b5c8c T __ZN5sc_dt11sc_unsignedmLEl
605b5d58 T __ZN5sc_dt11sc_unsigneddVEl
605b5e5c T __ZN5sc_dt11sc_unsignedmLEm
605b5f10 T __ZNK5sc_dt11sc_unsigned14get_packed_repEPj
605b60c0 T __ZNK5sc_dt11sc_unsigned6iszeroEv
605b61ac T __ZN5sc_dt11sc_unsignedrMEx
605b62cc T __ZN5sc_dt11sc_unsignedrMERKNS_11sc_int_baseE
605b62e8 T __ZN5sc_dt11sc_unsignedrMEl
605b63dc T __ZN5sc_dt11sc_unsignedaNERKS0_
605b64a0 T __ZN5sc_dt11sc_unsignedaSEm
605b65d8 T __ZN5sc_dt11sc_unsignedrMEy
605b66cc T __ZN5sc_dt11sc_unsignedrMERKNS_12sc_uint_baseE
605b66e8 T __ZN5sc_dt11sc_unsigneddVEy
605b67e0 T __ZN5sc_dt11sc_unsigneddVERKNS_12sc_uint_baseE
605b67fc T __ZN5sc_dt11sc_unsignedrMEm
605b68a0 T __ZN5sc_dt11sc_unsigneddVEm
605b697c T __ZN5sc_dt11sc_unsignedaSERKNS_9sc_signedE
605b6aac T __ZN5sc_dt11sc_unsignedaSERKS0_
605b6bfc T __ZNK5sc_dt11sc_unsigned7to_uintEv
605b6d38 T __ZNK5sc_dt11sc_unsigned8to_ulongEv
605b6e74 T __ZN5sc_dt16compare_unsignedEciiPKjciiS1_cc
605b7148 T __ZN5sc_dtltEmRKNS_11sc_unsignedE
605b71d4 T __ZN5sc_dtgeEmRKNS_11sc_unsignedE
605b71f0 T __ZN5sc_dtltERKNS_11sc_unsignedEm
605b727c T __ZN5sc_dtgeERKNS_11sc_unsignedEm
605b7298 T __ZN5sc_dtltElRKNS_11sc_unsignedE
605b7338 T __ZN5sc_dtgeElRKNS_11sc_unsignedE
605b7354 T __ZN5sc_dtltERKNS_11sc_unsignedEl
605b73f0 T __ZN5sc_dtgeERKNS_11sc_unsignedEl
605b740c T __ZN5sc_dtltEyRKNS_11sc_unsignedE
605b74a4 T __ZN5sc_dtgeEyRKNS_11sc_unsignedE
605b74c0 T __ZN5sc_dtgeERKNS_12sc_uint_baseERKNS_11sc_unsignedE
605b74dc T __ZN5sc_dtltERKNS_12sc_uint_baseERKNS_11sc_unsignedE
605b74f8 T __ZN5sc_dtltERKNS_11sc_unsignedEy
605b7590 T __ZN5sc_dtgeERKNS_11sc_unsignedEy
605b75ac T __ZN5sc_dtgeERKNS_11sc_unsignedERKNS_12sc_uint_baseE
605b75c8 T __ZN5sc_dtltERKNS_11sc_unsignedERKNS_12sc_uint_baseE
605b75e4 T __ZN5sc_dtltExRKNS_11sc_unsignedE
605b7698 T __ZN5sc_dtgeExRKNS_11sc_unsignedE
605b76b4 T __ZN5sc_dtgeERKNS_11sc_int_baseERKNS_11sc_unsignedE
605b76d0 T __ZN5sc_dtltERKNS_11sc_int_baseERKNS_11sc_unsignedE
605b76ec T __ZN5sc_dtltERKNS_11sc_unsignedEx
605b779c T __ZN5sc_dtgeERKNS_11sc_unsignedEx
605b77b8 T __ZN5sc_dtgeERKNS_11sc_unsignedERKNS_11sc_int_baseE
605b77d4 T __ZN5sc_dtltERKNS_11sc_unsignedERKNS_11sc_int_baseE
605b77f0 T __ZN5sc_dtltERKNS_9sc_signedERKNS_11sc_unsignedE
605b783c T __ZN5sc_dtgeERKNS_9sc_signedERKNS_11sc_unsignedE
605b7858 T __ZN5sc_dtltERKNS_11sc_unsignedERKNS_9sc_signedE
605b78a0 T __ZN5sc_dtgeERKNS_11sc_unsignedERKNS_9sc_signedE
605b78bc T __ZN5sc_dtltERKNS_11sc_unsignedES2_
605b7900 T __ZN5sc_dtgeERKNS_11sc_unsignedES2_
605b791c T __ZN5sc_dteqEmRKNS_11sc_unsignedE
605b79b0 T __ZN5sc_dtleEmRKNS_11sc_unsignedE
605b79f0 T __ZN5sc_dtgtEmRKNS_11sc_unsignedE
605b7a0c T __ZN5sc_dtneEmRKNS_11sc_unsignedE
605b7a28 T __ZN5sc_dteqERKNS_11sc_unsignedEm
605b7abc T __ZN5sc_dtleERKNS_11sc_unsignedEm
605b7afc T __ZN5sc_dtgtERKNS_11sc_unsignedEm
605b7b18 T __ZN5sc_dtneERKNS_11sc_unsignedEm
605b7b34 T __ZN5sc_dteqElRKNS_11sc_unsignedE
605b7bd4 T __ZN5sc_dtleElRKNS_11sc_unsignedE
605b7c14 T __ZN5sc_dtgtElRKNS_11sc_unsignedE
605b7c30 T __ZN5sc_dtneElRKNS_11sc_unsignedE
605b7c4c T __ZN5sc_dteqERKNS_11sc_unsignedEl
605b7cec T __ZN5sc_dtleERKNS_11sc_unsignedEl
605b7d2c T __ZN5sc_dtgtERKNS_11sc_unsignedEl
605b7d48 T __ZN5sc_dtneERKNS_11sc_unsignedEl
605b7d64 T __ZN5sc_dteqEyRKNS_11sc_unsignedE
605b7e04 T __ZN5sc_dtleEyRKNS_11sc_unsignedE
605b7e4c T __ZN5sc_dtgtEyRKNS_11sc_unsignedE
605b7e68 T __ZN5sc_dtgtERKNS_12sc_uint_baseERKNS_11sc_unsignedE
605b7e84 T __ZN5sc_dtleERKNS_12sc_uint_baseERKNS_11sc_unsignedE
605b7ea0 T __ZN5sc_dtneEyRKNS_11sc_unsignedE
605b7ebc T __ZN5sc_dtneERKNS_12sc_uint_baseERKNS_11sc_unsignedE
605b7ed8 T __ZN5sc_dteqERKNS_12sc_uint_baseERKNS_11sc_unsignedE
605b7ef4 T __ZN5sc_dteqERKNS_11sc_unsignedEy
605b7f94 T __ZN5sc_dtleERKNS_11sc_unsignedEy
605b7fdc T __ZN5sc_dtgtERKNS_11sc_unsignedEy
605b7ff8 T __ZN5sc_dtgtERKNS_11sc_unsignedERKNS_12sc_uint_baseE
605b8014 T __ZN5sc_dtleERKNS_11sc_unsignedERKNS_12sc_uint_baseE
605b8030 T __ZN5sc_dtneERKNS_11sc_unsignedEy
605b804c T __ZN5sc_dtneERKNS_11sc_unsignedERKNS_12sc_uint_baseE
605b8068 T __ZN5sc_dteqERKNS_11sc_unsignedERKNS_12sc_uint_baseE
605b8084 T __ZN5sc_dteqExRKNS_11sc_unsignedE
605b813c T __ZN5sc_dtleExRKNS_11sc_unsignedE
605b8184 T __ZN5sc_dtgtExRKNS_11sc_unsignedE
605b81a0 T __ZN5sc_dtgtERKNS_11sc_int_baseERKNS_11sc_unsignedE
605b81bc T __ZN5sc_dtleERKNS_11sc_int_baseERKNS_11sc_unsignedE
605b81d8 T __ZN5sc_dtneExRKNS_11sc_unsignedE
605b81f4 T __ZN5sc_dtneERKNS_11sc_int_baseERKNS_11sc_unsignedE
605b8210 T __ZN5sc_dteqERKNS_11sc_int_baseERKNS_11sc_unsignedE
605b822c T __ZN5sc_dteqERKNS_11sc_unsignedEx
605b82e4 T __ZN5sc_dtleERKNS_11sc_unsignedEx
605b832c T __ZN5sc_dtgtERKNS_11sc_unsignedEx
605b8348 T __ZN5sc_dtgtERKNS_11sc_unsignedERKNS_11sc_int_baseE
605b8364 T __ZN5sc_dtleERKNS_11sc_unsignedERKNS_11sc_int_baseE
605b8380 T __ZN5sc_dtneERKNS_11sc_unsignedEx
605b839c T __ZN5sc_dtneERKNS_11sc_unsignedERKNS_11sc_int_baseE
605b83b8 T __ZN5sc_dteqERKNS_11sc_unsignedERKNS_11sc_int_baseE
605b83d4 T __ZN5sc_dteqERKNS_9sc_signedERKNS_11sc_unsignedE
605b8420 T __ZN5sc_dtleERKNS_9sc_signedERKNS_11sc_unsignedE
605b8460 T __ZN5sc_dtgtERKNS_9sc_signedERKNS_11sc_unsignedE
605b847c T __ZN5sc_dtneERKNS_9sc_signedERKNS_11sc_unsignedE
605b8498 T __ZN5sc_dteqERKNS_11sc_unsignedERKNS_9sc_signedE
605b84e4 T __ZN5sc_dtleERKNS_11sc_unsignedERKNS_9sc_signedE
605b8524 T __ZN5sc_dtgtERKNS_11sc_unsignedERKNS_9sc_signedE
605b8540 T __ZN5sc_dtneERKNS_11sc_unsignedERKNS_9sc_signedE
605b855c T __ZN5sc_dteqERKNS_11sc_unsignedES2_
605b85ac T __ZN5sc_dtleERKNS_11sc_unsignedES2_
605b85ec T __ZN5sc_dtgtERKNS_11sc_unsignedES2_
605b8608 T __ZN5sc_dtneERKNS_11sc_unsignedES2_
605b8624 T __ZN5sc_dt11sc_unsignedrMERKNS_9sc_signedE
605b86b0 T __ZN5sc_dt11sc_unsignedrMERKS0_
605b873c T __ZN5sc_dt11sc_unsigneddVERKNS_9sc_signedE
605b87dc T __ZN5sc_dt11sc_unsigneddVERKS0_
605b887c T __ZN5sc_dt11sc_unsignedaSEx
605b89e8 T __ZN5sc_dt11sc_unsignedaSERKNS_11sc_int_baseE
605b8a00 T __ZThn4_N5sc_dt11sc_unsigned10concat_setExi
605b8a08 T __ZN5sc_dt11sc_unsigned10concat_setExi
605b8a54 T __ZN5sc_dt11sc_unsignedaSEl
605b8b84 T __ZN5sc_dt11sc_unsignedaSEy
605b8c88 T __ZN5sc_dt11sc_unsignedaSERKNS_12sc_uint_baseE
605b8ca0 T __ZThn4_N5sc_dt11sc_unsigned10concat_setEyi
605b8ca8 T __ZN5sc_dt11sc_unsigned10concat_setEyi
605b8cf0 T __ZN5sc_dt11sc_unsignedmIEm
605b8e04 T __ZN5sc_dt11sc_unsignedmIEl
605b8f4c T __ZN5sc_dt11sc_unsignedmIEy
605b90b4 T __ZN5sc_dt11sc_unsignedmIERKNS_12sc_uint_baseE
605b90d0 T __ZN5sc_dt11sc_unsignedmIEx
605b9248 T __ZN5sc_dt11sc_unsignedmIERKNS_11sc_int_baseE
605b9264 T __ZN5sc_dt11sc_unsignedmIERKNS_9sc_signedE
605b943c T __ZN5sc_dt11sc_unsignedmIERKS0_
605b9614 T __ZN5sc_dt11sc_unsignedpLEm
605b9724 T __ZN5sc_dt11sc_unsignedpLEl
605b9864 T __ZN5sc_dt11sc_unsignedpLEy
605b99c0 T __ZN5sc_dt11sc_unsignedpLERKNS_12sc_uint_baseE
605b99dc T __ZN5sc_dt11sc_unsignedpLEx
605b9b48 T __ZN5sc_dt11sc_unsignedpLERKNS_11sc_int_baseE
605b9b64 T __ZN5sc_dt11sc_unsignedpLERKNS_9sc_signedE
605b9c58 T __ZN5sc_dt11sc_unsignedpLERKS0_
605b9d4c T __ZN5sc_dt11sc_unsignedaSEd
605b9ec8 T __ZN5sc_dt11sc_unsignedC1EciiPjb
605b9fc4 T __ZN5sc_dtcoERKNS_11sc_unsignedE
605ba0a0 T __ZN5sc_dt19mul_unsigned_friendEciiPKjiiS1_
605ba258 T __ZN5sc_dt11sc_unsignedC2EciiPjb
605ba354 T __ZN5sc_dt11sc_unsignedC1ERKNS_9sc_signedEc
605ba4f4 T __ZThn4_N5sc_dt11sc_unsigned10concat_setERKNS_9sc_signedEi
605ba4fc T __ZN5sc_dt11sc_unsigned10concat_setERKNS_9sc_signedEi
605ba598 T __ZN5sc_dt11sc_unsignedC2ERKNS_9sc_signedEc
605ba738 T __ZN5sc_dt11sc_unsignedC1ERKS0_c
605ba7c8 T __ZN5sc_dt11sc_unsignedC2ERKS0_c
605ba858 T __ZN5sc_dt11sc_unsignedC2ERKNS_16sc_uint_subref_rE
605baa5c T __ZN5sc_dt11sc_unsignedC1ERKNS_15sc_int_subref_rE
605bab98 T __ZN5sc_dt11sc_unsignedC2ERKNS_15sc_int_subref_rE
605bacd4 T __ZN5sc_dt11sc_unsignedC1ERKNS_9sc_signedE
605bae74 T __ZN5sc_dt11sc_unsignedC2ERKNS_9sc_signedE
605bb014 T __ZN5sc_dt11sc_unsignedC1ERKS0_
605bb0a4 T __ZN5sc_dtrsERKNS_11sc_unsignedEm
605bb244 T __ZN5sc_dtrsERKNS_11sc_unsignedEl
605bb288 T __ZN5sc_dtrsERKNS_11sc_unsignedEy
605bb2d0 T __ZN5sc_dtrsERKNS_11sc_unsignedERKNS_12sc_uint_baseE
605bb2f8 T __ZN5sc_dtrsERKNS_11sc_unsignedEx
605bb348 T __ZN5sc_dtrsERKNS_11sc_unsignedERKNS_11sc_int_baseE
605bb370 T __ZN5sc_dtrsERKNS_11sc_unsignedES2_
605bb3b8 T __ZN5sc_dtpsERKNS_11sc_unsignedE
605bb3d4 T __ZN5sc_dtrsERKNS_11sc_unsignedERKNS_9sc_signedE
605bb424 T __ZN5sc_dt11sc_unsignedC2ERKS0_
605bb4b4 T __ZN5sc_dt11sc_unsignedC1Ei
605bb5ac t __Z41__static_initialization_and_destruction_0ii
605bb964 t __GLOBAL__I__ZN7sc_core12sc_temp_heapE
605bb978 T __ZN5sc_dt19mod_unsigned_friendEciiPKjiiS1_
605bbedc T __ZN5sc_dt19div_unsigned_friendEciiPKjiiS1_
605bc1cc T __ZN5sc_dt19add_unsigned_friendEciiPKjciiS1_
605bc51c T __ZN5sc_dtplEmRKNS_11sc_unsignedE
605bc5c0 T __ZN5sc_dtplERKNS_11sc_unsignedEm
605bc664 T __ZN5sc_dtplEyRKNS_11sc_unsignedE
605bc768 T __ZN5sc_dtplERKNS_12sc_uint_baseERKNS_11sc_unsignedE
605bc790 T __ZN5sc_dtplERKNS_11sc_unsignedEy
605bc894 T __ZN5sc_dtplERKNS_11sc_unsignedERKNS_12sc_uint_baseE
605bc8bc T __ZN5sc_dtplERKNS_11sc_unsignedES2_
605bc93c T __ZN5sc_dtrmEmRKNS_11sc_unsignedE
605bcb18 T __ZN5sc_dtrmERKNS_11sc_unsignedEm
605bccf4 T __ZN5sc_dtrmEyRKNS_11sc_unsignedE
605bcf1c T __ZN5sc_dtrmERKNS_12sc_uint_baseERKNS_11sc_unsignedE
605bcf44 T __ZN5sc_dtrmERKNS_11sc_unsignedEy
605bd16c T __ZN5sc_dtrmERKNS_11sc_unsignedERKNS_12sc_uint_baseE
605bd194 T __ZN5sc_dtrmERKNS_11sc_unsignedES2_
605bd34c T __ZN5sc_dtdvEmRKNS_11sc_unsignedE
605bd554 T __ZN5sc_dtdvERKNS_11sc_unsignedEm
605bd770 T __ZN5sc_dtdvEyRKNS_11sc_unsignedE
605bd984 T __ZN5sc_dtdvERKNS_12sc_uint_baseERKNS_11sc_unsignedE
605bd9ac T __ZN5sc_dtdvERKNS_11sc_unsignedEy
605bdbd4 T __ZN5sc_dtdvERKNS_11sc_unsignedERKNS_12sc_uint_baseE
605bdbfc T __ZN5sc_dtdvERKNS_11sc_unsignedES2_
605bddc4 T __ZN5sc_dtmlEmRKNS_11sc_unsignedE
605bdfa8 T __ZN5sc_dtmlERKNS_11sc_unsignedEm
605be18c T __ZN5sc_dtmlEyRKNS_11sc_unsignedE
605be37c T __ZN5sc_dtmlERKNS_12sc_uint_baseERKNS_11sc_unsignedE
605be3a4 T __ZN5sc_dtmlERKNS_11sc_unsignedEy
605be594 T __ZN5sc_dtmlERKNS_11sc_unsignedERKNS_12sc_uint_baseE
605be5bc T __ZN5sc_dtmlERKNS_11sc_unsignedES2_
605be750 T __ZN5sc_dt11sc_unsignedC2Ei
605be848 T __ZN5sc_dt11sc_unsignedC1EPKNS_9sc_signedEii
605beca0 T __ZN5sc_dt11sc_unsignedC2EPKNS_9sc_signedEii
605bf0f8 T __ZN5sc_dt11sc_unsignedC1EPKS0_ii
605bf55c T __ZNK5sc_dt20sc_unsigned_subref_rcvNS_11sc_unsignedEEv
605bf584 T __ZN5sc_dt11sc_unsignedC2EPKS0_ii
605bf9e8 T __ZN5sc_dt11sc_unsigned14set_packed_repEPj
605bfb28 T __ZN5sc_dt11sc_unsigned7reverseEv
605bfbf0 T __ZN5sc_dt11sc_unsigned5clearEi
605bfcd8 T __ZN5sc_dt18sc_unsigned_bitrefaNEb
605bfcfc T __ZN5sc_dt11sc_unsigned3setEi
605bfde8 T __ZN5sc_dt18sc_unsigned_bitrefoREb
605bfe0c T __ZN5sc_dt18sc_unsigned_bitrefeOEb
605bfe68 T __ZN5sc_dt11sc_unsignedrSEm
605bff44 T __ZN5sc_dt11sc_unsignedrSEl
605bff5c T __ZN5sc_dt11sc_unsignedrSERKS0_
605bff8c T __ZN5sc_dt11sc_unsignedrSEy
605bffb0 T __ZN5sc_dt11sc_unsignedrSERKNS_12sc_uint_baseE
605bffcc T __ZN5sc_dt11sc_unsignedrSEx
605bfff8 T __ZN5sc_dt11sc_unsignedrSERKNS_11sc_int_baseE
605c0014 T __ZN5sc_dt11sc_unsignedrSERKNS_9sc_signedE
605c0050 T __ZN5sc_dt11sc_unsignedlSEm
605c011c T __ZN5sc_dt11sc_unsignedlSEl
605c0134 T __ZN5sc_dt11sc_unsignedlSEy
605c0158 T __ZN5sc_dt11sc_unsignedlSERKNS_12sc_uint_baseE
605c0174 T __ZN5sc_dt11sc_unsignedlSEx
605c01a0 T __ZN5sc_dt11sc_unsignedlSERKNS_11sc_int_baseE
605c01bc T __ZN5sc_dt11sc_unsignedlSERKNS_9sc_signedE
605c01f8 T __ZN5sc_dt11sc_unsignedlSERKS0_
605c0230 T __ZN5sc_dt11sc_unsignedeOEm
605c0308 T __ZN5sc_dt11sc_unsignedeOEl
605c0410 T __ZN5sc_dt11sc_unsignedaSERKNS_10sc_lv_baseE
605c05f8 T __ZN5sc_dt11sc_unsignedC1ERKNS_10sc_lv_baseE
605c0700 T __ZN5sc_dt11sc_unsignedC2ERKNS_10sc_lv_baseE
605c0808 T __ZN5sc_dt11sc_unsignedaSERKNS_10sc_bv_baseE
605c0970 T __ZN5sc_dt11sc_unsignedC1ERKNS_10sc_bv_baseE
605c0a74 T __ZN5sc_dt11sc_unsignedC2ERKNS_10sc_bv_baseE
605c0b78 T __ZN5sc_dt11sc_unsignedeOEy
605c0ca4 T __ZN5sc_dt11sc_unsignedeOERKNS_12sc_uint_baseE
605c0cc0 T __ZN5sc_dt11sc_unsignedeOEx
605c0df0 T __ZN5sc_dt11sc_unsignedeOERKNS_11sc_int_baseE
605c0e0c T __ZN5sc_dt11sc_unsignedeOERKNS_9sc_signedE
605c0eb0 T __ZN5sc_dt11sc_unsignedeOERKS0_
605c0f54 T __ZN5sc_dt11sc_unsignedoREm
605c102c T __ZN5sc_dt11sc_unsignedoREl
605c1134 T __ZN5sc_dt11sc_unsignedoREy
605c1254 T __ZN5sc_dt11sc_unsignedoRERKNS_12sc_uint_baseE
605c1270 T __ZN5sc_dt11sc_unsignedoREx
605c13a0 T __ZN5sc_dt11sc_unsignedoRERKNS_11sc_int_baseE
605c13bc T __ZN5sc_dt11sc_unsignedoRERKNS_9sc_signedE
605c1460 T __ZN5sc_dt11sc_unsignedoRERKS0_
605c1504 T __ZN5sc_dt11sc_unsignedaNEm
605c15f0 T __ZN5sc_dt11sc_unsignedaNEl
605c170c T __ZN5sc_dt11sc_unsignedaNEy
605c1838 T __ZN5sc_dt11sc_unsignedaNERKNS_12sc_uint_baseE
605c1854 T __ZN5sc_dt11sc_unsignedaNEx
605c1990 T __ZN5sc_dt11sc_unsignedaNERKNS_11sc_int_baseE
605c19ac T __ZN5sc_dt11sc_unsignedaNERKNS_9sc_signedE
605c1a70 T __ZN5sc_dt11sc_unsignedC1ERKNS_16sc_uint_subref_rE
605c1c74 T __ZNK5sc_dt11sc_unsigned9to_stringENS_9sc_numrepEb
605c1e54 T __ZNK5sc_dt11sc_unsigned17mti_get_dpi_valueEPv
605c1f7c T __ZN5sc_dt11sc_unsigned13mti_get_valueEv
605c2174 T __ZNK5sc_dt11sc_unsigned9to_stringENS_9sc_numrepE
605c234c T __ZN5sc_dtlsERKNS_11sc_unsignedEm
605c2568 T __ZN5sc_dtlsERKNS_11sc_unsignedEl
605c25ac T __ZN5sc_dtlsERKNS_11sc_unsignedEy
605c25f4 T __ZN5sc_dtlsERKNS_11sc_unsignedERKNS_12sc_uint_baseE
605c261c T __ZN5sc_dtlsERKNS_11sc_unsignedEx
605c266c T __ZN5sc_dtlsERKNS_11sc_unsignedERKNS_11sc_int_baseE
605c2694 T __ZN5sc_dtlsERKNS_11sc_unsignedES2_
605c26e4 T __ZN5sc_dtlsERKNS_11sc_unsignedERKNS_9sc_signedE
605c2734 T __ZN5sc_dt19xor_unsigned_friendEciiPKjciiS1_
605c2aa0 T __ZN5sc_dteoEmRKNS_11sc_unsignedE
605c2b44 T __ZN5sc_dteoERKNS_11sc_unsignedEm
605c2be8 T __ZN5sc_dteoEyRKNS_11sc_unsignedE
605c2cec T __ZN5sc_dteoERKNS_12sc_uint_baseERKNS_11sc_unsignedE
605c2d14 T __ZN5sc_dteoERKNS_11sc_unsignedEy
605c2e18 T __ZN5sc_dteoERKNS_11sc_unsignedERKNS_12sc_uint_baseE
605c2e40 T __ZN5sc_dteoERKNS_11sc_unsignedES2_
605c2ec0 T __ZN5sc_dt18or_unsigned_friendEciiPKjciiS1_
605c3228 T __ZN5sc_dtorEmRKNS_11sc_unsignedE
605c32cc T __ZN5sc_dtorERKNS_11sc_unsignedEm
605c3370 T __ZN5sc_dtorEyRKNS_11sc_unsignedE
605c3474 T __ZN5sc_dtorERKNS_12sc_uint_baseERKNS_11sc_unsignedE
605c349c T __ZN5sc_dtorERKNS_11sc_unsignedEy
605c35a0 T __ZN5sc_dtorERKNS_11sc_unsignedERKNS_12sc_uint_baseE
605c35c8 T __ZN5sc_dtorERKNS_11sc_unsignedES2_
605c3648 T __ZN5sc_dt19and_unsigned_friendEciiPKjciiS1_
605c39b0 T __ZN5sc_dtanEmRKNS_11sc_unsignedE
605c3b58 T __ZN5sc_dtanERKNS_11sc_unsignedEm
605c3d04 T __ZN5sc_dtanEyRKNS_11sc_unsignedE
605c3f00 T __ZN5sc_dtanERKNS_12sc_uint_baseERKNS_11sc_unsignedE
605c3f28 T __ZN5sc_dtanERKNS_11sc_unsignedEy
605c4120 T __ZN5sc_dtanERKNS_11sc_unsignedERKNS_12sc_uint_baseE
605c4148 T __ZN5sc_dtanERKNS_11sc_unsignedES2_
605c42cc T __ZNK5sc_dt11sc_unsigned4dumpERSo
605c44d8 T __ZN5sc_dt11sc_unsignedmmEi
605c4594 T __ZN5sc_dt11sc_unsignedmmEv
605c45f4 T __ZN5sc_dt11sc_unsignedppEi
605c46b0 T __ZN5sc_dt11sc_unsignedppEv
605c4710 T __ZN5sc_dt18sc_unsigned_bitrefaSERKNS_20sc_unsigned_bitref_rE
605c475c T __ZN5sc_dt11sc_unsigned17mti_set_dpi_valueEPv
605c47b8 T __ZN5sc_dt18sc_unsigned_bitref10concat_setEyi
605c4834 T __ZN5sc_dt18sc_unsigned_bitref10concat_setERKNS_11sc_unsignedEi
605c4894 T __ZN5sc_dt18sc_unsigned_bitref10concat_setERKNS_9sc_signedEi
605c48f4 T __ZN5sc_dt18sc_unsigned_bitref10concat_setExi
605c496c T __ZN5sc_dt18sc_unsigned_bitrefaSEb
605c49a0 T __ZN5sc_dt18sc_unsigned_bitref4scanERSi
605c49c4 T __ZN5sc_dt11sc_unsignedaSEPKc
605c4dec T __ZN5sc_dt11sc_unsigned4scanERSi
605c4ec8 T __ZN5sc_dt18sc_unsigned_bitrefaSERKS0_
605c4f14 T __ZN5sc_dt11sc_unsigned13mti_set_valueEPv
605c4f58 T __ZN5sc_dt18sc_unsigned_subref10concat_setEyi
605c5048 T __ZN5sc_dt18sc_unsigned_subref10concat_setERKNS_11sc_unsignedEi
605c50f4 T __ZN5sc_dt18sc_unsigned_subref10concat_setERKNS_9sc_signedEi
605c5208 T __ZN5sc_dt18sc_unsigned_subref10concat_setExi
605c5310 T __ZN5sc_dt18sc_unsigned_subrefaSEd
605c5490 T __ZN5sc_dt18sc_unsigned_subrefaSEx
605c5500 T __ZN5sc_dt18sc_unsigned_subrefaSERKNS_11sc_int_baseE
605c5518 T __ZN5sc_dt18sc_unsigned_subrefaSEy
605c5584 T __ZN5sc_dt18sc_unsigned_subrefaSERKNS_12sc_uint_baseE
605c559c T __ZN5sc_dt18sc_unsigned_subrefaSEl
605c55ec T __ZN5sc_dt18sc_unsigned_subrefaSEm
605c563c T __ZN5sc_dt18sc_unsigned_subrefaSERKNS_9sc_signedE
605c56c4 T __ZN5sc_dt18sc_unsigned_subrefaSERKNS_11sc_unsignedE
605c5770 T __ZN5sc_dt11sc_unsignedC2ERKNS_20sc_unsigned_subref_rE
605c58e8 T __ZN5sc_dt11sc_unsignedC1ERKNS_18sc_signed_subref_rE
605c5a60 T __ZN5sc_dt11sc_unsignedC2ERKNS_18sc_signed_subref_rE
605c5bd8 T __ZThn4_N5sc_dt11sc_unsigned10concat_setERKS0_i
605c5be0 T __ZN5sc_dt11sc_unsigned10concat_setERKS0_i
605c5c68 T __ZN5sc_dt18sc_unsigned_subref4scanERSi
605c5e1c T __ZN5sc_dt18sc_unsigned_subrefaSERKNS_18sc_signed_subref_rE
605c5ec8 T __ZNK5sc_dt20sc_unsigned_subref_r9to_doubleEv
605c5f34 T __ZNK5sc_dt20sc_unsigned_subref_r9to_uint64Ev
605c5fec T __ZNK5sc_dt20sc_unsigned_subref_r8to_int64Ev
605c6060 T __ZNK5sc_dt20sc_unsigned_subref_r8to_ulongEv
605c6110 T __ZNK5sc_dt20sc_unsigned_subref_r7to_longEv
605c617c T __ZNK5sc_dt20sc_unsigned_subref_r7to_uintEv
605c622c T __ZNK5sc_dt20sc_unsigned_subref_r6to_intEv
605c6298 T __ZNK5sc_dt20sc_unsigned_subref_r15concat_get_dataEPji
605c630c T __ZNK5sc_dt20sc_unsigned_subref_r15concat_get_ctrlEPji
605c6380 T __ZNK5sc_dt20sc_unsigned_subref_r17concat_get_uint64Ev
605c6438 T __ZN5sc_dt11sc_unsignedaSERKNS_18sc_signed_subref_rE
605c649c T __ZN5sc_dt11sc_unsignedC1ERKNS_20sc_unsigned_subref_rE
605c6614 T __ZN5sc_dt18sc_unsigned_subrefaSERKS0_
605c66d0 T __ZN5sc_dt18sc_unsigned_subrefaSERKNS_20sc_unsigned_subref_rE
605c677c T __ZN5sc_dt11sc_unsignedaSERKNS_20sc_unsigned_subref_rE
605c67e0 T __ZNK5sc_dt20sc_unsigned_subref_r9to_stringENS_9sc_numrepEb
605c68c0 T __ZNK5sc_dt20sc_unsigned_subref_r9to_stringENS_9sc_numrepE
605c69a0 t .text
605c69a0 T __ZThn4_NK5sc_dt9sc_signed15concat_get_ctrlEPji
605c69a8 T __ZNK5sc_dt9sc_signed15concat_get_ctrlEPji
605c6a34 T __ZThn4_NK5sc_dt9sc_signed15concat_get_dataEPji
605c6a3c T __ZNK5sc_dt9sc_signed15concat_get_dataEPji
605c6f58 T __ZThn4_NK5sc_dt9sc_signed17concat_get_uint64Ev
605c6f60 T __ZNK5sc_dt9sc_signed17concat_get_uint64Ev
605c7094 T __ZNK5sc_dt9sc_signed10and_reduceEv
605c714c T __ZNK5sc_dt9sc_signed9or_reduceEv
605c7160 T __ZNK5sc_dt9sc_signed6iszeroEv
605c71a0 T __ZNK5sc_dt9sc_signed7to_longEv
605c71fc T __ZNK5sc_dt9sc_signed9to_doubleEv
605c7264 T __ZNK5sc_dt9sc_signed16check_if_outsideEi
605c7284 T __ZNK5sc_dt9sc_signed8to_int64Ev
605c7300 t ___tcf_2
605c7368 t ___tcf_1
605c73d0 t __Z41__static_initialization_and_destruction_0ii
605c7530 t __GLOBAL__I__ZN5sc_dt16sc_signed_bitref6m_poolE
605c7544 T __ZNK5sc_dt9sc_signed4testEi
605c764c T __ZNK5sc_dt18sc_signed_bitref_rcoEv
605c7668 T __ZNK5sc_dt18sc_signed_bitref_rntEv
605c7684 T __ZNK5sc_dt18sc_signed_bitref_rcvyEv
605c76a0 T __ZNK5sc_dt9sc_signed10xor_reduceEv
605c76ec t ___tcf_0
605c7704 T __ZN5sc_dteqERKNS_9sc_signedEx
605c7830 T __ZN5sc_dtneERKNS_9sc_signedEx
605c784c T __ZNK5sc_dt18sc_signed_subref_rcvNS_11sc_unsignedEEv
605c7874 T __ZN5sc_dt9sc_signedmLEy
605c7938 T __ZN5sc_dt9sc_signedmLEx
605c7a3c T __ZNK5sc_dt9sc_signed13invalid_rangeEii
605c7a88 T __ZNK5sc_dt9sc_signed13invalid_indexEi
605c7ad0 T __ZN5sc_dtneERKNS_9sc_signedERKNS_11sc_int_baseE
605c7aec T __ZN5sc_dteqERKNS_9sc_signedERKNS_11sc_int_baseE
605c7b08 T __ZN5sc_dt9sc_signedmLERKNS_11sc_int_baseE
605c7b24 T __ZN5sc_dt9sc_signedmLERKNS_12sc_uint_baseE
605c7b40 T __ZN5sc_dt9sc_signed18mti_get_value_typeEv
605c7b58 T __ZN5sc_dt9sc_signed18mti_get_value_sizeEPiS1_S1_
605c7b7c T __ZN5sc_dt9sc_signedmLERKS0_
605c7bf0 T __ZNK5sc_dt9sc_signed6to_intEv
605c7c4c T __ZN5sc_dt9sc_signedmLERKNS_11sc_unsignedE
605c7cc0 T __ZNK5sc_dt9sc_signed9to_uint64Ev
605c7e84 T __ZN5sc_dt9sc_signedmLEm
605c7f38 T __ZN5sc_dt9sc_signedmLEl
605c8004 T __ZNK5sc_dt9sc_signed14get_packed_repEPj
605c81b0 T __ZNK5sc_dt9sc_signed4signEv
605c8204 T __ZN5sc_dt9sc_signedrMEy
605c82f8 T __ZN5sc_dt9sc_signedrMERKNS_12sc_uint_baseE
605c8314 T __ZN5sc_dt9sc_signeddVEy
605c840c T __ZN5sc_dt9sc_signeddVERKNS_12sc_uint_baseE
605c8428 T __ZN5sc_dt9sc_signedrMEm
605c84cc T __ZN5sc_dt9sc_signeddVEm
605c85a8 T __ZN5sc_dt9sc_signedrMEx
605c86c8 T __ZN5sc_dt9sc_signedrMERKNS_11sc_int_baseE
605c86e4 T __ZN5sc_dt9sc_signeddVEx
605c8828 T __ZN5sc_dt9sc_signeddVERKNS_11sc_int_baseE
605c8844 T __ZNK5sc_dt9sc_signed7to_uintEv
605c8984 T __ZNK5sc_dt9sc_signed8to_ulongEv
605c8ac4 T __ZN5sc_dt9sc_signedrMEl
605c8bb8 T __ZN5sc_dt9sc_signeddVEl
605c8cbc T __ZN5sc_dt9sc_signedC1EciiPjb
605c8da4 T __ZN5sc_dtcoERKNS_9sc_signedE
605c8e80 T __ZN5sc_dt17mul_signed_friendEciiPKjiiS1_
605c9038 T __ZN5sc_dt9sc_signedC2EciiPjb
605c9120 T __ZN5sc_dt9sc_signedC1ERKS0_c
605c91a4 T __ZN5sc_dtngERKNS_9sc_signedE
605c91cc T __ZN5sc_dt9sc_signedC2ERKS0_c
605c9250 T __ZN5sc_dt9sc_signedC1ERKS0_
605c92d4 T __ZN5sc_dtpsERKNS_9sc_signedE
605c92f0 T __ZN5sc_dt9sc_signedC2ERKS0_
605c9374 T __ZN5sc_dt9sc_signedC1Ei
605c945c T __ZN5sc_dtmlERKNS_9sc_signedES2_
605c95f0 T __ZN5sc_dt9sc_signedC2Ei
605c96d8 T __ZN5sc_dt9sc_signedrMERKNS_11sc_unsignedE
605c9764 T __ZN5sc_dt9sc_signedrMERKS0_
605c97f0 T __ZN5sc_dt9sc_signeddVERKNS_11sc_unsignedE
605c9890 T __ZN5sc_dt9sc_signeddVERKS0_
605c9930 T __ZNK5sc_dt9sc_signed9to_stringENS_9sc_numrepE
605c9b08 T __ZNK5sc_dt9sc_signed9to_stringENS_9sc_numrepEb
605c9ce8 T __ZNK5sc_dt9sc_signed17mti_get_dpi_valueEPv
605c9e24 T __ZN5sc_dt9sc_signed13mti_get_valueEv
605ca010 T __ZNK5sc_dt9sc_signed4dumpERSo
605ca218 T __ZN5sc_dtmlERKNS_9sc_signedERKNS_11sc_unsignedE
605ca3a4 T __ZN5sc_dtmlERKNS_11sc_unsignedERKNS_9sc_signedE
605ca530 T __ZN5sc_dt17mod_signed_friendEciiPKjiiS1_
605caa94 T __ZN5sc_dt17div_signed_friendEciiPKjiiS1_
605cad84 T __ZN5sc_dt17add_signed_friendEciiPKjciiS1_
605cb0d0 T __ZN5sc_dtmiEmRKNS_9sc_signedE
605cb188 T __ZN5sc_dtmiERKNS_9sc_signedEm
605cb22c T __ZN5sc_dtmiElRKNS_9sc_signedE
605cb32c T __ZN5sc_dtmiERKNS_9sc_signedEl
605cb414 T __ZN5sc_dtmiEyRKNS_9sc_signedE
605cb524 T __ZN5sc_dtmiERKNS_12sc_uint_baseERKNS_9sc_signedE
605cb54c T __ZN5sc_dtmiERKNS_9sc_signedEy
605cb650 T __ZN5sc_dtmiERKNS_9sc_signedERKNS_12sc_uint_baseE
605cb678 T __ZN5sc_dtmiExRKNS_9sc_signedE
605cb7a4 T __ZN5sc_dtmiERKNS_11sc_int_baseERKNS_9sc_signedE
605cb7cc T __ZN5sc_dtmiERKNS_9sc_signedEx
605cb8f8 T __ZN5sc_dtmiERKNS_9sc_signedERKNS_11sc_int_baseE
605cb920 T __ZN5sc_dtmiERKNS_9sc_signedES2_
605cb9a4 T __ZN5sc_dtplEmRKNS_9sc_signedE
605cba48 T __ZN5sc_dtplERKNS_9sc_signedEm
605cbaec T __ZN5sc_dtplElRKNS_9sc_signedE
605cbbe0 T __ZN5sc_dtplERKNS_9sc_signedEl
605cbcd4 T __ZN5sc_dtplEyRKNS_9sc_signedE
605cbdd8 T __ZN5sc_dtplERKNS_12sc_uint_baseERKNS_9sc_signedE
605cbe00 T __ZN5sc_dtplERKNS_9sc_signedEy
605cbf04 T __ZN5sc_dtplERKNS_9sc_signedERKNS_12sc_uint_baseE
605cbf2c T __ZN5sc_dtplExRKNS_9sc_signedE
605cc050 T __ZN5sc_dtplERKNS_11sc_int_baseERKNS_9sc_signedE
605cc078 T __ZN5sc_dtplERKNS_9sc_signedEx
605cc19c T __ZN5sc_dtplERKNS_9sc_signedERKNS_11sc_int_baseE
605cc1c4 T __ZN5sc_dtplERKNS_9sc_signedES2_
605cc244 T __ZN5sc_dtrmEmRKNS_9sc_signedE
605cc420 T __ZN5sc_dtrmERKNS_9sc_signedEm
605cc5fc T __ZN5sc_dtrmElRKNS_11sc_unsignedE
605cc7f0 T __ZN5sc_dtrmERKNS_11sc_unsignedEl
605cca10 T __ZN5sc_dtrmElRKNS_9sc_signedE
605ccc04 T __ZN5sc_dtrmERKNS_9sc_signedEl
605cce24 T __ZN5sc_dtrmEyRKNS_9sc_signedE
605cd04c T __ZN5sc_dtrmERKNS_12sc_uint_baseERKNS_9sc_signedE
605cd074 T __ZN5sc_dtrmERKNS_9sc_signedEy
605cd29c T __ZN5sc_dtrmERKNS_9sc_signedERKNS_12sc_uint_baseE
605cd2c4 T __ZN5sc_dtrmExRKNS_11sc_unsignedE
605cd4f0 T __ZN5sc_dtrmERKNS_11sc_int_baseERKNS_11sc_unsignedE
605cd518 T __ZN5sc_dtrmERKNS_11sc_unsignedEx
605cd768 T __ZN5sc_dtrmERKNS_11sc_unsignedERKNS_11sc_int_baseE
605cd790 T __ZN5sc_dtrmExRKNS_9sc_signedE
605cd9bc T __ZN5sc_dtrmERKNS_11sc_int_baseERKNS_9sc_signedE
605cd9e4 T __ZN5sc_dtrmERKNS_9sc_signedEx
605cdc34 T __ZN5sc_dtrmERKNS_9sc_signedERKNS_11sc_int_baseE
605cdc5c T __ZN5sc_dtrmERKNS_9sc_signedES2_
605cde10 T __ZN5sc_dtrmERKNS_9sc_signedERKNS_11sc_unsignedE
605cdfc4 T __ZN5sc_dtrmERKNS_11sc_unsignedERKNS_9sc_signedE
605ce17c T __ZN5sc_dtdvEmRKNS_9sc_signedE
605ce384 T __ZN5sc_dtdvERKNS_9sc_signedEm
605ce5a0 T __ZN5sc_dtdvElRKNS_11sc_unsignedE
605ce7c8 T __ZN5sc_dtdvERKNS_11sc_unsignedEl
605cea04 T __ZN5sc_dtdvElRKNS_9sc_signedE
605cec34 T __ZN5sc_dtdvERKNS_9sc_signedEl
605cee74 T __ZN5sc_dtdvEyRKNS_9sc_signedE
605cf088 T __ZN5sc_dtdvERKNS_12sc_uint_baseERKNS_9sc_signedE
605cf0b0 T __ZN5sc_dtdvERKNS_9sc_signedEy
605cf2d8 T __ZN5sc_dtdvERKNS_9sc_signedERKNS_12sc_uint_baseE
605cf300 T __ZN5sc_dtdvExRKNS_11sc_unsignedE
605cf554 T __ZN5sc_dtdvERKNS_11sc_int_baseERKNS_11sc_unsignedE
605cf57c T __ZN5sc_dtdvERKNS_11sc_unsignedEx
605cf7e0 T __ZN5sc_dtdvERKNS_11sc_unsignedERKNS_11sc_int_baseE
605cf808 T __ZN5sc_dtdvExRKNS_9sc_signedE
605cfa60 T __ZN5sc_dtdvERKNS_11sc_int_baseERKNS_9sc_signedE
605cfa88 T __ZN5sc_dtdvERKNS_9sc_signedEx
605cfcec T __ZN5sc_dtdvERKNS_9sc_signedERKNS_11sc_int_baseE
605cfd14 T __ZN5sc_dtdvERKNS_9sc_signedES2_
605cfed8 T __ZN5sc_dtdvERKNS_9sc_signedERKNS_11sc_unsignedE
605d009c T __ZN5sc_dtdvERKNS_11sc_unsignedERKNS_9sc_signedE
605d0264 T __ZN5sc_dtmlEmRKNS_9sc_signedE
605d0448 T __ZN5sc_dtmlERKNS_9sc_signedEm
605d062c T __ZN5sc_dtmlElRKNS_11sc_unsignedE
605d082c T __ZN5sc_dtmlERKNS_11sc_unsignedEl
605d0a2c T __ZN5sc_dtmlElRKNS_9sc_signedE
605d0c34 T __ZN5sc_dtmlERKNS_9sc_signedEl
605d0e3c T __ZN5sc_dtmlEyRKNS_9sc_signedE
605d102c T __ZN5sc_dtmlERKNS_12sc_uint_baseERKNS_9sc_signedE
605d1054 T __ZN5sc_dtmlERKNS_9sc_signedEy
605d1244 T __ZN5sc_dtmlERKNS_9sc_signedERKNS_12sc_uint_baseE
605d126c T __ZN5sc_dtmlExRKNS_11sc_unsignedE
605d1494 T __ZN5sc_dtmlERKNS_11sc_int_baseERKNS_11sc_unsignedE
605d14bc T __ZN5sc_dtmlERKNS_11sc_unsignedEx
605d16ec T __ZN5sc_dtmlERKNS_11sc_unsignedERKNS_11sc_int_baseE
605d1714 T __ZN5sc_dtmlExRKNS_9sc_signedE
605d1944 T __ZN5sc_dtmlERKNS_11sc_int_baseERKNS_9sc_signedE
605d196c T __ZN5sc_dtmlERKNS_9sc_signedEx
605d1b94 T __ZN5sc_dtmlERKNS_9sc_signedERKNS_11sc_int_baseE
605d1bbc T __ZN5sc_dtrsERKNS_9sc_signedEm
605d1d5c T __ZN5sc_dtrsERKNS_9sc_signedEl
605d1da0 T __ZN5sc_dtrsERKNS_9sc_signedES2_
605d1df0 T __ZN5sc_dtrsERKNS_9sc_signedEy
605d1e38 T __ZN5sc_dtrsERKNS_9sc_signedERKNS_12sc_uint_baseE
605d1e60 T __ZN5sc_dtrsERKNS_9sc_signedEx
605d1eb0 T __ZN5sc_dtrsERKNS_9sc_signedERKNS_11sc_int_baseE
605d1ed8 T __ZN5sc_dtrsERKNS_9sc_signedERKNS_11sc_unsignedE
605d1f28 T __ZN5sc_dtlsERKNS_9sc_signedEm
605d2144 T __ZN5sc_dtlsERKNS_9sc_signedEl
605d2188 T __ZN5sc_dtlsERKNS_9sc_signedEy
605d21d0 T __ZN5sc_dtlsERKNS_9sc_signedERKNS_12sc_uint_baseE
605d21f8 T __ZN5sc_dtlsERKNS_9sc_signedEx
605d2248 T __ZN5sc_dtlsERKNS_9sc_signedERKNS_11sc_int_baseE
605d2270 T __ZN5sc_dtlsERKNS_9sc_signedES2_
605d22c4 T __ZN5sc_dtlsERKNS_9sc_signedERKNS_11sc_unsignedE
605d2314 T __ZN5sc_dt17xor_signed_friendEciiPKjciiS1_
605d2680 T __ZN5sc_dteoEmRKNS_9sc_signedE
605d2724 T __ZN5sc_dteoERKNS_9sc_signedEm
605d27c8 T __ZN5sc_dteoElRKNS_9sc_signedE
605d28bc T __ZN5sc_dteoERKNS_9sc_signedEl
605d29b0 T __ZN5sc_dteoEyRKNS_9sc_signedE
605d2ab4 T __ZN5sc_dteoERKNS_12sc_uint_baseERKNS_9sc_signedE
605d2adc T __ZN5sc_dteoERKNS_9sc_signedEy
605d2be0 T __ZN5sc_dteoERKNS_9sc_signedERKNS_12sc_uint_baseE
605d2c08 T __ZN5sc_dteoExRKNS_9sc_signedE
605d2d2c T __ZN5sc_dteoERKNS_11sc_int_baseERKNS_9sc_signedE
605d2d54 T __ZN5sc_dteoERKNS_9sc_signedEx
605d2e78 T __ZN5sc_dteoERKNS_9sc_signedERKNS_11sc_int_baseE
605d2ea0 T __ZN5sc_dteoERKNS_9sc_signedES2_
605d2f20 T __ZN5sc_dt16or_signed_friendEciiPKjciiS1_
605d3288 T __ZN5sc_dtorEmRKNS_9sc_signedE
605d332c T __ZN5sc_dtorERKNS_9sc_signedEm
605d33d0 T __ZN5sc_dtorElRKNS_9sc_signedE
605d34c4 T __ZN5sc_dtorERKNS_9sc_signedEl
605d35b8 T __ZN5sc_dtorEyRKNS_9sc_signedE
605d36bc T __ZN5sc_dtorERKNS_12sc_uint_baseERKNS_9sc_signedE
605d36e4 T __ZN5sc_dtorERKNS_9sc_signedEy
605d37e8 T __ZN5sc_dtorERKNS_9sc_signedERKNS_12sc_uint_baseE
605d3810 T __ZN5sc_dtorExRKNS_9sc_signedE
605d3934 T __ZN5sc_dtorERKNS_11sc_int_baseERKNS_9sc_signedE
605d395c T __ZN5sc_dtorERKNS_9sc_signedEx
605d3a80 T __ZN5sc_dtorERKNS_9sc_signedERKNS_11sc_int_baseE
605d3aa8 T __ZN5sc_dtorERKNS_9sc_signedES2_
605d3b28 T __ZN5sc_dt17and_signed_friendEciiPKjciiS1_
605d3e90 T __ZN5sc_dtanEmRKNS_9sc_signedE
605d4038 T __ZN5sc_dtanERKNS_9sc_signedEm
605d41e4 T __ZN5sc_dtanElRKNS_11sc_unsignedE
605d43bc T __ZN5sc_dtanERKNS_11sc_unsignedEl
605d4590 T __ZN5sc_dtanElRKNS_9sc_signedE
605d4764 T __ZN5sc_dtanERKNS_9sc_signedEl
605d4938 T __ZN5sc_dtanEyRKNS_9sc_signedE
605d4b2c T __ZN5sc_dtanERKNS_12sc_uint_baseERKNS_9sc_signedE
605d4b54 T __ZN5sc_dtanERKNS_9sc_signedEy
605d4d4c T __ZN5sc_dtanERKNS_9sc_signedERKNS_12sc_uint_baseE
605d4d74 T __ZN5sc_dtanExRKNS_11sc_unsignedE
605d4f80 T __ZN5sc_dtanERKNS_11sc_int_baseERKNS_11sc_unsignedE
605d4fa8 T __ZN5sc_dtanERKNS_11sc_unsignedEx
605d51ac T __ZN5sc_dtanERKNS_11sc_unsignedERKNS_11sc_int_baseE
605d51d4 T __ZN5sc_dtanExRKNS_9sc_signedE
605d53d8 T __ZN5sc_dtanERKNS_11sc_int_baseERKNS_9sc_signedE
605d5400 T __ZN5sc_dtanERKNS_9sc_signedEx
605d5604 T __ZN5sc_dtanERKNS_9sc_signedERKNS_11sc_int_baseE
605d562c T __ZN5sc_dtanERKNS_9sc_signedES2_
605d57b4 T __ZN5sc_dtanERKNS_9sc_signedERKNS_11sc_unsignedE
605d593c T __ZN5sc_dtanERKNS_11sc_unsignedERKNS_9sc_signedE
605d5ac0 T __ZN5sc_dt9sc_signedaSEl
605d5c78 T __ZN5sc_dt9sc_signedC2ERKNS_11sc_unsignedE
605d5e54 T __ZN5sc_dt9sc_signedC1ERKNS_11sc_unsignedEc
605d6030 T __ZN5sc_dtngERKNS_11sc_unsignedE
605d6058 T __ZN5sc_dtmiEmRKNS_11sc_unsignedE
605d6110 T __ZN5sc_dtmiElRKNS_11sc_unsignedE
605d6210 T __ZN5sc_dtmiEyRKNS_11sc_unsignedE
605d6320 T __ZN5sc_dtmiERKNS_12sc_uint_baseERKNS_11sc_unsignedE
605d6348 T __ZN5sc_dtmiExRKNS_11sc_unsignedE
605d6474 T __ZN5sc_dtmiERKNS_11sc_int_baseERKNS_11sc_unsignedE
605d649c T __ZN5sc_dtmiERKNS_9sc_signedERKNS_11sc_unsignedE
605d6520 T __ZN5sc_dt9sc_signedC2ERKNS_11sc_unsignedEc
605d66fc T __ZN5sc_dtltElRKNS_9sc_signedE
605d68c0 T __ZN5sc_dtgeElRKNS_9sc_signedE
605d68d8 T __ZN5sc_dtltERKNS_9sc_signedEl
605d6a94 T __ZN5sc_dtgeERKNS_9sc_signedEl
605d6aac T __ZN5sc_dteqERKNS_9sc_signedES2_
605d6b44 T __ZN5sc_dtneERKNS_9sc_signedES2_
605d6b5c T __ZN5sc_dtltEmRKNS_9sc_signedE
605d6c58 T __ZN5sc_dtgeEmRKNS_9sc_signedE
605d6c70 T __ZN5sc_dtltERKNS_9sc_signedEm
605d6d68 T __ZN5sc_dtgeERKNS_9sc_signedEm
605d6d80 T __ZN5sc_dtltEyRKNS_9sc_signedE
605d6e94 T __ZN5sc_dtgeEyRKNS_9sc_signedE
605d6eb0 T __ZN5sc_dtgeERKNS_12sc_uint_baseERKNS_9sc_signedE
605d6ecc T __ZN5sc_dtltERKNS_12sc_uint_baseERKNS_9sc_signedE
605d6ee8 T __ZN5sc_dtltERKNS_9sc_signedEy
605d6ff0 T __ZN5sc_dtgeERKNS_9sc_signedEy
605d700c T __ZN5sc_dtgeERKNS_9sc_signedERKNS_12sc_uint_baseE
605d7028 T __ZN5sc_dtltERKNS_9sc_signedERKNS_12sc_uint_baseE
605d7044 T __ZN5sc_dtltExRKNS_9sc_signedE
605d71f0 T __ZN5sc_dtgeExRKNS_9sc_signedE
605d720c T __ZN5sc_dtgeERKNS_11sc_int_baseERKNS_9sc_signedE
605d7228 T __ZN5sc_dtltERKNS_11sc_int_baseERKNS_9sc_signedE
605d7244 T __ZN5sc_dtltERKNS_9sc_signedEx
605d73e8 T __ZN5sc_dtgeERKNS_9sc_signedEx
605d7404 T __ZN5sc_dtgeERKNS_9sc_signedERKNS_11sc_int_baseE
605d7420 T __ZN5sc_dtleERKNS_9sc_signedEx
605d7464 T __ZN5sc_dtgtERKNS_9sc_signedEx
605d7480 T __ZN5sc_dtgtERKNS_9sc_signedERKNS_11sc_int_baseE
605d749c T __ZN5sc_dtleERKNS_9sc_signedERKNS_11sc_int_baseE
605d74b8 T __ZN5sc_dtltERKNS_9sc_signedERKNS_11sc_int_baseE
605d74d4 T __ZN5sc_dtltERKNS_9sc_signedES2_
605d75f0 T __ZN5sc_dtgeERKNS_9sc_signedES2_
605d7608 T __ZN5sc_dtleERKNS_9sc_signedES2_
605d7640 T __ZN5sc_dtgtERKNS_9sc_signedES2_
605d7658 T __ZN5sc_dteqEmRKNS_9sc_signedE
605d7758 T __ZN5sc_dtleEmRKNS_9sc_signedE
605d7790 T __ZN5sc_dtgtEmRKNS_9sc_signedE
605d77a8 T __ZN5sc_dtneEmRKNS_9sc_signedE
605d77c0 T __ZN5sc_dteqERKNS_9sc_signedEm
605d78bc T __ZN5sc_dtleERKNS_9sc_signedEm
605d78f4 T __ZN5sc_dtgtERKNS_9sc_signedEm
605d790c T __ZN5sc_dtneERKNS_9sc_signedEm
605d7924 T __ZN5sc_dteqElRKNS_9sc_signedE
605d7a3c T __ZN5sc_dtleElRKNS_9sc_signedE
605d7a74 T __ZN5sc_dtgtElRKNS_9sc_signedE
605d7a8c T __ZN5sc_dtneElRKNS_9sc_signedE
605d7aa4 T __ZN5sc_dteqERKNS_9sc_signedEl
605d7bb8 T __ZN5sc_dtleERKNS_9sc_signedEl
605d7bf0 T __ZN5sc_dtgtERKNS_9sc_signedEl
605d7c08 T __ZN5sc_dtneERKNS_9sc_signedEl
605d7c20 T __ZN5sc_dteqEyRKNS_9sc_signedE
605d7d28 T __ZN5sc_dtleEyRKNS_9sc_signedE
605d7d6c T __ZN5sc_dtgtEyRKNS_9sc_signedE
605d7d88 T __ZN5sc_dtgtERKNS_12sc_uint_baseERKNS_9sc_signedE
605d7da4 T __ZN5sc_dtleERKNS_12sc_uint_baseERKNS_9sc_signedE
605d7dc0 T __ZN5sc_dtneEyRKNS_9sc_signedE
605d7ddc T __ZN5sc_dtneERKNS_12sc_uint_baseERKNS_9sc_signedE
605d7df8 T __ZN5sc_dteqERKNS_12sc_uint_baseERKNS_9sc_signedE
605d7e14 T __ZN5sc_dteqERKNS_9sc_signedEy
605d7f10 T __ZN5sc_dtleERKNS_9sc_signedEy
605d7f54 T __ZN5sc_dtgtERKNS_9sc_signedEy
605d7f70 T __ZN5sc_dtgtERKNS_9sc_signedERKNS_12sc_uint_baseE
605d7f8c T __ZN5sc_dtleERKNS_9sc_signedERKNS_12sc_uint_baseE
605d7fa8 T __ZN5sc_dtneERKNS_9sc_signedEy
605d7fc4 T __ZN5sc_dtneERKNS_9sc_signedERKNS_12sc_uint_baseE
605d7fe0 T __ZN5sc_dteqERKNS_9sc_signedERKNS_12sc_uint_baseE
605d7ffc T __ZN5sc_dteqExRKNS_9sc_signedE
605d8124 T __ZN5sc_dtleExRKNS_9sc_signedE
605d8168 T __ZN5sc_dtgtExRKNS_9sc_signedE
605d8184 T __ZN5sc_dtgtERKNS_11sc_int_baseERKNS_9sc_signedE
605d81a0 T __ZN5sc_dtleERKNS_11sc_int_baseERKNS_9sc_signedE
605d81bc T __ZN5sc_dtneExRKNS_9sc_signedE
605d81d8 T __ZN5sc_dtneERKNS_11sc_int_baseERKNS_9sc_signedE
605d81f4 T __ZN5sc_dteqERKNS_11sc_int_baseERKNS_9sc_signedE
605d8210 T __ZN5sc_dt9sc_signedaSERKNS_11sc_unsignedE
605d83bc T __ZN5sc_dt9sc_signedoRERKNS_11sc_unsignedE
605d84d0 T __ZN5sc_dt9sc_signedaSERKS0_
605d8698 T __ZN5sc_dt9sc_signedmmEv
605d86f8 T __ZN5sc_dt9sc_signedppEi
605d87b4 T __ZN5sc_dt9sc_signedmmEi
605d8870 T __ZN5sc_dt9sc_signedppEv
605d88d0 T __ZN5sc_dt9sc_signedC1ERKNS_11sc_unsignedE
605d8aac T __ZN5sc_dteoElRKNS_11sc_unsignedE
605d8ba0 T __ZN5sc_dteoERKNS_11sc_unsignedEl
605d8c94 T __ZN5sc_dteoExRKNS_11sc_unsignedE
605d8db8 T __ZN5sc_dteoERKNS_11sc_int_baseERKNS_11sc_unsignedE
605d8de0 T __ZN5sc_dteoERKNS_11sc_unsignedEx
605d8f04 T __ZN5sc_dteoERKNS_11sc_unsignedERKNS_11sc_int_baseE
605d8f2c T __ZN5sc_dteoERKNS_9sc_signedERKNS_11sc_unsignedE
605d8fac T __ZN5sc_dteoERKNS_11sc_unsignedERKNS_9sc_signedE
605d902c T __ZN5sc_dtorElRKNS_11sc_unsignedE
605d9120 T __ZN5sc_dtorERKNS_11sc_unsignedEl
605d9214 T __ZN5sc_dtorExRKNS_11sc_unsignedE
605d9338 T __ZN5sc_dtorERKNS_11sc_int_baseERKNS_11sc_unsignedE
605d9360 T __ZN5sc_dtorERKNS_11sc_unsignedEx
605d9484 T __ZN5sc_dtorERKNS_11sc_unsignedERKNS_11sc_int_baseE
605d94ac T __ZN5sc_dtorERKNS_9sc_signedERKNS_11sc_unsignedE
605d952c T __ZN5sc_dtorERKNS_11sc_unsignedERKNS_9sc_signedE
605d95ac T __ZN5sc_dtmiERKNS_11sc_unsignedEm
605d9650 T __ZN5sc_dtmiERKNS_11sc_unsignedEl
605d9738 T __ZN5sc_dtmiERKNS_11sc_unsignedEy
605d983c T __ZN5sc_dtmiERKNS_11sc_unsignedERKNS_12sc_uint_baseE
605d9864 T __ZN5sc_dtmiERKNS_11sc_unsignedEx
605d9990 T __ZN5sc_dtmiERKNS_11sc_unsignedERKNS_11sc_int_baseE
605d99b8 T __ZN5sc_dtmiERKNS_11sc_unsignedERKNS_9sc_signedE
605d9a3c T __ZN5sc_dtmiERKNS_11sc_unsignedES2_
605d9ac0 T __ZN5sc_dtplElRKNS_11sc_unsignedE
605d9bb4 T __ZN5sc_dtplERKNS_11sc_unsignedEl
605d9ca8 T __ZN5sc_dtplExRKNS_11sc_unsignedE
605d9dcc T __ZN5sc_dtplERKNS_11sc_int_baseERKNS_11sc_unsignedE
605d9df4 T __ZN5sc_dtplERKNS_11sc_unsignedEx
605d9f18 T __ZN5sc_dtplERKNS_11sc_unsignedERKNS_11sc_int_baseE
605d9f40 T __ZN5sc_dtplERKNS_9sc_signedERKNS_11sc_unsignedE
605d9fc0 T __ZN5sc_dtplERKNS_11sc_unsignedERKNS_9sc_signedE
605da040 T __ZN5sc_dt9sc_signedaSEy
605da18c T __ZN5sc_dt9sc_signedeOEy
605da310 T __ZN5sc_dt9sc_signedeOERKNS_12sc_uint_baseE
605da32c T __ZN5sc_dt9sc_signedC1ERKNS_16sc_uint_subref_rE
605da528 T __ZN5sc_dt9sc_signedC2ERKNS_16sc_uint_subref_rE
605da724 T __ZN5sc_dt9sc_signedC1ERKNS_15sc_int_subref_rE
605da858 T __ZN5sc_dt9sc_signedC2ERKNS_15sc_int_subref_rE
605da98c T __ZN5sc_dt9sc_signedaSERKNS_12sc_uint_baseE
605da9a4 T __ZThn4_N5sc_dt9sc_signed10concat_setEyi
605da9ac T __ZN5sc_dt9sc_signed10concat_setEyi
605da9f4 T __ZN5sc_dt9sc_signedaSEx
605dabe0 T __ZN5sc_dt9sc_signedaSERKNS_11sc_int_baseE
605dabf8 T __ZThn4_N5sc_dt9sc_signed10concat_setERKS0_i
605dac00 T __ZN5sc_dt9sc_signed10concat_setERKS0_i
605dac98 T __ZThn4_N5sc_dt9sc_signed10concat_setExi
605daca0 T __ZN5sc_dt9sc_signed10concat_setExi
605dacec T __ZN5sc_dt9sc_signedpLEl
605dae9c T __ZN5sc_dt9sc_signedmIEm
605db024 T __ZN5sc_dt9sc_signedpLERKS0_
605db184 T __ZN5sc_dt9sc_signedmIEx
605db37c T __ZN5sc_dt9sc_signedmIERKNS_11sc_int_baseE
605db398 T __ZN5sc_dt9sc_signedpLEx
605db588 T __ZN5sc_dt9sc_signedpLERKNS_11sc_int_baseE
605db5a4 T __ZN5sc_dt9sc_signedmIEl
605db764 T __ZN5sc_dt9sc_signedaSEm
605db89c T __ZN5sc_dt9sc_signedmIERKS0_
605dbb54 T __ZN5sc_dt9sc_signedpLEy
605dbd24 T __ZN5sc_dt9sc_signedpLERKNS_12sc_uint_baseE
605dbd40 T __ZN5sc_dt9sc_signedmIEy
605dbf20 T __ZN5sc_dt9sc_signedmIERKNS_12sc_uint_baseE
605dbf3c T __ZN5sc_dt9sc_signedaSEd
605dc154 T __ZN5sc_dt9sc_signedmIERKNS_11sc_unsignedE
605dc40c T __ZN5sc_dt9sc_signedpLERKNS_11sc_unsignedE
605dc56c T __ZN5sc_dt9sc_signedpLEm
605dc6f0 T __ZN5sc_dt9sc_signedC1EPKNS_11sc_unsignedEii
605dcb88 T __ZN5sc_dt9sc_signedC2EPKNS_11sc_unsignedEii
605dd020 T __ZN5sc_dt9sc_signed7reverseEv
605dd174 T __ZN5sc_dt9sc_signedC2EPKS0_ii
605dd618 T __ZN5sc_dt9sc_signedoRERKS0_
605dd748 T __ZN5sc_dt9sc_signedC1EPKS0_ii
605ddbec T __ZN5sc_dt9sc_signedeOEx
605ddda0 T __ZN5sc_dt9sc_signedeOERKNS_11sc_int_baseE
605dddbc T __ZN5sc_dt9sc_signed14set_packed_repEPj
605ddf58 T __ZN5sc_dt9sc_signedaSERKNS_10sc_bv_baseE
605de134 T __ZN5sc_dt9sc_signedC1ERKNS_10sc_bv_baseE
605de230 T __ZN5sc_dt9sc_signedC2ERKNS_10sc_bv_baseE
605de32c T __ZN5sc_dt9sc_signedlSEm
605de480 T __ZN5sc_dt9sc_signedlSEl
605de498 T __ZN5sc_dt9sc_signedlSEy
605de4bc T __ZN5sc_dt9sc_signedlSERKNS_12sc_uint_baseE
605de4d8 T __ZN5sc_dt9sc_signedlSEx
605de504 T __ZN5sc_dt9sc_signedlSERKNS_11sc_int_baseE
605de520 T __ZN5sc_dt9sc_signedlSERKNS_11sc_unsignedE
605de558 T __ZN5sc_dt9sc_signedlSERKS0_
605de594 T __ZN5sc_dt9sc_signedaNEx
605de738 T __ZN5sc_dt9sc_signedaNERKNS_11sc_int_baseE
605de754 T __ZN5sc_dt9sc_signedoREl
605de8c0 T __ZN5sc_dt9sc_signedaNEl
605dea44 T __ZN5sc_dt9sc_signed3setEi
605deb90 T __ZN5sc_dt16sc_signed_bitrefoREb
605debb4 T __ZN5sc_dt9sc_signedaNERKS0_
605dece0 T __ZN5sc_dt9sc_signedeOERKS0_
605dedf4 T __ZN5sc_dt9sc_signedaNEm
605def44 T __ZN5sc_dt9sc_signedeOEl
605df0b0 T __ZN5sc_dt9sc_signedaNERKNS_11sc_unsignedE
605df1dc T __ZN5sc_dt9sc_signedoREx
605df37c T __ZN5sc_dt9sc_signedoRERKNS_11sc_int_baseE
605df398 T __ZN5sc_dt9sc_signedaNEy
605df528 T __ZN5sc_dt9sc_signedaNERKNS_12sc_uint_baseE
605df544 T __ZN5sc_dt9sc_signed5clearEi
605df690 T __ZN5sc_dt16sc_signed_bitrefaNEb
605df6b4 T __ZN5sc_dt16sc_signed_bitrefeOEb
605df710 T __ZN5sc_dt16sc_signed_bitrefaSERKS0_
605df75c T __ZN5sc_dt9sc_signed13mti_set_valueEPv
605df7a0 T __ZN5sc_dt16sc_signed_subref10concat_setEyi
605df890 T __ZN5sc_dt16sc_signed_subref10concat_setERKNS_11sc_unsignedEi
605df93c T __ZN5sc_dt16sc_signed_subref10concat_setERKNS_9sc_signedEi
605dfa50 T __ZN5sc_dt16sc_signed_subref10concat_setExi
605dfb78 T __ZN5sc_dt16sc_signed_subrefaSEd
605dfcf8 T __ZN5sc_dt16sc_signed_bitrefaSERKNS_18sc_signed_bitref_rE
605dfd44 T __ZN5sc_dt9sc_signed17mti_set_dpi_valueEPv
605dfd9c T __ZN5sc_dt16sc_signed_subrefaSEx
605dfe0c T __ZN5sc_dt16sc_signed_subrefaSERKNS_11sc_int_baseE
605dfe24 T __ZN5sc_dt16sc_signed_subrefaSEy
605dfe90 T __ZN5sc_dt16sc_signed_subrefaSERKNS_12sc_uint_baseE
605dfea8 T __ZN5sc_dt16sc_signed_subrefaSEl
605dfef8 T __ZN5sc_dt16sc_signed_subrefaSEm
605dff48 T __ZN5sc_dt16sc_signed_subrefaSERKNS_11sc_unsignedE
605dffd0 T __ZN5sc_dt16sc_signed_subrefaSERKNS_9sc_signedE
605e007c T __ZN5sc_dt16sc_signed_bitref10concat_setEyi
605e00f8 T __ZN5sc_dt16sc_signed_bitref10concat_setERKNS_11sc_unsignedEi
605e015c T __ZN5sc_dt16sc_signed_bitref10concat_setERKNS_9sc_signedEi
605e01b8 T __ZN5sc_dt16sc_signed_bitref10concat_setExi
605e0230 T __ZN5sc_dt16sc_signed_bitrefaSEb
605e0264 T __ZN5sc_dt16sc_signed_bitref4scanERSi
605e0288 T __ZN5sc_dt9sc_signedaSEPKc
605e06a4 T __ZN5sc_dt9sc_signed4scanERSi
605e0780 T __ZN5sc_dt16sc_signed_subref4scanERSi
605e0918 T __ZN5sc_dt9sc_signedaSERKNS_10sc_lv_baseE
605e0b74 T __ZN5sc_dt9sc_signedC1ERKNS_10sc_lv_baseE
605e0c74 T __ZN5sc_dt9sc_signedC2ERKNS_10sc_lv_baseE
605e0d74 T __ZN5sc_dt9sc_signedeOERKNS_11sc_unsignedE
605e0ea4 T __ZN5sc_dt9sc_signedeOEm
605e0fe0 T __ZN5sc_dt9sc_signedoREy
605e1164 T __ZN5sc_dt9sc_signedoRERKNS_12sc_uint_baseE
605e1180 T __ZN5sc_dt9sc_signedrSEm
605e12c8 T __ZN5sc_dt9sc_signedrSEl
605e12e0 T __ZN5sc_dt9sc_signedrSERKS0_
605e1314 T __ZN5sc_dt9sc_signedrSEy
605e1338 T __ZN5sc_dt9sc_signedrSERKNS_12sc_uint_baseE
605e1354 T __ZN5sc_dt9sc_signedrSEx
605e1380 T __ZN5sc_dt9sc_signedrSERKNS_11sc_int_baseE
605e139c T __ZN5sc_dt9sc_signedrSERKNS_11sc_unsignedE
605e13d4 T __ZN5sc_dt9sc_signedoREm
605e1510 T __ZThn4_N5sc_dt9sc_signed10concat_setERKNS_11sc_unsignedEi
605e1518 T __ZN5sc_dt9sc_signed10concat_setERKNS_11sc_unsignedEi
605e15a0 T __ZN5sc_dt9sc_signedC1ERKNS_20sc_unsigned_subref_rE
605e1710 T __ZN5sc_dt9sc_signedC2ERKNS_20sc_unsigned_subref_rE
605e1880 T __ZN5sc_dt9sc_signedC1ERKNS_18sc_signed_subref_rE
605e19f0 T __ZN5sc_dt9sc_signedC2ERKNS_18sc_signed_subref_rE
605e1b60 T __ZNK5sc_dt18sc_signed_subref_r8to_ulongEv
605e1c10 T __ZNK5sc_dt18sc_signed_subref_r7to_longEv
605e1cc0 T __ZNK5sc_dt18sc_signed_subref_r7to_uintEv
605e1d70 T __ZNK5sc_dt18sc_signed_subref_r6to_intEv
605e1e20 T __ZNK5sc_dt18sc_signed_subref_r15concat_get_dataEPji
605e1ed8 T __ZNK5sc_dt18sc_signed_subref_r15concat_get_ctrlEPji
605e1f90 T __ZNK5sc_dt18sc_signed_subref_r17concat_get_uint64Ev
605e2048 T __ZN5sc_dt9sc_signedaSERKNS_18sc_signed_subref_rE
605e20ac T __ZN5sc_dt9sc_signedaSERKNS_20sc_unsigned_subref_rE
605e2110 T __ZN5sc_dt16sc_signed_subrefaSERKNS_20sc_unsigned_subref_rE
605e21bc T __ZN5sc_dt16sc_signed_subrefaSERKS0_
605e2278 T __ZN5sc_dt16sc_signed_subrefaSERKNS_18sc_signed_subref_rE
605e2324 T __ZNK5sc_dt18sc_signed_subref_r9to_stringENS_9sc_numrepEb
605e2404 T __ZNK5sc_dt18sc_signed_subref_r9to_stringENS_9sc_numrepE
605e24dc T __ZNK5sc_dt18sc_signed_subref_r9to_doubleEv
605e2590 T __ZNK5sc_dt18sc_signed_subref_r9to_uint64Ev
605e2648 T __ZNK5sc_dt18sc_signed_subref_r8to_int64Ev
605e2700 t .text
605e2700 t __Z41__static_initialization_and_destruction_0ii
605e2740 t __GLOBAL__I__ZN5sc_dt9scfx_mant10alloc_wordEj
605e2750 t ___tcf_0
605e2768 T __ZN5sc_dt9scfx_mant10alloc_wordEj
605e286c T __ZN5sc_dt9scfx_mant9free_wordEPjj
605e28f0 t .text
605e28f0 T __ZN5sc_dt11compare_absERKNS_8scfx_repES2_
605e29fc T __ZN5sc_dt14compare_msw_ffERKNS_8scfx_repES2_
605e2ae4 T __ZN5sc_dt8scfx_rep13divide_by_tenEv
605e2b5c T __ZN5sc_dt8scfx_rep7set_binEi
605e2b80 T __ZN5sc_dt8scfx_rep7set_octEii
605e2bf0 T __ZN5sc_dt8scfx_rep7set_hexEii
605e2c7c T __ZN5sc_dt8scfx_rep10shift_leftEi
605e2ce8 T __ZN5sc_dt8scfx_rep11shift_rightEi
605e2d58 T __ZN5sc_dt8scfx_repdlEPvj
605e2d7c t __Z41__static_initialization_and_destruction_0ii
605e2dd4 t __GLOBAL__I__ZN5sc_dt8scfx_repC2Ev
605e2de4 t ___tcf_2
605e2dfc t ___tcf_1
605e2e14 T __ZN5sc_dt8scfx_repC1ERKS0_
605e2e8c T __ZN5sc_dt8scfx_repC1Ev
605e2f18 T __ZN5sc_dt8scfx_repnwEj
605e2f7c t ___tcf_0
605e2f9c T __ZN5sc_dt12cmp_scfx_repERKNS_8scfx_repES2_
605e3090 T __ZN5sc_dt8scfx_repC2ERKS0_
605e3108 T __ZNK5sc_dt8scfx_rep6resizeEii
605e31bc T __ZN5sc_dt8scfx_repC2Ev
605e3248 T __ZN5sc_dt8scfx_repC2Ex
605e33b4 T __ZN5sc_dt8scfx_repC1Em
605e348c T __ZN5sc_dt8scfx_repC2Em
605e3564 T __ZN5sc_dt8scfx_repC1El
605e364c T __ZN5sc_dt8scfx_repC2El
605e3734 T __ZN5sc_dt8scfx_repC1Ej
605e380c T __ZN5sc_dt8scfx_repC2Ej
605e38e4 T __ZN5sc_dt8scfx_repC1Ei
605e39d4 T __ZN5sc_dt8scfx_repC2Ei
605e3ac4 T __ZN5sc_dt8scfx_rep9normalizeEi
605e3b70 T __ZN5sc_dt8scfx_repC1Ey
605e3ca8 T __ZN5sc_dt8scfx_repC2Ey
605e3de0 T __ZN5sc_dt8scfx_repC1Ex
605e3f4c T __ZN5sc_dt8scfx_rep15multiply_by_tenEv
605e4084 T __ZN5sc_dt8scfx_repC1Ed
605e41cc T __ZN5sc_dt8scfx_repC2Ed
605e4314 T __ZNK5sc_dt8scfx_rep9to_doubleEv
605e46ec T __ZN5sc_dt5alignERKNS_8scfx_repES2_RiS3_RNS_13scfx_mant_refES5_
605e4904 T __ZNK5sc_dt8scfx_rep7get_bitEi
605e4a70 T __ZNK5sc_dt8scfx_rep8get_typeERiS1_RNS_6sc_encE
605e4c24 T __ZNK5sc_dt8scfx_rep9get_sliceEiiRKNS_11scfx_paramsERNS_10sc_bv_baseE
605e4cfc T __ZN5sc_dt8scfx_rep6lshiftEi
605e4e88 T __ZN5sc_dt8scfx_rep6rshiftEi
605e5044 T __ZN5sc_dt8scfx_repC1ERKNS_11sc_unsignedE
605e5284 T __ZN5sc_dt8scfx_repC2ERKNS_11sc_unsignedE
605e54c4 T __ZN5sc_dt8scfx_rep5clearEiRKNS_11scfx_paramsE
605e57ec T __ZN5sc_dt8scfx_repC1ERKNS_9sc_signedE
605e5b5c T __ZN5sc_dt8scfx_repC2ERKNS_9sc_signedE
605e5ecc T __ZN5sc_dt8scfx_rep3setEiRKNS_11scfx_paramsE
605e6274 T __ZN5sc_dt8scfx_rep9set_sliceEiiRKNS_11scfx_paramsERKNS_10sc_bv_baseE
605e6388 T __ZN5sc_dt8scfx_rep8overflowERKNS_11scfx_paramsERb
605e7a24 T __ZN5sc_dt8scfx_rep12quantizationERKNS_11scfx_paramsERb
605e8798 T __ZN5sc_dt8scfx_rep4castERKNS_11scfx_paramsERbS4_
605e8838 T __ZN5sc_dt8scfx_rep5roundEi
605e8d4c T __ZN5sc_dt12add_scfx_repERKNS_8scfx_repES2_i
605e91d8 T __ZN5sc_dt8multiplyERNS_8scfx_repERKS0_S3_i
605e963c T __ZNK5sc_dt8scfx_rep4dumpERSo
605e9880 T __ZN5sc_dt12div_scfx_repERKNS_8scfx_repES2_i
605ea1b0 T __ZN5sc_dt12sub_scfx_repERKNS_8scfx_repES2_i
605ea6a0 T __ZN5sc_dt8scfx_rep11from_stringEPKci
605eb914 T __ZN5sc_dt9print_decERNS_11scfx_stringERKNS_8scfx_repEiNS_6sc_fmtE
605ec994 T __ZN5sc_dt11print_otherERNS_11scfx_stringERKNS_8scfx_repENS_9sc_numrepEiNS_6sc_fmtEPKNS_11scfx_paramsE
605ee07c T __ZNK5sc_dt8scfx_rep9to_stringENS_9sc_numrepEiNS_6sc_fmtEPKNS_11scfx_paramsE
605ee680 T __ZNK5sc_dt8scfx_rep5printERSo
605ee6f0 t .text
605ee6f0 T __ZN7sc_core9sc_report4swapERS0_
605ee76c T __ZNK7sc_core9sc_report6get_idEv
605ee788 t __Z41__static_initialization_and_destruction_0ii
605ee7c8 t __GLOBAL__I__ZN7sc_core9sc_reportC2Ev
605ee7d8 t ___tcf_5
605ee7f0 t __ZN7sc_core15severity_stringENS_11sc_severityE
605eea88 T __ZN7sc_core9sc_reportD0Ev
605eeb00 T __ZN7sc_core9sc_reportD1Ev
605eeb6c T __ZN7sc_core9sc_reportD2Ev
605eebd8 t __ZN7sc_core24sc_deprecated_report_idsEPKc
605eecfc T __ZN7sc_core9sc_report20make_warnings_errorsEb
605eed20 T __ZN7sc_core9sc_report17suppress_warningsEb
605eed4c T __ZN7sc_core9sc_report14suppress_infosEb
605eed78 T __ZN7sc_core9sc_report11suppress_idEib
605eedac T __ZN7sc_core9sc_report13is_suppressedEi
605eedd8 T __ZN7sc_core9sc_report11get_messageEi
605eee04 T __ZN7sc_core9sc_report11register_idEiPKc
605eef20 t ___tcf_4
605eef84 t ___tcf_3
605eefe8 t ___tcf_2
605ef04c t ___tcf_1
605ef0b0 t ___tcf_0
605ef114 T __ZN7sc_core9sc_reportC1ENS_11sc_severityEPKcS3_S3_iNS_7sc_timeES3_
605ef290 T __ZN7sc_core9sc_reportC2Ev
605ef374 T __ZN7sc_core9sc_reportC1Ev
605ef458 T __ZN7sc_core9sc_reportC2ENS_11sc_severityEPKcS3_S3_iNS_7sc_timeES3_
605ef5d4 T __ZNK7sc_core9sc_report12get_msg_typeEv
605ef5f0 T __ZNK7sc_core9sc_reportcvPKcEv
605ef814 T __ZNK7sc_core9sc_report5printERSoii
605efa64 T __ZN7sc_core9sc_reportC1ERKS0_
605efbbc T __ZN7sc_core9sc_reportaSERKS0_
605efbec T __ZN7sc_core9sc_reportC2ERKS0_
605efd44 T __ZN7sc_core9sc_reportC1ENS_11sc_severityEPKNS_10sc_msg_defEPKcS6_ii
605f013c T __ZN7sc_core17sc_report_handler6reportENS_11sc_severityEiPKcS3_i
605f022c T __ZN7sc_core9sc_reportC2ENS_11sc_severityEPKNS_10sc_msg_defEPKcS6_ii
605f0630 t .text
605f0630 T __ZNK5sc_dt8sc_fxnum13lock_observerEv
605f0644 T __ZNK5sc_dt8sc_fxnum15unlock_observerEPNS_17sc_fxnum_observerE
605f0654 T __ZNK5sc_dt13sc_fxnum_fast7get_bitEi
605f0728 T __ZNK5sc_dt20sc_fxnum_fast_bitref3getEv
605f0740 T __ZNK5sc_dt13sc_fxnum_fast13lock_observerEv
605f0754 T __ZNK5sc_dt13sc_fxnum_fast15unlock_observerEPNS_22sc_fxnum_fast_observerE
605f0764 T __ZN5sc_dt8sc_fxnum18mti_get_value_sizeEPiS1_S1_
605f0788 T __ZN5sc_dt13sc_fxnum_fast18mti_get_value_sizeEPiS1_S1_
605f07ac t __Z41__static_initialization_and_destruction_0ii
605f07ec t __GLOBAL__I__ZNK5sc_dt15sc_fxnum_bitref3getEv
605f07fc t ___tcf_0
605f0814 T __ZN5sc_dt15sc_fxnum_subref3setEv
605f083c T __ZNK5sc_dt15sc_fxnum_subref3getEv
605f0864 T __ZNK5sc_dt15sc_fxnum_bitref3getEv
605f0880 T __ZNK5sc_dt15sc_fxnum_bitref5printERSo
605f08a8 T __ZNK5sc_dt8sc_fxnum6to_hexEv
605f08ec T __ZNK5sc_dt8sc_fxnum9to_stringEv
605f0930 T __ZNK5sc_dt8sc_fxnum6to_octEv
605f0974 T __ZNK5sc_dt8sc_fxnum6to_binEv
605f09b8 T __ZNK5sc_dt8sc_fxnum6to_decEv
605f09fc T __ZNK5sc_dt8sc_fxnum9to_stringENS_9sc_numrepEbNS_6sc_fmtE
605f0a44 T __ZNK5sc_dt8sc_fxnum9to_stringENS_9sc_numrepENS_6sc_fmtE
605f0a88 T __ZNK5sc_dt8sc_fxnum9to_stringENS_6sc_fmtE
605f0acc T __ZNK5sc_dt8sc_fxnum9to_stringENS_9sc_numrepEb
605f0b14 T __ZNK5sc_dt8sc_fxnum9to_stringENS_9sc_numrepE
605f0b58 T __ZNK5sc_dt13sc_fxnum_fast9to_stringEv
605f0ba8 T __ZNK5sc_dt13sc_fxnum_fast6to_hexEv
605f0bf8 T __ZNK5sc_dt13sc_fxnum_fast6to_octEv
605f0c48 T __ZNK5sc_dt13sc_fxnum_fast6to_binEv
605f0c98 T __ZNK5sc_dt13sc_fxnum_fast6to_decEv
605f0ce8 T __ZNK5sc_dt13sc_fxnum_fast9to_stringENS_9sc_numrepEbNS_6sc_fmtE
605f0d3c T __ZNK5sc_dt13sc_fxnum_fast9to_stringENS_9sc_numrepENS_6sc_fmtE
605f0d90 T __ZNK5sc_dt13sc_fxnum_fast9to_stringENS_6sc_fmtE
605f0de0 T __ZNK5sc_dt13sc_fxnum_fast9to_stringENS_9sc_numrepEb
605f0e34 T __ZNK5sc_dt13sc_fxnum_fast9to_stringENS_9sc_numrepE
605f0e84 T __ZN5sc_dt8sc_fxnum13mti_set_valueEPv
605f0ef0 T __ZN5sc_dt8sc_fxnum13mti_get_valueEv
605f0fb4 T __ZN5sc_dt13sc_fxnum_fast13mti_get_valueEv
605f1078 T __ZN5sc_dt8sc_fxnum18mti_get_value_typeEv
605f10b8 T __ZN5sc_dt13sc_fxnum_fast18mti_get_value_typeEv
605f10f8 T __ZNK5sc_dt8sc_fxnum17mti_get_dpi_valueEPv
605f1184 T __ZNK5sc_dt13sc_fxnum_fast17mti_get_dpi_valueEPv
605f1210 T __ZNK5sc_dt13sc_fxnum_fast9get_sliceEiiRNS_10sc_bv_baseE
605f1388 T __ZNK5sc_dt20sc_fxnum_fast_subref3getEv
605f13a4 T __ZNK5sc_dt20sc_fxnum_fast_bitref5printERSo
605f13cc T __ZN5sc_dt15sc_fxnum_bitref3setEb
605f1408 T __ZN5sc_dt15sc_fxnum_bitref4scanERSi
605f1430 T __ZN5sc_dt8sc_fxnum17mti_set_dpi_valueEPv
605f149c T __ZN5sc_dt8sc_fxnum4scanERSi
605f16e8 T __ZN5sc_dt13sc_fxnum_fast4castEv
605f20f4 T __ZN5sc_dt13sc_fxnum_fast4scanERSi
605f21dc T __ZN5sc_dt13sc_fxnum_fast9set_sliceEiiRKNS_10sc_bv_baseE
605f2648 T __ZN5sc_dt20sc_fxnum_fast_subref3setEv
605f2668 T __ZN5sc_dt20sc_fxnum_fast_subref4scanERSi
605f2750 T __ZN5sc_dt13sc_fxnum_fast7set_bitEib
605f2b0c T __ZN5sc_dt13sc_fxnum_fast17mti_set_dpi_valueEPv
605f2b5c T __ZN5sc_dt13sc_fxnum_fast13mti_set_valueEPv
605f2bb0 T __ZN5sc_dt20sc_fxnum_fast_bitref3setEb
605f2bd0 T __ZN5sc_dt20sc_fxnum_fast_bitref4scanERSi
605f2bf8 T __ZNK5sc_dt20sc_fxnum_fast_subref5printERSo
605f2c24 T __ZNK5sc_dt15sc_fxnum_subref5printERSo
605f2c54 T __ZN5sc_dt15sc_fxnum_subref4scanERSi
605f2d3c T __ZNK5sc_dt13sc_fxnum_fast5printERSo
605f2db8 T __ZNK5sc_dt8sc_fxnum4dumpERSo
605f3008 T __ZNK5sc_dt15sc_fxnum_bitref4dumpERSo
605f30a0 T __ZNK5sc_dt8sc_fxnum5printERSo
605f310c T __ZNK5sc_dt15sc_fxnum_subref4dumpERSo
605f31cc T __ZNK5sc_dt13sc_fxnum_fast4dumpERSo
605f342c T __ZNK5sc_dt20sc_fxnum_fast_subref4dumpERSo
605f34ec T __ZNK5sc_dt20sc_fxnum_fast_bitref4dumpERSo
605f3590 t .text
605f3590 T __ZN7sc_core17sc_thread_process14disable_threadEv
605f35a4 T __ZN7sc_core17sc_thread_process15signal_monitorsEi
605f35e8 T __ZN7sc_core17sc_set_stack_sizeEPNS_17sc_thread_processEj
605f361c t __Z41__static_initialization_and_destruction_0ii
605f365c t __GLOBAL__I__ZN7sc_core21SC_DEFAULT_STACK_SIZEE
605f366c t ___tcf_0
605f3684 T __ZN7sc_core17sc_thread_processD0Ev
605f3724 T __ZN7sc_core17sc_thread_processD1Ev
605f37bc T __ZN7sc_core17sc_thread_processD2Ev
605f3854 T __ZN7sc_core17sc_thread_process14resume_processENS_28sc_descendant_inclusion_infoE
605f3974 T __ZN7sc_core17sc_thread_process14enable_processENS_28sc_descendant_inclusion_infoE
605f3a38 T __ZN7sc_core17sc_thread_process22prepare_for_simulationEv
605f3aa8 T __ZN7sc_core17sc_thread_process15trigger_dynamicEPNS_8sc_eventEi
605f3d24 T __ZN7sc_core17sc_thread_processC1EPKcbMNS_15sc_process_hostEFvvEPS3_PKNS_16sc_spawn_optionsE
605f3fa0 T __ZN7sc_core17sc_thread_processC2EPKcbMNS_15sc_process_hostEFvvEPS3_PKNS_16sc_spawn_optionsE
605f421c T __ZN7sc_core17sc_thread_process15disable_processENS_28sc_descendant_inclusion_infoE
605f4350 T __ZN7sc_core16sc_thread_cor_fnEPv
605f46c8 T __ZN7sc_core17sc_thread_process15suspend_processENS_28sc_descendant_inclusion_infoE
605f499c T __ZN7sc_core17sc_thread_process10throw_userERKNS_18sc_throw_it_helperENS_28sc_descendant_inclusion_infoE
605f5004 T __ZN7sc_core17sc_thread_process11throw_resetEb
605f5500 T __ZN7sc_core17sc_thread_process12kill_processENS_28sc_descendant_inclusion_infoE
605f5b80 t .text
605f5b80 T __ZNK7sc_core19sc_unwind_exception6activeEv
605f5b9c T __ZNK7sc_core19sc_unwind_exception4whatEv
605f5bb8 t __Z41__static_initialization_and_destruction_0ii
605f5bec t __GLOBAL__I__ZN7sc_core19sc_unwind_exceptionC2EPNS_12sc_process_bEb
605f5bfc t ___tcf_0
605f5c14 T __ZNK7sc_core19sc_unwind_exception5clearEv
605f5c64 T __ZN7sc_core19sc_handle_exceptionEv
605f5dec T __ZN7sc_core19sc_unwind_exceptionD0Ev
605f5e70 T __ZN7sc_core19sc_unwind_exceptionD1Ev
605f5ee8 T __ZN7sc_core19sc_unwind_exceptionD2Ev
605f5f60 T __ZN7sc_core19sc_unwind_exceptionC2EPNS_12sc_process_bEb
605f5fec T __ZN7sc_core19sc_unwind_exceptionC1EPNS_12sc_process_bEb
605f6080 t .text
605f6080 t __Z41__static_initialization_and_destruction_0ii
605f60c0 t __GLOBAL__I__ZN7sc_core16sc_spawn_optionsD2Ev
605f60d0 t ___tcf_0
605f60e8 T __ZN7sc_core16sc_spawn_options21async_reset_signal_isERKNS_15sc_signal_in_ifIbEEb
605f612c T __ZN7sc_core16sc_spawn_options21async_reset_signal_isERKNS_6sc_outIbEEb
605f6170 T __ZN7sc_core16sc_spawn_options15reset_signal_isERKNS_8sc_inoutIbEEb
605f61b4 T __ZN7sc_core16sc_spawn_options21async_reset_signal_isERKNS_5sc_inIbEEb
605f61f8 T __ZN7sc_core16sc_spawn_optionsD1Ev
605f62d8 T __ZN7sc_core16sc_spawn_optionsD2Ev
605f63b8 T __ZNK7sc_core16sc_spawn_options14specify_resetsEv
605f63f0 T __ZN7sc_core16sc_spawn_options15reset_signal_isERKNS_5sc_inIbEEb
605f6434 T __ZN7sc_core16sc_spawn_options21async_reset_signal_isERKNS_8sc_inoutIbEEb
605f6478 T __ZN7sc_core16sc_spawn_options15reset_signal_isERKNS_6sc_outIbEEb
605f64bc T __ZN7sc_core16sc_spawn_options15reset_signal_isERKNS_15sc_signal_in_ifIbEEb
605f6500 t .text
605f6500 T __ZN7sc_core17sc_object_manager15pop_module_nameEv
605f6518 T __ZN7sc_core17sc_object_manager16push_module_nameEPNS_14sc_module_nameE
605f652c t __Z41__static_initialization_and_destruction_0ii
605f656c t __GLOBAL__I__ZN7sc_core9sc_object26m_mti_is_executing_sc_mainE
605f657c t ___tcf_0
605f6594 T __ZN7sc_core17sc_object_manager24top_of_module_name_stackEv
605f65d4 T __ZN7sc_core17sc_object_manager13hierarchy_popEv
605f6604 T __ZN7sc_core17sc_object_manager14hierarchy_currEv
605f6624 T __ZN7sc_core17sc_object_manager14hierarchy_sizeEv
605f6638 T __ZN7sc_core17sc_object_manager14hierarchy_pushEPNS_9sc_objectE
605f666c T __ZN7sc_core17sc_object_manager12first_objectEv
605f66c8 T __ZN7sc_core17sc_object_manager11next_objectEv
605f6748 T __ZN7sc_core17sc_object_manager13remove_objectERKSs
605f6770 T __ZN7sc_core17sc_object_manager12remove_eventERKSs
605f6798 T __ZN7sc_core17sc_object_managerC2Ev
605f6800 T __ZN7sc_core17sc_object_managerD1Ev
605f6898 T __ZN7sc_core17sc_object_managerD2Ev
605f6930 T __ZN7sc_core17sc_object_managerC1Ev
605f6998 T __ZN7sc_core17sc_object_manager12insert_eventERKSsPNS_8sc_eventE
605f6b08 T __ZN7sc_core17sc_object_manager11find_objectEPKc
605f6cf4 T __ZN7sc_core17sc_object_manager10find_eventEPKc
605f6ee0 T __ZN7sc_core17sc_object_manager11create_nameEPKcPNS_9sc_objectE
605f74f0 T __ZN7sc_core17sc_object_manager13insert_objectERKSsPNS_9sc_objectE
605f7660 t .text
605f7660 T __ZN7sc_core18sc_module_registryC1ERNS_13sc_simcontextE
605f7684 T __ZN7sc_core18sc_module_registryC2ERNS_13sc_simcontextE
605f76a8 t __Z41__static_initialization_and_destruction_0ii
605f76e8 t __GLOBAL__I__ZN7sc_core18sc_module_registry6insertERNS_9sc_moduleE
605f76f8 t ___tcf_0
605f7710 T __ZN7sc_core18sc_module_registryD1Ev
605f7720 T __ZN7sc_core18sc_module_registryD2Ev
605f7730 T __ZN7sc_core18sc_module_registry6removeERNS_9sc_moduleE
605f7770 T __ZNK7sc_core18sc_module_registry19mti_is_valid_moduleEPNS_9sc_moduleE
605f77bc T __ZN7sc_core18sc_module_registry18mti_set_debug_infoEv
605f782c T __ZN7sc_core18sc_module_registry27mti_create_module_variablesEv
605f78bc T __ZN7sc_core18sc_module_registry6insertERNS_9sc_moduleE
605f7a04 T __ZN7sc_core18sc_module_registry15simulation_doneEv
605f7b00 T __ZN7sc_core18sc_module_registry16start_simulationEv
605f7bfc T __ZN7sc_core18sc_module_registry16elaboration_doneEv
605f7d00 T __ZN7sc_core18sc_module_registry17construction_doneEv
605f7e10 t .text
605f7e10 T __ZN7sc_core14sc_export_base25before_end_of_elaborationEv
605f7e18 T __ZN7sc_core14sc_export_base18end_of_elaborationEv
605f7e20 T __ZN7sc_core14sc_export_base19start_of_simulationEv
605f7e28 T __ZN7sc_core14sc_export_base17end_of_simulationEv
605f7e30 T __ZN7sc_core18sc_export_registryC1ERNS_13sc_simcontextE
605f7e54 T __ZN7sc_core18sc_export_registryC2ERNS_13sc_simcontextE
605f7e78 t __Z41__static_initialization_and_destruction_0ii
605f7eb8 t __GLOBAL__I__ZN7sc_core14sc_export_baseC2Ev
605f7ec8 t ___tcf_0
605f7ee0 T __ZN7sc_core18sc_export_registryD1Ev
605f7ef0 T __ZN7sc_core18sc_export_registryD2Ev
605f7f00 T __ZNK7sc_core14sc_export_base12report_errorEPKcS2_
605f7f94 T __ZN7sc_core18sc_export_registry6removeEPNS_14sc_export_baseE
605f7fd0 T __ZN7sc_core18sc_export_registry6insertEPNS_14sc_export_baseE
605f8084 T __ZN7sc_core14sc_export_baseC2Ev
605f80d8 T __ZN7sc_core14sc_export_baseC1Ev
605f812c T __ZNK7sc_core18sc_export_registry19mti_is_valid_exportEPNS_14sc_export_baseE
605f8174 T __ZN7sc_core14sc_export_baseD0Ev
605f81c0 T __ZN7sc_core14sc_export_baseD1Ev
605f8204 T __ZN7sc_core14sc_export_baseD2Ev
605f8248 T __ZN7sc_core14sc_export_baseC1EPKc
605f8290 T __ZN7sc_core14sc_export_baseC2EPKc
605f82d8 T __ZN7sc_core14sc_export_base15simulation_doneEv
605f833c T __ZN7sc_core18sc_export_registry15simulation_doneEv
605f8374 T __ZN7sc_core14sc_export_base16start_simulationEv
605f83d8 T __ZN7sc_core18sc_export_registry16start_simulationEv
605f8410 T __ZN7sc_core14sc_export_base16elaboration_doneEv
605f8474 T __ZN7sc_core18sc_export_registry16elaboration_doneEv
605f84b8 T __ZN7sc_core14sc_export_base17construction_doneEv
605f8540 T __ZN7sc_core18sc_export_registry17construction_doneEv
605f8598 T __ZN7sc_core25mti_get_current_region_idEv
605f8610 t .text
605f8610 T __ZN7sc_core26sc_phase_callback_registryC2ERNS_13sc_simcontextE
605f8618 T __ZN7sc_core26sc_phase_callback_registryC1ERNS_13sc_simcontextE
605f8620 T __ZN7sc_core26sc_phase_callback_registryD2Ev
605f8628 T __ZN7sc_core26sc_phase_callback_registryD1Ev
605f8630 t __Z41__static_initialization_and_destruction_0ii
605f8670 t __GLOBAL__I__ZN7sc_core26sc_phase_callback_registryC2ERNS_13sc_simcontextE
605f8680 t ___tcf_0
605f8698 t __ZN7sc_core20warn_phase_callbacksERKNS_9sc_objectE
605f8c78 T __ZN7sc_core26sc_phase_callback_registry19unregister_callbackERNS_9sc_objectEj
605f8c8c T __ZN7sc_core26sc_phase_callback_registry17register_callbackERNS_9sc_objectEj
605f8ca0 t .text
605f8ca0 t __Z41__static_initialization_and_destruction_0ii
605f8cd4 t __GLOBAL__I__ZN7sc_core11sc_name_genC2Ev
605f8ce4 t ___tcf_0
605f8cfc T __ZN7sc_core11sc_name_gen15gen_unique_nameEPKcb
605f8db0 T __ZN7sc_core11sc_name_genC2Ev
605f8dfc T __ZN7sc_core11sc_name_genC1Ev
605f8e48 T __ZN7sc_core11sc_name_genD2Ev
605f8f04 T __ZN7sc_core11sc_name_genD1Ev
605f8fc0 t .text
605f8fc0 T __ZN7sc_core18mti_execute_threadEPv
605f9034 T __ZN7sc_core22scmti_get_thread_stateEPv
605f9048 T __ZN7sc_core51scmti_clear_primitive_channel_update_requested_flagEPv
605f9060 T __ZN7sc_core25scmti_get_object_typenameEPv
605f9074 T __ZN7sc_core26scmti_get_object_region_idEPv
605f9084 T __ZN7sc_core25scmti_is_typename_checkedEPv
605f9094 t __Z41__static_initialization_and_destruction_0ii
605f90d4 t __GLOBAL__I__ZN7sc_core16message_functionEPKc
605f90e4 t ___tcf_0
605f90fc T __ZN7sc_core16message_functionEPKc
605f9108 T __ZN7sc_core30scmti_get_string_generic_valueEPvPS0_
605f911c T __ZN7sc_core24scmti_set_variable_valueEPvS0_
605f91e8 T __ZN7sc_core24scmti_get_variable_valueEPvPS0_
605f92b8 T __ZN7sc_core29scmti_get_variable_value_sizeEPvPiS1_S1_
605f9388 T __ZN7sc_core19scmti_delete_moduleEPv
605f9454 T __ZN7sc_core15scmti_bind_nameEPvPc
605f9538 T __ZN7sc_core32scmti_get_primitive_channel_typeEPvPS0_
605f9608 T __ZN7sc_core33scmti_fanout_to_primitive_channelEPvS0_
605f96e8 T __ZN7sc_core33scmti_set_primitive_channel_valueEPvS0_i
605f97cc T __ZN7sc_core33scmti_get_primitive_channel_valueEPvPS0_i
605f98a0 T __ZN7sc_core35scmti_get_qthread_top_stack_pointerEPv
605f9974 T __ZN7sc_core28scmti_execute_thread_processEPv
605f9a38 t __ZN7sc_core11mti_sc_mainEPFiiPPcE
605f9a70 T __ZN7sc_core27scmti_wakeup_systemc_threadEPvS0_i
605f9ab0 T __ZN7sc_core21scmti_get_object_nameEPv
605f9b7c T __ZN7sc_core33scmti_delete_module_dynalloc_listEv
605f9c38 T __ZN7sc_core21scmti_is_valid_exportEPv
605f9d74 T __ZN7sc_core25scmti_trigger_clock_eventEPv
605f9e40 T __ZN7sc_core19scmti_trigger_eventEPv
605f9f0c T __ZN7sc_core16scmti_initializeEv
605f9fdc T __ZN7sc_core24scmti_load_mti_func_trayEv
605fa208 T __ZN7sc_core28scmti_execute_method_processEPv
605fa3e0 T __ZN7sc_core27scmti_execute_switch_threadEPvS0_
605fa4fc T __ZN7sc_core28scmti_disable_systemc_threadEPv
605fa524 T __ZN7sc_core34scmti_execute_method_debug_processEPv
605fa64c T __ZN7sc_core30scmti_update_primitive_channelEPv
605fa720 T __ZN7sc_core21scmti_execute_sc_mainEPvij
605fad00 T __ZN7sc_core19scmti_is_valid_portEPv
605fae3c T __ZN7sc_core27scmti_is_valid_prim_channelEPv
605faf78 T __ZN7sc_core21scmti_is_valid_moduleEPv
605fb0b4 T __ZN7sc_core30scmti_set_property_for_ini_varEPvi
605fb208 T __ZN7sc_core33scmti_set_incr_default_stack_sizeEv
605fb268 T __ZN7sc_core26scmti_block_systemc_threadEPv
605fb50c T __ZN7sc_core17scmti_trace_cycleEi
605fb644 T __ZN7sc_core28scmti_call_end_of_simulationEv
605fb75c T __ZN7sc_core30scmti_call_prepare_to_simulateEv
605fb880 t .text
605fb880 T __ZN7sc_core13sc_plist_baseC2Ev
605fb898 T __ZN7sc_core13sc_plist_baseC1Ev
605fb8b0 T __ZNK7sc_core13sc_plist_base4sizeEv
605fb8d4 T __ZNK7sc_core13sc_plist_base3getEPNS_13sc_plist_elemE
605fb8e0 T __ZN7sc_core13sc_plist_base3setEPNS_13sc_plist_elemEPv
605fb8f0 T __ZN7sc_core13sc_plist_base6mapcarEPFvPvS1_ES1_
605fb924 T __ZN7sc_core18sc_plist_base_iterC2EPNS_13sc_plist_baseEb
605fb948 T __ZN7sc_core18sc_plist_base_iterC1EPNS_13sc_plist_baseEb
605fb96c T __ZN7sc_core18sc_plist_base_iter5resetEPNS_13sc_plist_baseEb
605fb990 T __ZN7sc_core18sc_plist_base_iterD2Ev
605fb998 T __ZN7sc_core18sc_plist_base_iterD1Ev
605fb9a0 T __ZNK7sc_core18sc_plist_base_iter5emptyEv
605fb9b4 T __ZN7sc_core18sc_plist_base_iterppEi
605fb9c8 T __ZN7sc_core18sc_plist_base_itermmEi
605fb9dc T __ZNK7sc_core18sc_plist_base_iter3getEv
605fb9ec T __ZN7sc_core18sc_plist_base_iter3setEPv
605fb9fc T __ZN7sc_core18sc_plist_base_iter10set_handleEPNS_13sc_plist_elemE
605fba0c t __Z41__static_initialization_and_destruction_0ii
605fba40 t __GLOBAL__I__ZN7sc_core13sc_plist_baseC2Ev
605fba50 t ___tcf_0
605fba68 T __ZNK7sc_core13sc_plist_base4backEv
605fbaa0 T __ZNK7sc_core13sc_plist_base5frontEv
605fbad8 T __ZN7sc_core13sc_plist_base9pop_frontEv
605fbb20 T __ZN7sc_core13sc_plist_base8pop_backEv
605fbb68 T __ZN7sc_core13sc_plist_base6removeEPNS_13sc_plist_elemE
605fbbbc T __ZN7sc_core18sc_plist_base_iter6removeEi
605fbbf0 T __ZN7sc_core18sc_plist_base_iter6removeEv
605fbc18 T __ZN7sc_core13sc_plist_base10push_frontEPv
605fbc60 T __ZN7sc_core13sc_plist_base9push_backEPv
605fbca8 T __ZN7sc_core13sc_plist_base13insert_beforeEPNS_13sc_plist_elemEPv
605fbcf0 T __ZN7sc_core13sc_plist_baseD2Ev
605fbd20 T __ZN7sc_core13sc_plist_base9erase_allEv
605fbd5c T __ZN7sc_core13sc_plist_baseD1Ev
605fbd8c T __ZN7sc_core13sc_plist_base12insert_afterEPNS_13sc_plist_elemEPv
605fbde0 t .text
605fbde0 t __Z41__static_initialization_and_destruction_0ii
605fbe20 t __GLOBAL__I__ZN7sc_core8sc_reset16notify_processesEv
605fbe30 t ___tcf_0
605fbe48 T __ZN7sc_core8sc_reset16notify_processesEv
605fbea8 T __ZN7sc_core8sc_reset16reconcile_resetsEv
605fc064 T __ZN7sc_core8sc_reset14remove_processEPNS_12sc_process_bE
605fc10c T __ZN7sc_core8sc_reset15reset_signal_isEbRKNS_15sc_signal_in_ifIbEEb
605fc238 T __ZN7sc_core8sc_reset15reset_signal_isEbRKNS_6sc_outIbEEb
605fc370 T __ZN7sc_core8sc_reset15reset_signal_isEbRKNS_8sc_inoutIbEEb
605fc4a8 T __ZN7sc_core8sc_reset15reset_signal_isEbRKNS_5sc_inIbEEb
605fc5e0 t .text
605fc5e0 t __Z41__static_initialization_and_destruction_0ii
605fc620 t __GLOBAL__I__ZN7sc_core18sc_cthread_process15dont_initializeEb
605fc630 t ___tcf_0
605fc648 T __ZN7sc_core18sc_cthread_processD0Ev
605fc670 T __ZN7sc_core18sc_cthread_processD1Ev
605fc684 T __ZN7sc_core18sc_cthread_processD2Ev
605fc698 T __ZN7sc_core18sc_cthread_processC1EPKcbMNS_15sc_process_hostEFvvEPS3_PKNS_16sc_spawn_optionsE
605fc6d8 T __ZN7sc_core18sc_cthread_processC2EPKcbMNS_15sc_process_hostEFvvEPS3_PKNS_16sc_spawn_optionsE
605fc718 T __ZN7sc_core18sc_cthread_process15dont_initializeEb
605fc740 t .text
605fc740 T __ZN7sc_core23sc_method_debug_process14cleanup_threadEv
605fc790 t __Z41__static_initialization_and_destruction_0ii
605fc7d0 t __GLOBAL__I__ZN7sc_core16sc_method_cor_fnEPv
605fc7e0 t ___tcf_0
605fc7f8 T __ZN7sc_core17sc_method_process16check_for_throwsEv
605fc878 T __ZN7sc_core17sc_method_processD2Ev
605fc8e0 T __ZN7sc_core23sc_method_debug_processD0Ev
605fc924 T __ZN7sc_core23sc_method_debug_processD1Ev
605fc960 T __ZN7sc_core23sc_method_debug_processD2Ev
605fc99c T __ZN7sc_core17sc_method_processC1EPKcbMNS_15sc_process_hostEFvvEPS3_PKNS_16sc_spawn_optionsEi
605fc9f4 T __ZN7sc_core17sc_method_processC2EPKcbMNS_15sc_process_hostEFvvEPS3_PKNS_16sc_spawn_optionsEi
605fca4c T __ZN7sc_core17sc_method_processD0Ev
605fcabc T __ZN7sc_core17sc_method_processD1Ev
605fcb24 T __ZN7sc_core23sc_method_debug_process22prepare_for_simulationEv
605fcb88 T __ZN7sc_core23sc_method_debug_process10suspend_meEv
605fcbe8 T __ZN7sc_core17sc_method_process14enable_processENS_28sc_descendant_inclusion_infoE
605fcca4 T __ZN7sc_core17sc_method_process13clear_triggerEv
605fce40 T __ZN7sc_core17sc_method_processC1EPKcbMNS_15sc_process_hostEFvvEPS3_PKNS_16sc_spawn_optionsE
605fd074 T __ZN7sc_core17sc_method_process15suspend_processENS_28sc_descendant_inclusion_infoE
605fd1e4 T __ZN7sc_core17sc_method_process10throw_userERKNS_18sc_throw_it_helperENS_28sc_descendant_inclusion_infoE
605fd3b0 T __ZN7sc_core17sc_method_processC2EPKcbMNS_15sc_process_hostEFvvEPS3_PKNS_16sc_spawn_optionsE
605fd5e4 T __ZN7sc_core17sc_method_process15disable_processENS_28sc_descendant_inclusion_infoE
605fd714 T __ZN7sc_core23sc_method_debug_processC1EPKcbMNS_15sc_process_hostEFvvEPS3_PKNS_16sc_spawn_optionsE
605fd954 T __ZN7sc_core23sc_method_debug_processC2EPKcbMNS_15sc_process_hostEFvvEPS3_PKNS_16sc_spawn_optionsE
605fdb94 T __ZN7sc_core17sc_method_process12kill_processENS_28sc_descendant_inclusion_infoE
605fde28 T __ZN7sc_core16sc_method_cor_fnEPv
605fe180 T __ZN7sc_core17sc_method_process15trigger_dynamicEPNS_8sc_eventEi
605fe488 T __ZN7sc_core17sc_method_process14resume_processENS_28sc_descendant_inclusion_infoE
605fe61c T __ZN7sc_core17sc_method_process11throw_resetEb
605fe750 t .text
605fe750 T __ZN7sc_core9sc_cor_qt13stack_protectEb
605fe758 T _sc_cor_qt_wrapper
605fe76c T _sc_cor_qt_yieldhelp
605fe77c T _sc_cor_qt_aborthelp
605fe784 T __ZN7sc_core13sc_cor_pkg_qt8get_mainEv
605fe790 T __ZN7sc_core13sc_cor_pkg_qtD1Ev
605fe7c0 t __Z41__static_initialization_and_destruction_0ii
605fe848 t __GLOBAL__I__ZN7sc_core9sc_cor_qt13stack_protectEb
605fe85c t ___tcf_0
605fe874 T __ZN7sc_core13sc_cor_pkg_qt5abortEPNS_6sc_corE
605fe8a0 T __ZN7sc_core13sc_cor_pkg_qt5yieldEPNS_6sc_corE
605fe8cc T __ZN7sc_core13sc_cor_pkg_qtC2EPNS_13sc_simcontextE
605fe93c T __ZN7sc_core13sc_cor_pkg_qt6createEjPFvPvES1_
605fe9e0 T __ZN7sc_core13sc_cor_pkg_qtC1EPNS_13sc_simcontextE
605fea4c T __ZN7sc_core13sc_cor_pkg_qtD2Ev
605fea7c T __ZN7sc_core13sc_cor_pkg_qtD0Ev
605feab0 t ___tcf_1
605feaf0 t .text
605feaf0 T __ZN7sc_core11sc_ppq_base7heapifyEi
605feb94 T __ZN7sc_core11sc_ppq_baseC1EiPFiPKvS2_E
605febf8 T __ZN7sc_core11sc_ppq_baseC2EiPFiPKvS2_E
605fec5c T __ZN7sc_core11sc_ppq_baseD1Ev
605fec78 T __ZN7sc_core11sc_ppq_baseD2Ev
605fec94 T __ZN7sc_core11sc_ppq_base11extract_topEv
605fecdc T __ZN7sc_core11sc_ppq_base6insertEPv
605fedc0 t .text
605fedc0 T __ZN7sc_core12sc_allocatorC2Eii
605fee10 T __ZN7sc_core12sc_allocatorC1Eii
605fee60 T __ZN7sc_core12sc_allocatorD2Ev
605fee68 T __ZN7sc_core12sc_allocatorD1Ev
605fee70 T __ZN7sc_core12sc_allocator7releaseEPv
605fee88 T __ZN7sc_core14sc_mempool_int10do_releaseEPvj
605feeb0 t __Z41__static_initialization_and_destruction_0ii
605feee4 t __GLOBAL__I__ZN7sc_core12sc_allocatorC2Eii
605feef4 t ___tcf_0
605fef0c T __ZN7sc_core10sc_mempool7releaseEPvj
605fef4c t __ZN7sc_core23compute_use_default_newEv
605fef7c T __ZN7sc_core14sc_mempool_intD1Ev
605fefcc T __ZN7sc_core14sc_mempool_intD2Ev
605ff01c T __ZN7sc_core14sc_mempool_intC1Eiii
605ff0e0 T __ZN7sc_core14sc_mempool_intC2Eiii
605ff1a4 T __ZN7sc_core12sc_allocator18display_statisticsEv
605ff1e4 T __ZN7sc_core14sc_mempool_int18display_statisticsEv
605ff228 T __ZN7sc_core10sc_mempool18display_statisticsEv
605ff264 T __ZN7sc_core12sc_allocator8allocateEv
605ff2d8 T __ZN7sc_core14sc_mempool_int11do_allocateEj
605ff304 T __ZN7sc_core10sc_mempool8allocateEj
605ff3a0 t .text
605ff3a0 T _set_error_file_for_fprintf_wrapper
605ff3ad T _counted_fprintf
605ff463 T _counted_printf
605ff501 T _counted_fwrite
605ff561 T _counted_fputs
605ff5bb T _fprintf_incr_error
605ff60d T _fwrite_incr_error
605ff652 T _fputs_incr_error
605ff694 T _fprintf_incr_warning
605ff6e6 T _fwrite_incr_warning
605ff72b T _fputs_incr_warning
605ff770 t .text
605ff770 T __ZN5sc_dt6sc_bit18mti_get_value_sizeEPiS1_S1_
605ff790 T __ZN5sc_dt6sc_bit13mti_get_valueEv
605ff7a4 T __ZN5sc_dt6sc_bit13mti_set_valueEPv
605ff7b8 T __ZNK5sc_dt6sc_bit17mti_get_dpi_valueEPv
605ff7cc T __ZN5sc_dt6sc_bit17mti_set_dpi_valueEPv
605ff7e0 t __Z41__static_initialization_and_destruction_0ii
605ff814 t __GLOBAL__I__ZN5sc_dt6sc_bit13invalid_valueEc
605ff824 t ___tcf_0
605ff83c T __ZN5sc_dt6sc_bit18mti_get_value_typeEv
605ff84c T __ZN5sc_dt20sc_deprecated_sc_bitEv
605ff88c T __ZN5sc_dt6sc_bit13invalid_valueEi
605ff8cc T __ZN5sc_dt6sc_bit13invalid_valueEc
605ff910 T __ZN5sc_dt6sc_bitC1ERKNS_8sc_logicE
605ff95c T __ZN5sc_dt6sc_bitC2ERKNS_8sc_logicE
605ff9a8 T __ZN5sc_dt6sc_bit4scanERSi
605ff9dc T __ZN5sc_dt6sc_bitaSERKNS_8sc_logicE
605ffa10 t .text
605ffa10 T __ZN5sc_dt10sc_bv_base18mti_get_value_sizeEPiS1_S1_
605ffa30 t __Z41__static_initialization_and_destruction_0ii
605ffa70 t __GLOBAL__I__ZN5sc_dt10sc_bv_base4initEib
605ffa80 t ___tcf_0
605ffa98 T __ZN5sc_dt10sc_bv_base18mti_get_value_typeEv
605ffab0 T __ZN5sc_dt10sc_bv_base13mti_get_valueEv
605ffb2c T __ZN5sc_dt10sc_bv_base4initEib
605ffbf4 T __ZNK5sc_dt10sc_bv_base17mti_get_dpi_valueEPv
605ffc6c T __ZN5sc_dt10sc_bv_base17mti_set_dpi_valueEPv
605ffcec T __ZN5sc_dt10sc_bv_base13mti_set_valueEPv
605ffd70 T __ZN5sc_dt10sc_bv_base18assign_from_stringERKSs
605ffec4 T __ZN5sc_dt10sc_bv_baseC1ERKS0_
605fff44 T __ZN5sc_dt10sc_bv_baseC2ERKS0_
605fffc4 T __ZN5sc_dt14convert_to_binEPKc
606006e8 T __ZN5sc_dt10sc_bv_baseaSEPKc
606007c0 T __ZN5sc_dt10sc_bv_baseC1EPKci
606008dc T __ZN5sc_dt10sc_bv_baseC2EPKci
606009f8 T __ZN5sc_dt10sc_bv_baseC1EPKc
60600b18 T __ZN5sc_dt10sc_bv_baseC2EPKc
60600c38 T __ZN5sc_dt14convert_to_fmtERKSsNS_9sc_numrepEb
60600f50 t .text
60600f50 T __ZNK5sc_dt10sc_lv_base5is_01Ev
60600f84 T __ZN5sc_dt10sc_lv_base18mti_get_value_sizeEPiS1_S1_
60600fa4 T __ZN5sc_dt10sc_lv_base13mti_set_valueEPv
60601044 t __Z41__static_initialization_and_destruction_0ii
606010b8 t __GLOBAL__I__ZN5sc_dt10sc_lv_base4initEiRKNS_8sc_logicE
606010cc t ___tcf_0
606010e4 T __ZN5sc_dt10sc_lv_base18mti_get_value_typeEv
606010fc T __ZN5sc_dt10sc_lv_base13mti_get_valueEv
606011bc T __ZN5sc_dt10sc_lv_base4initEiRKNS_8sc_logicE
606012b8 T __ZNK5sc_dt10sc_lv_base17mti_get_dpi_valueEPv
60601354 T __ZN5sc_dt10sc_lv_baseC1ERKS0_
606013f8 T __ZN5sc_dt10sc_lv_baseC2ERKS0_
6060149c T __ZN5sc_dt10sc_lv_base18assign_from_stringERKSs
6060160c T __ZN5sc_dt10sc_lv_base17mti_set_dpi_valueEPv
606016b4 T __ZN5sc_dt10sc_lv_baseC2EPKc
606017e0 T __ZN5sc_dt10sc_lv_baseaSEPKc
60601860 T __ZN5sc_dt10sc_lv_baseC1EPKci
60601930 T __ZN5sc_dt10sc_lv_baseC2EPKci
60601a00 T __ZN5sc_dt10sc_lv_baseC1EPKc
60601b30 t .text
60601b30 T __ZN7sc_core18sc_trace_file_base12delta_cyclesEb
60601b40 t __Z41__static_initialization_and_destruction_0ii
60601b80 t __GLOBAL__I__ZN7sc_core18sc_trace_file_base20tracing_initialized_E
60601b90 t ___tcf_0
60601ba8 T __ZN7sc_core18sc_trace_file_base7open_fpEv
60601c20 T __ZN7sc_core16localtime_stringEv
60601c80 T __ZN7sc_core18sc_trace_file_baseD2Ev
60601db8 T __ZN7sc_core18sc_trace_file_baseD0Ev
60601efc T __ZN7sc_core18sc_trace_file_baseD1Ev
60602034 T __ZN7sc_core18sc_trace_file_baseC2EPKcS2_
60602568 T __ZN7sc_core18sc_trace_file_baseC1EPKcS2_
60602a9c T __ZNK7sc_core18sc_trace_file_base15add_trace_checkERKSs
60602e8c T __ZN7sc_core18sc_trace_file_base10initializeEv
606032f8 T __ZN7sc_core18sc_trace_file_base13set_time_unitEdNS_12sc_time_unitE
60603ea0 T __ZN7sc_core18sc_trace_file_base13set_time_unitEi
60604400 t .text
60604400 T __ZN7sc_core12sc_copyrightEv
6060440c T __ZN7sc_core10sc_versionEv
60604418 t ___tcf_0
60604430 T __ZN7sc_core20sc_api_version_2_3_1IXadL_ZNS_34SC_DISABLE_VIRTUAL_BIND_UNDEFINED_EEEEC1ENS_16sc_writer_policyE
6060447c T __ZN7sc_core20sc_api_version_2_3_1IXadL_ZNS_34SC_DISABLE_VIRTUAL_BIND_UNDEFINED_EEEEC2ENS_16sc_writer_policyE
606044c8 T __ZN7sc_core14is_questa_modeEv
606045f8 T __ZN7sc_core10sc_releaseEv
60604618 t __Z41__static_initialization_and_destruction_0ii
60604708 t __GLOBAL__I__ZN7sc_core16sc_version_majorE
6060471c t ___tcf_5
60604780 t ___tcf_4
606047e4 t ___tcf_3
60604848 t ___tcf_2
606048ac t ___tcf_1
60604910 T __ZN7sc_core3plnEv
60604e10 t .text
60604e10 T __ZNK7sc_core12sc_attr_base4nameEv
60604e1c T __ZN7sc_core12sc_attr_cltn10remove_allEv
60604e2c T __ZN7sc_core12sc_attr_baseD2Ev
60604e98 T __ZN7sc_core12sc_attr_baseC1ERKS0_
60604ebc T __ZN7sc_core12sc_attr_baseC2ERKS0_
60604ee0 T __ZN7sc_core12sc_attr_baseC1ERKSs
60604ef8 T __ZN7sc_core12sc_attr_baseC2ERKSs
60604f10 T __ZN7sc_core12sc_attr_cltnC1Ev
60604f2c T __ZN7sc_core12sc_attr_cltnC2Ev
60604f48 T __ZNK7sc_core12sc_attr_cltnixERKSs
60604fd8 T __ZN7sc_core12sc_attr_cltnC1ERKS0_
60605058 T __ZN7sc_core12sc_attr_cltnixERKSs
606050e8 T __ZN7sc_core12sc_attr_cltn9push_backEPNS_12sc_attr_baseE
606051c8 T __ZN7sc_core12sc_attr_baseD0Ev
60605244 T __ZN7sc_core12sc_attr_baseD1Ev
606052b0 T __ZN7sc_core12sc_attr_cltn6removeERKSs
60605370 T __ZN7sc_core12sc_attr_cltnC2ERKS0_
606053f0 T __ZN7sc_core12sc_attr_cltnD2Ev
6060541c T __ZN7sc_core12sc_attr_cltnD1Ev
60605450 t .text
60605450 T __ZN7sc_core17sc_interrupt_hereEPKcNS_11sc_severityE
60605488 T __ZN7sc_core12sc_stop_hereEPKcNS_11sc_severityE
606054c0 t .text
606054c0 T __ZN7sc_core13sc_phash_base11set_cmpr_fnEPFiPKvS2_E
606054d0 T __ZN7sc_core13sc_phash_base11set_hash_fnEPFjPKvE
606054e0 T __ZN7sc_core13sc_phash_base12find_entry_qEjPKvPPPNS_13sc_phash_elemE
60605538 T __ZN7sc_core13sc_phash_base12find_entry_cEjPKvPPPNS_13sc_phash_elemE
606055ac T __ZN7sc_core18sc_phash_base_iter5resetEPNS_13sc_phash_baseE
60605630 T __ZNK7sc_core18sc_phash_base_iter5emptyEv
60605644 T __ZN7sc_core18sc_phash_base_iter4stepEv
606056ec T __ZNK7sc_core18sc_phash_base_iter3keyEv
606056fc T __ZNK7sc_core18sc_phash_base_iter8contentsEv
6060570c T __ZN7sc_core18sc_phash_base_iter12set_contentsEPv
60605720 T __ZN7sc_core19default_ptr_hash_fnEPKv
60605758 T __ZN7sc_core19default_int_hash_fnEPKv
6060578c T __ZN7sc_core19default_str_hash_fnEPKv
606057d4 t __Z41__static_initialization_and_destruction_0ii
60605808 t __GLOBAL__I__ZN7sc_core25PHASH_DEFAULT_GROW_FACTORE
60605818 t ___tcf_0
60605830 T __ZN7sc_core16sc_strhash_kfreeEPv
60605844 T __ZN7sc_core15sc_strhash_kdupEPKv
6060587c T __ZN7sc_core14sc_strhash_cmpEPKvS1_
60605888 T __ZN7sc_core13sc_phash_base5eraseEPFvPvE
60605918 T __ZN7sc_core13sc_phash_base5eraseEv
60605998 T __ZN7sc_core13sc_phash_baseC1EPviidbPFjPKvEPFiS3_S3_E
60605a2c T __ZN7sc_core13sc_phash_baseC2EPviidbPFjPKvEPFiS3_S3_E
60605ac0 T __ZN7sc_core13sc_phash_base6rehashEv
60605ba4 T __ZN7sc_core13sc_phash_baseD2Ev
60605c08 T __ZN7sc_core18sc_phash_base_iter6removeEPFvPvE
60605c54 T __ZN7sc_core18sc_phash_base_iter6removeEv
60605c94 T __ZN7sc_core13sc_phash_base18remove_by_contentsEPFbPKvPvES3_PFvS3_E
60605d30 T __ZN7sc_core13sc_phash_base18remove_by_contentsEPKvPFvPvE
60605dc0 T __ZN7sc_core13sc_phash_base18remove_by_contentsEPFbPKvPvES3_
60605e54 T __ZN7sc_core13sc_phash_base18remove_by_contentsEPKv
60605edc T __ZN7sc_core13sc_phash_baseD1Ev
60605f40 T __ZN7sc_core13sc_phash_base10add_directEPvS1_j
60605fa8 T __ZN7sc_core13sc_phash_base6insertEPvS1_
60606014 T __ZN7sc_core13sc_phash_base4copyERKS0_PFPvPKvEPFvS3_E
606060a8 T __ZN7sc_core13sc_phash_base4copyEPKS0_
6060612c T __ZNK7sc_core13sc_phash_base6lookupEPKvPPv
606061a0 T __ZNK7sc_core13sc_phash_baseixEPKv
606061bc T __ZN7sc_core13sc_phash_base6removeEPKvPPvS4_
60606274 T __ZN7sc_core13sc_phash_base6removeEPKvPFvPvE
606062ac T __ZN7sc_core13sc_phash_base6removeEPKv
60606344 T __ZN7sc_core13sc_phash_base20insert_if_not_existsEPvS1_PFS1_PKvE
606063c0 T __ZN7sc_core13sc_phash_base20insert_if_not_existsEPvS1_
60606430 T __ZN7sc_core13sc_phash_base6insertEPvS1_PFS1_PKvE
606064b0 t .text
606064b0 T __ZN5sc_dt7vec_addEiPKjiS1_Pj
60606540 T __ZN5sc_dt10vec_add_onEiPjiPKj
606065ac T __ZN5sc_dt11vec_add_on2EiPjiPKj
606065ec T __ZN5sc_dt13vec_add_smallEiPKjjPj
60606640 T __ZN5sc_dt16vec_add_small_onEiPjj
60606678 T __ZN5sc_dt7vec_subEiPKjiS1_Pj
60606710 T __ZN5sc_dt10vec_sub_onEiPjiPKj
6060678c T __ZN5sc_dt13vec_sub_smallEiPKjjPj
606067fc T __ZN5sc_dt16vec_sub_small_onEiPjj
60606838 T __ZN5sc_dt16vec_mul_small_onEiPjj
606068a4 T __ZN5sc_dt11vec_to_charEiPKjiPh
60606994 T __ZN5sc_dt13vec_from_charEiPKhiPj
60606a00 t __Z41__static_initialization_and_destruction_0ii
60606a34 t __GLOBAL__I__ZN5sc_dt9to_stringENS_9sc_numrepE
60606a44 t ___tcf_0
60606a5c T __ZN5sc_dt13vec_rem_largeEiPKjiS1_Pj
60606c68 T __ZN5sc_dt13vec_div_largeEiPKjiS1_Pj
60606ed4 T __ZN5sc_dt14parse_hex_bitsEPKciPjS2_
606072a4 T __ZN5sc_dt17parse_binary_bitsEPKciPjS2_
606075ac T __ZN5sc_dt8fsm_moveEcRcS0_S0_
606076a4 T __ZN5sc_dt17get_base_and_signEPKcRcS2_
60607784 T __ZN5sc_dt9to_stringENS_9sc_numrepE
606078b0 T __ZN5sc_dt7vec_mulEiPKjiS1_Pj
606079b8 T __ZN5sc_dt16vec_rem_on_smallEiPjj
60607a28 T __ZN5sc_dt13vec_rem_smallEiPKjj
60607a90 T __ZN5sc_dt13vec_div_smallEiPKjjPj
60607b04 T __ZN5sc_dt13vec_mul_smallEiPKjjPj
60607b88 T __ZN5sc_dt11vec_sub_on2EiPjiPKj
60607bdc T __ZN5sc_dt15vec_shift_rightEiPjij
60607d4c T __ZN5sc_dt11vec_reverseEiiPjii
60607f1c T __ZN5sc_dt14vec_shift_leftEiPji
60608064 T __ZN5sc_dt12vec_from_strEiiPjPKcNS_9sc_numrepE
60608520 t .text
60608520 T __ZN5sc_dt11and_on_helpEciiPjciiPKj
6060871c t __Z41__static_initialization_and_destruction_0ii
60608750 t __GLOBAL__I__ZN5sc_dt11add_on_helpERciiPjciiPKj
60608760 t ___tcf_0
60608778 T __ZN5sc_dt11add_on_helpERciiPjciiPKj
606088dc T __ZN5sc_dt11xor_on_helpEciiPjciiPKj
60608ad4 T __ZN5sc_dt10or_on_helpEciiPjciiPKj
60608cc8 T __ZN5sc_dt20div_on_help_unsignedERciiPjiiPKj
60609014 T __ZN5sc_dt20mul_on_help_unsignedERciiPjiiPKj
606094bc T __ZN5sc_dt20mod_on_help_unsignedERciiPjiiPKj
606097c0 T __ZN5sc_dt18mod_on_help_signedERciiPjiiPKj
60609b4c T __ZN5sc_dt18div_on_help_signedERciiPjiiPKj
60609f64 T __ZN5sc_dt18mul_on_help_signedERciiPjiiPKj
6060a570 t .text
6060a570 t __Z41__static_initialization_and_destruction_0ii
6060a5b0 t __GLOBAL__I__ZN5sc_dt10scfx_pow10C2Ev
6060a5c0 t ___tcf_0
6060a5d8 T __ZN5sc_dt10scfx_pow103negEi
6060a64c T __ZN5sc_dt10scfx_pow103posEi
6060a6a4 T __ZN5sc_dt10scfx_pow10D1Ev
6060a744 T __ZN5sc_dt10scfx_pow10D2Ev
6060a7e4 T __ZN5sc_dt10scfx_pow10C2Ev
6060abe8 T __ZN5sc_dt10scfx_pow10clEi
6060af7c T __ZN5sc_dt10scfx_pow10C1Ev
6060b380 t .text
6060b380 t __Z41__static_initialization_and_destruction_0ii
6060b3c0 t __GLOBAL__I__ZN5sc_dt11scfx_tc2csdERNS_11scfx_stringEi
6060b3d0 t ___tcf_0
6060b3e8 T __ZN5sc_dt11scfx_csd2tcERNS_11scfx_stringE
6060bc54 T __ZN5sc_dt11scfx_tc2csdERNS_11scfx_stringEi
6060c3a0 t .text
6060c3a0 t __Z41__static_initialization_and_destruction_0ii
6060c3d4 t __GLOBAL__I__ZN5sc_dt9to_stringENS_6sc_encE
6060c3e4 t ___tcf_0
6060c3fc T __ZN5sc_dt9to_stringENS_6sc_encE
6060c478 T __ZN5sc_dt9to_stringENS_6sc_fmtE
6060c4f4 T __ZN5sc_dt9to_stringENS_9sc_switchE
6060c570 T __ZN5sc_dt9to_stringENS_9sc_o_modeE
6060c648 T __ZN5sc_dt9to_stringENS_9sc_q_modeE
6060c760 t .text
6060c760 t __Z41__static_initialization_and_destruction_0ii
6060c7a0 t __GLOBAL__I__ZNK5sc_dt16sc_fxtype_params9to_stringEv
6060c7b0 t ___tcf_0
6060c7c8 T __ZNK5sc_dt16sc_fxtype_params9to_stringEv
6060cae0 T __ZNK5sc_dt16sc_fxtype_params5printERSo
6060cbb0 T __ZNK5sc_dt16sc_fxtype_params4dumpERSo
6060ce60 t .text
6060ce60 t __Z41__static_initialization_and_destruction_0ii
6060cea0 t __GLOBAL__I__ZNK5sc_dt16sc_fxcast_switch9to_stringEv
6060ceb0 t ___tcf_0
6060cec8 T __ZNK5sc_dt16sc_fxcast_switch9to_stringEv
6060cee8 T __ZNK5sc_dt16sc_fxcast_switch5printERSo
6060cfbc T __ZNK5sc_dt16sc_fxcast_switch4dumpERSo
6060d0f0 t .text
6060d0f0 T __ZNK5sc_dt8sc_fxval13lock_observerEv
6060d104 T __ZNK5sc_dt8sc_fxval15unlock_observerEPNS_17sc_fxval_observerE
6060d114 T __ZNK5sc_dt13sc_fxval_fast7get_bitEi
6060d1e8 T __ZNK5sc_dt13sc_fxval_fast13lock_observerEv
6060d1fc T __ZNK5sc_dt13sc_fxval_fast15unlock_observerEPNS_22sc_fxval_fast_observerE
6060d20c t __Z41__static_initialization_and_destruction_0ii
6060d24c t __GLOBAL__I__ZNK5sc_dt8sc_fxval9to_stringEv
6060d25c t ___tcf_1
6060d274 t ___tcf_0
6060d294 T __ZNK5sc_dt8sc_fxval5printERSo
6060d2a8 T __ZNK5sc_dt8sc_fxval6to_hexEv
6060d2e8 T __ZNK5sc_dt8sc_fxval9to_stringEv
6060d328 T __ZNK5sc_dt8sc_fxval6to_octEv
6060d368 T __ZNK5sc_dt8sc_fxval6to_binEv
6060d3a8 T __ZNK5sc_dt8sc_fxval6to_decEv
6060d3e8 T __ZNK5sc_dt8sc_fxval9to_stringENS_9sc_numrepEbNS_6sc_fmtE
6060d42c T __ZNK5sc_dt8sc_fxval9to_stringENS_9sc_numrepENS_6sc_fmtE
6060d470 T __ZNK5sc_dt8sc_fxval9to_stringENS_6sc_fmtE
6060d4b0 T __ZNK5sc_dt8sc_fxval9to_stringENS_9sc_numrepEb
6060d4f4 T __ZNK5sc_dt8sc_fxval9to_stringENS_9sc_numrepE
6060d534 T __ZN5sc_dt8sc_fxval4scanERSi
6060d744 T __ZNK5sc_dt13sc_fxval_fast4dumpERSo
6060d7cc T __ZNK5sc_dt8sc_fxval4dumpERSo
6060d840 T __ZN5sc_dt13sc_fxval_fast11from_stringEPKc
6060e478 T __ZN5sc_dt13sc_fxval_fast4scanERSi
6060e554 t __ZN5sc_dt11print_otherERNS_11scfx_stringERKNS_16scfx_ieee_doubleENS_9sc_numrepEiNS_6sc_fmtEPKNS_11scfx_paramsE
6060fd34 t __ZN5sc_dt9print_decERNS_11scfx_stringENS_16scfx_ieee_doubleEiNS_6sc_fmtE
60610ab0 T __ZN5sc_dt9to_stringERKNS_16scfx_ieee_doubleENS_9sc_numrepEiNS_6sc_fmtEPKNS_11scfx_paramsE
606110b0 T __ZNK5sc_dt13sc_fxval_fast5printERSo
6061112c T __ZNK5sc_dt13sc_fxval_fast6to_hexEv
60611178 T __ZNK5sc_dt13sc_fxval_fast6to_octEv
606111c4 T __ZNK5sc_dt13sc_fxval_fast6to_binEv
60611210 T __ZNK5sc_dt13sc_fxval_fast6to_decEv
6061125c T __ZNK5sc_dt13sc_fxval_fast9to_stringENS_9sc_numrepEbNS_6sc_fmtE
606112b0 T __ZNK5sc_dt13sc_fxval_fast9to_stringENS_9sc_numrepENS_6sc_fmtE
60611300 T __ZNK5sc_dt13sc_fxval_fast9to_stringENS_6sc_fmtE
60611350 T __ZNK5sc_dt13sc_fxval_fast9to_stringENS_9sc_numrepEb
606113a0 T __ZNK5sc_dt13sc_fxval_fast9to_stringENS_9sc_numrepE
606113f0 T __ZNK5sc_dt13sc_fxval_fast9to_stringEv
60611440 t .text
60611440 T _qt_abort
60611440 T _qt_block
60611440 T _qt_blocki
60611440 T qt_abort
60611440 T qt_block
60611440 T qt_blocki
60611446 t qt_common
6061145d T _qt_align
6061145d T qt_align
6061145e T _qt_tramp
6061145e T qt_tramp
60611468 T _qt_vstart
60611468 T qt_vstart
60611480 t .text
60611480 T _qt_null
60611485 T _qt_error
60611490 t .text
60611490 T _msg_system_inc_suppressed_error_cnt
606114ac T _msg_system_inc_suppressed_warning_cnt
606114c8 T _msg_system_inc_total_err_count
606114e4 T _msg_system_inc_total_warning_count
60611500 T _msgCheckErrorWarning
60611b33 T _msgGetMsgCounts
60611b7c T _msgAdd2MsgCounts
60611bb5 T _msgZeroMsgCounts
60611be2 T _msgResetCountIncrMask
60611bf0 t .text
60611bf0 t __Z12read_uleb128PKhPj
60611c2c t __Z12read_sleb128PKhPi
60611c84 t __Z16get_adjusted_ptrPKSt9type_infoS1_PPv
60611ce0 t __Z28read_encoded_value_with_basehjPKhPj
60611d94 t __Z21base_of_encoded_valuehP15_Unwind_Context
60611df8 t __Z17parse_lsda_headerP15_Unwind_ContextPKhP16lsda_header_info
60611eb0 t __Z15get_ttype_entryP16lsda_header_infoj
60611f20 t __Z20check_exception_specP16lsda_header_infoPKSt9type_infoPvi
60611f7c T ___cxa_call_unexpected
60612050 T ___gxx_personality_v0
60612400 t .text
60612400 t .text
60612400 T __ZNKSt8bad_cast4whatEv
6061240c T __ZNKSt10bad_typeid4whatEv
60612418 T __ZNKSt9type_info14__is_pointer_pEv
60612420 T __ZNKSt9type_info15__is_function_pEv
60612428 T __ZNKSt9type_info11__do_upcastEPKN10__cxxabiv117__class_type_infoEPPv
60612430 T __ZNK10__cxxabiv117__class_type_info11__do_upcastEPKS0_PPv
60612490 T __ZNK10__cxxabiv117__class_type_info20__do_find_public_srcEiPKvPKS0_S2_
606124a8 T __ZNSt9type_infoD0Ev
606124bc T __ZNSt9type_infoD1Ev
606124cc T __ZNSt9type_infoD2Ev
606124dc T __ZN10__cxxabiv117__class_type_infoD0Ev
60612500 T __ZN10__cxxabiv117__class_type_infoD1Ev
60612510 T __ZN10__cxxabiv117__class_type_infoD2Ev
60612520 T __ZN10__cxxabiv121__vmi_class_type_infoD0Ev
60612544 T __ZN10__cxxabiv121__vmi_class_type_infoD1Ev
60612554 T __ZN10__cxxabiv121__vmi_class_type_infoD2Ev
60612564 T __ZN10__cxxabiv120__si_class_type_infoD0Ev
60612588 T __ZN10__cxxabiv120__si_class_type_infoD1Ev
6061259c T __ZN10__cxxabiv120__si_class_type_infoD2Ev
606125b0 T __ZNKSt9type_infoeqERKS_
606125e4 T __ZNK10__cxxabiv117__class_type_info11__do_upcastEPKS0_PKvRNS0_15__upcast_resultE
60612628 T __ZNK10__cxxabiv120__si_class_type_info11__do_upcastEPKNS_17__class_type_infoEPKvRNS1_15__upcast_resultE
60612678 T __ZNK10__cxxabiv120__si_class_type_info12__do_dyncastEiNS_17__class_type_info10__sub_kindEPKS1_PKvS4_S6_RNS1_16__dyncast_resultE
60612734 T __ZNK10__cxxabiv117__class_type_info12__do_dyncastEiNS0_10__sub_kindEPKS0_PKvS3_S5_RNS0_16__dyncast_resultE
60612794 T __ZNK10__cxxabiv120__si_class_type_info20__do_find_public_srcEiPKvPKNS_17__class_type_infoES2_
60612800 T __ZNK10__cxxabiv117__class_type_info10__do_catchEPKSt9type_infoPPvj
60612850 T __ZNKSt9type_info10__do_catchEPKS_PPvj
6061286c T __ZNSt10bad_typeidD0Ev
60612894 T __ZNSt10bad_typeidD1Ev
606128a8 T __ZNSt10bad_typeidD2Ev
606128bc T __ZNSt8bad_castD0Ev
606128e4 T __ZNSt8bad_castD1Ev
606128f8 T __ZNSt8bad_castD2Ev
6061290c T __ZNK10__cxxabiv121__vmi_class_type_info20__do_find_public_srcEiPKvPKNS_17__class_type_infoES2_
606129b4 T __ZNK10__cxxabiv121__vmi_class_type_info11__do_upcastEPKNS_17__class_type_infoEPKvRNS1_15__upcast_resultE
60612bbc T ___dynamic_cast
60612c98 T __ZNK10__cxxabiv121__vmi_class_type_info12__do_dyncastEiNS_17__class_type_info10__sub_kindEPKS1_PKvS4_S6_RNS1_16__dyncast_resultE
60613150 t .text
60613150 t .text
60613150 T __ZNSt8ios_base4InitD1Ev
606131f0 T __ZNSt8ios_base4InitD2Ev
60613294 T __ZNSt8ios_base4InitC1Ev
60613ab8 T __ZNSt8ios_base15sync_with_stdioEb
60613cd4 T __ZNSt8ios_base4InitC2Ev
60614500 t .text
60614500 t .text
60614500 t .text
60614500 t .text
60614500 T ___cxa_pure_virtual
60614520 t .text
60614520 T __Znwj
60614590 t .text
60614590 T __ZdaPv
606145a0 t .text
606145a0 T __ZdlPv
606145c0 t .text
606145c0 T __ZN9__gnu_cxx18__exchange_and_addEPVii
606145ec T __ZN9__gnu_cxx12__atomic_addEPVii
60614600 t .text
60614600 T ___cxa_get_exception_ptr
6061460c T __ZSt18uncaught_exceptionv
60614624 T ___cxa_end_catch
6061469c T ___cxa_begin_catch
60614720 t .text
60614720 T __ZSt13set_terminatePFvvE
60614734 T __ZSt14set_unexpectedPFvvE
60614748 T __ZN10__cxxabiv111__terminateEPFvvE
60614764 T __ZSt9terminatev
60614778 T __ZN10__cxxabiv112__unexpectedEPFvvE
60614788 T __ZSt10unexpectedv
606147a0 t .text
606147a0 T __ZNSt13basic_istreamIwSt11char_traitsIwEE6ignoreEit
60614a34 T __ZNSi7getlineEPcic
60614c98 T __ZNSt13basic_istreamIwSt11char_traitsIwEE7getlineEPwiw
60614f24 T __ZSt7getlineIwSt11char_traitsIwESaIwEERSt13basic_istreamIT_T0_ES7_RSbIS4_S5_T1_ES4_
60615218 T __ZSt7getlineIcSt11char_traitsIcESaIcEERSt13basic_istreamIT_T0_ES7_RSbIS4_S5_T1_ES4_
606154e0 T __ZStrsIcSt11char_traitsIcESaIcEERSt13basic_istreamIT_T0_ES7_RSbIS4_S5_T1_E
6061580c T __ZStrsIcSt11char_traitsIcEERSt13basic_istreamIT_T0_ES6_PS3_
60615ab4 T __ZNSi6ignoreEii
60615d10 t .text
60615d10 t .text
60615d10 T __Znaj
60615d40 t .text
60615d40 t __ZN10__cxxabiv17acquireEPx
60615d8c T __ZN9__gnu_cxx20recursive_init_errorD0Ev
60615db4 T __ZN9__gnu_cxx20recursive_init_errorD1Ev
60615dc8 T __ZN9__gnu_cxx20recursive_init_errorD2Ev
60615ddc t __ZN88_GLOBAL__N_.._.._.._.._gcc_4.2.1_2_src_libstdc___v3_libsupc___guard.cc_00000000_E811042716get_static_mutexEv
60615e08 t __ZN88_GLOBAL__N_.._.._.._.._gcc_4.2.1_2_src_libstdc___v3_libsupc___guard.cc_00000000_E81104274initEv
60615e4c T ___cxa_guard_release
60615ea0 T ___cxa_guard_abort
60615ef0 T ___cxa_guard_acquire
60616010 t .text
60616010 t __Z41__static_initialization_and_destruction_0ii
60616040 t __GLOBAL__I__ZN91_GLOBAL__N_.._.._.._.._gcc_4.2.1_2_src_libstdc___v3_libsupc___eh_alloc.cc_00000000_7E3F0A1A15emergency_mutexE
60616050 T ___cxa_free_exception
60616144 T ___cxa_allocate_exception
606162b0 t .text
606162b0 T ___cxa_rethrow
60616304 T ___cxa_throw
6061635c t __Z23__gxx_exception_cleanup19_Unwind_Reason_CodeP17_Unwind_Exception
606163b0 t .text
606163b0 t .text
606163b0 t .text
606163b0 T __ZSt18__throw_bad_typeidv
606163d8 T __ZSt16__throw_bad_castv
60616400 T __ZSt17__throw_bad_allocv
60616428 T __ZSt21__throw_bad_exceptionv
60616450 T __ZSt19__throw_ios_failurePKc
606164f0 T __ZSt23__throw_underflow_errorPKc
606165f0 T __ZSt22__throw_overflow_errorPKc
606166f0 T __ZSt24__throw_invalid_argumentPKc
606167f0 T __ZSt20__throw_domain_errorPKc
606168f0 T __ZSt19__throw_logic_errorPKc
606169f0 T __ZSt19__throw_range_errorPKc
60616af0 T __ZSt21__throw_runtime_errorPKc
60616bf0 T __ZSt20__throw_out_of_rangePKc
60616cf0 T __ZSt20__throw_length_errorPKc
60616df0 t .text
60616df0 t .text
60616df0 t .text
60616df0 T __ZNSt8ios_base20_M_dispose_callbacksEv
60616e5c T __ZNSt8ios_base17_M_call_callbacksENS_5eventE
60616eb8 T __ZNSt8ios_base17register_callbackEPFvNS_5eventERS_iEi
60616eec T __ZNSt8ios_baseD0Ev
60616f68 T __ZNSt8ios_baseD1Ev
60616fd8 T __ZNSt8ios_baseD2Ev
60617048 T __ZNSt8ios_baseC2Ev
606170c4 T __ZNSt8ios_baseC1Ev
60617140 T __ZNSt8ios_base13_M_grow_wordsEib
606172a4 T __ZNSt8ios_base6xallocEv
60617300 t .text
60617300 t __ZN88_GLOBAL__N_.._.._.._.._gcc_4.2.1_2_src_libstdc___v3_src_locale_init.cc_00000000_B04EA40616get_locale_mutexEv
6061737c T __ZNSt6locale5_ImplC2Ej
606181b0 T __ZNSt6locale5_ImplC1Ej
60618fe4 T __ZNSt6locale18_S_initialize_onceEv
60619020 T __ZNSt6locale13_S_initializeEv
60619060 T __ZNSt6locale7classicEv
60619074 T __ZNSt6locale6globalERKS_
606192b0 T __ZNSt6localeC1Ev
60619394 T __ZNSt6localeC2Ev
60619480 t .text
60619480 T __ZNSt6localeC2EPNS_5_ImplE
60619490 T __ZNSt6localeC1EPNS_5_ImplE
606194a0 T __ZNSt6locale5facet13_S_get_c_nameEv
606194ac t __Z41__static_initialization_and_destruction_0ii
606194dc t __GLOBAL__I__ZN83_GLOBAL__N_.._.._.._.._gcc_4.2.1_2_src_libstdc___v3_src_locale.cc_00000000_61EDA62218locale_cache_mutexE
606194ec T __ZNKSt6locale2id5_M_idEv
60619534 T __ZNSt6locale5facetD0Ev
60619548 T __ZNSt6locale5facetD1Ev
60619558 T __ZNSt6locale5facetD2Ev
60619568 T __ZNSt6locale21_S_normalize_categoryEi
606195c8 T __ZNSt6locale5facet18_S_initialize_onceEv
606195e4 T __ZNSt6locale5facet15_S_get_c_localeEv
60619608 T __ZNSt6localeC2ERKS_
60619650 T __ZNSt6localeC1ERKS_
60619698 T __ZNSt6locale5_Impl16_M_install_cacheEPKNS_5facetEj
606197ec T __ZNKSt6locale4nameEv
60619a8c T __ZNKSt6localeeqERKS_
60619cc0 T __ZNSt6locale5_Impl16_M_install_facetEPKNS_2idEPKNS_5facetE
60619f6c T __ZNSt6locale5_Impl16_M_replace_facetEPKS0_PKNS_2idE
60619fc0 T __ZNSt6locale5_Impl19_M_replace_categoryEPKS0_PKPKNS_2idE
60619ffc T __ZNSt6locale5_ImplD1Ev
6061a178 T __ZNSt6locale5_ImplC1ERKS0_j
6061a350 T __ZNSt6locale5_ImplC2ERKS0_j
6061a528 T __ZNSt6localeD2Ev
6061a594 T __ZNSt6localeaSERKS_
6061a638 T __ZNSt6localeD1Ev
6061a6a4 T __ZNSt6locale5_ImplD2Ev
6061a820 t .text
6061a820 t .text
6061a820 t __ZN42_GLOBAL__N_basic_file.cc_00000000_7DDA1B7810fopen_modeESt13_Ios_Openmode
6061a890 T __ZNSt12__basic_fileIcEC2EP17__gthread_mutex_t
6061a8a4 T __ZNSt12__basic_fileIcEC1EP17__gthread_mutex_t
6061a8b8 T __ZNKSt12__basic_fileIcE7is_openEv
6061a8cc T __ZNSt12__basic_fileIcE2fdEv
6061a8dc T __ZNSt12__basic_fileIcE4fileEv
6061a8e8 T __ZNSt12__basic_fileIcE9showmanycEv
6061a984 T __ZNSt12__basic_fileIcE4syncEv
6061a998 T __ZNSt12__basic_fileIcE8sys_openEP6_iobufSt13_Ios_Openmode
6061a9f4 t __ZN42_GLOBAL__N_basic_file.cc_00000000_7DDA1B786xwriteEiPKci
6061aa38 T __ZNSt12__basic_fileIcE8xsputn_2EPKciS2_i
6061aa80 T __ZNSt12__basic_fileIcE6xsputnEPKci
6061aaa4 T __ZNSt12__basic_fileIcE6xsgetnEPci
6061aae8 T __ZNSt12__basic_fileIcE5closeEv
6061ab48 T __ZNSt12__basic_fileIcED1Ev
6061ab50 T __ZNSt12__basic_fileIcED2Ev
6061ab58 T __ZNSt12__basic_fileIcE4openEPKcSt13_Ios_Openmodei
6061aba4 T __ZNSt12__basic_fileIcE8sys_openEiSt13_Ios_Openmode
6061ac08 T __ZNSt12__basic_fileIcE7seekoffExSt12_Ios_Seekdir
6061ac20 t .text
6061ac20 T __ZNKSt9exception4whatEv
6061ac2c T __ZNKSt13bad_exception4whatEv
6061ac38 T __ZNSt9exceptionD0Ev
6061ac4c T __ZNSt9exceptionD1Ev
6061ac5c T __ZNSt9exceptionD2Ev
6061ac6c T __ZNSt13bad_exceptionD0Ev
6061ac90 T __ZNSt13bad_exceptionD1Ev
6061aca0 T __ZNSt13bad_exceptionD2Ev
6061acb0 t .text
6061acb0 T __ZNK10__cxxabiv119__pointer_type_info14__is_pointer_pEv
6061acbc T __ZNK10__cxxabiv120__function_type_info15__is_function_pEv
6061acc8 T __ZNK10__cxxabiv117__pbase_type_info10__do_catchEPKSt9type_infoPPvj
6061ad58 T __ZN10__cxxabiv117__pbase_type_infoD0Ev
6061ad80 T __ZN10__cxxabiv117__pbase_type_infoD1Ev
6061ad94 T __ZN10__cxxabiv117__pbase_type_infoD2Ev
6061ada8 T __ZN10__cxxabiv129__pointer_to_member_type_infoD0Ev
6061add0 T __ZN10__cxxabiv129__pointer_to_member_type_infoD1Ev
6061ade0 T __ZN10__cxxabiv129__pointer_to_member_type_infoD2Ev
6061adf0 T __ZN10__cxxabiv119__pointer_type_infoD0Ev
6061ae18 T __ZN10__cxxabiv119__pointer_type_infoD1Ev
6061ae2c T __ZN10__cxxabiv119__pointer_type_infoD2Ev
6061ae40 T __ZN10__cxxabiv116__enum_type_infoD0Ev
6061ae68 T __ZN10__cxxabiv116__enum_type_infoD1Ev
6061ae7c T __ZN10__cxxabiv116__enum_type_infoD2Ev
6061ae90 T __ZN10__cxxabiv120__function_type_infoD0Ev
6061aeb8 T __ZN10__cxxabiv120__function_type_infoD1Ev
6061aecc T __ZN10__cxxabiv120__function_type_infoD2Ev
6061aee0 T __ZN10__cxxabiv117__array_type_infoD0Ev
6061af08 T __ZN10__cxxabiv117__array_type_infoD1Ev
6061af1c T __ZN10__cxxabiv117__array_type_infoD2Ev
6061af30 T __ZN10__cxxabiv123__fundamental_type_infoD0Ev
6061af58 T __ZN10__cxxabiv123__fundamental_type_infoD1Ev
6061af6c T __ZN10__cxxabiv123__fundamental_type_infoD2Ev
6061af80 T __ZNKSt9type_info6beforeERKS_
6061afa0 T __ZNK10__cxxabiv119__pointer_type_info15__pointer_catchEPKNS_17__pbase_type_infoEPPvj
6061b004 T __ZNK10__cxxabiv129__pointer_to_member_type_info15__pointer_catchEPKNS_17__pbase_type_infoEPPvj
6061b060 t .text
6061b060 T __ZSt18_Rb_tree_incrementPSt18_Rb_tree_node_base
6061b0ac T __ZSt18_Rb_tree_incrementPKSt18_Rb_tree_node_base
6061b0b4 T __ZSt18_Rb_tree_decrementPSt18_Rb_tree_node_base
6061b100 T __ZSt18_Rb_tree_decrementPKSt18_Rb_tree_node_base
6061b108 T __ZSt20_Rb_tree_rotate_leftPSt18_Rb_tree_node_baseRS0_
6061b158 T __ZSt21_Rb_tree_rotate_rightPSt18_Rb_tree_node_baseRS0_
6061b1a8 T __ZSt29_Rb_tree_insert_and_rebalancebPSt18_Rb_tree_node_baseS0_RS_
6061b2ec T __ZSt20_Rb_tree_black_countPKSt18_Rb_tree_node_baseS1_
6061b318 T __ZSt28_Rb_tree_rebalance_for_erasePSt18_Rb_tree_node_baseRS_
6061b620 t .text
6061b620 T ___cxa_call_terminate
6061b660 t .text
6061b660 t __ZN93_GLOBAL__N_.._.._.._.._gcc_4.2.1_2_src_libstdc___v3_libsupc___eh_globals.cc_00000000_497FC13610get_globalEv
6061b678 T ___cxa_get_globals_fast
6061b680 T ___cxa_get_globals
6061b690 t .text
6061b690 t .text
6061b690 T __ZSt21__copy_streambufs_eofIcSt11char_traitsIcEEiPSt15basic_streambufIT_T0_ES6_Rb
6061b790 T __ZSt21__copy_streambufs_eofIwSt11char_traitsIwEEiPSt15basic_streambufIT_T0_ES6_Rb
6061b8b0 t .text
6061b8b0 T __ZNSt5ctypeIcE13classic_tableEv
6061b8bc T __ZNKSt5ctypeIcE10do_toupperEc
6061b8e4 T __ZNKSt5ctypeIcE10do_toupperEPcPKc
6061b920 T __ZNKSt5ctypeIcE10do_tolowerEPcPKc
6061b95c T __ZNSt5ctypeIcED2Ev
6061b9b8 T __ZSt9use_facetISt5ctypeIwEERKT_RKSt6locale
6061b9d8 T __ZSt9use_facetISt5ctypeIcEERKT_RKSt6locale
6061b9f8 T __ZNSt5ctypeIcEC2EPiPKtbj
6061ba88 T __ZNSt5ctypeIcEC1EPKtbj
6061bb18 T __ZNSt5ctypeIcEC2EPKtbj
6061bba8 T __ZNSt5ctypeIcEC1EPiPKtbj
6061bc38 T __ZNSt5ctypeIcED0Ev
6061bca0 T __ZNSt5ctypeIcED1Ev
6061bcfc T __ZNSt5ctypeIwEC2EPij
6061bd54 t __Z41__static_initialization_and_destruction_0ii
6061bd5c t __GLOBAL__I__ZNSt10ctype_base5spaceE
6061bd64 T __ZNKSt5ctypeIcE10do_tolowerEc
6061bd8c T __ZNSt5ctypeIwEC1Ej
6061bde0 T __ZNSt5ctypeIwEC2Ej
6061be34 T __ZNSt5ctypeIwED0Ev
6061be88 T __ZNSt5ctypeIwED1Ev
6061bed4 T __ZNSt5ctypeIwED2Ev
6061bf20 T __ZNSt12ctype_bynameIwEC1EPKcj
6061bfb4 T __ZNSt12ctype_bynameIwEC2EPKcj
6061c048 T __ZNSt5ctypeIwEC1EPij
6061c0a0 t .text
6061c0a0 t .text
6061c0a0 T __ZSt15set_new_handlerPFvvE
6061c0b4 T __ZNKSt9bad_alloc4whatEv
6061c0c0 T __ZNSt9bad_allocD0Ev
6061c0e8 T __ZNSt9bad_allocD1Ev
6061c0fc T __ZNSt9bad_allocD2Ev
6061c110 t .text
6061c110 t .text
6061c110 t .text
6061c110 T __ZNSi6ignoreEi
6061c2f0 T __ZNSt13basic_istreamIwSt11char_traitsIwEE6ignoreEi
6061c500 t .text
6061c500 t __ZSt17__verify_groupingPKcjRKSs
6061c5a8 t __Z41__static_initialization_and_destruction_0ii
6061c680 t __GLOBAL__I_.._.._.._.._gcc_4.2.1_2_src_libstdc___v3_src_locale_inst.cc_6FCA3617_1C18F898
6061c6a0 t .text
6061c6a0 T __ZNSt8ios_base5imbueERKSt6locale
6061c6dc T __ZNSt8ios_base7_M_initEv
6061c730 t .text
6061c730 t __ZSt17__verify_groupingPKcjRKSs
6061c7d8 t __Z41__static_initialization_and_destruction_0ii
6061c8b0 t __GLOBAL__I_.._.._.._.._gcc_4.2.1_2_src_libstdc___v3_src_wlocale_inst.cc_76D38880_5E342390
6061c8d0 t .text
6061c8d0 T __ZNKSt13runtime_error4whatEv
6061c8dc T __ZNSt11logic_errorD1Ev
6061c970 T __ZNSt13runtime_errorC2ERKSs
6061c9ac T __ZNSt15underflow_errorC1ERKSs
6061c9d0 T __ZNSt15underflow_errorC2ERKSs
6061c9f4 T __ZNSt14overflow_errorC1ERKSs
6061ca18 T __ZNSt14overflow_errorC2ERKSs
6061ca3c T __ZNSt11range_errorC1ERKSs
6061ca60 T __ZNSt11range_errorC2ERKSs
6061ca84 T __ZNSt11logic_errorC1ERKSs
6061cac0 T __ZNSt11logic_errorC2ERKSs
6061cafc T __ZNSt12out_of_rangeC1ERKSs
6061cb20 T __ZNSt12out_of_rangeC2ERKSs
6061cb44 T __ZNSt12length_errorC1ERKSs
6061cb68 T __ZNSt12length_errorC2ERKSs
6061cb8c T __ZNSt16invalid_argumentC1ERKSs
6061cbb0 T __ZNSt16invalid_argumentC2ERKSs
6061cbd4 T __ZNSt12domain_errorC1ERKSs
6061cbf8 T __ZNSt12domain_errorC2ERKSs
6061cc1c T __ZNKSt11logic_error4whatEv
6061cc28 T __ZNSt13runtime_errorC1ERKSs
6061cc64 T __ZNSt13runtime_errorD1Ev
6061ccf8 T __ZNSt13runtime_errorD2Ev
6061cd8c T __ZNSt13runtime_errorD0Ev
6061ce28 T __ZNSt11logic_errorD2Ev
6061cebc T __ZNSt11logic_errorD0Ev
6061cf60 t .text
6061cf60 T __ZNKSt8ios_base7failure4whatEv
6061cf6c T __ZNSt8ios_base7failureD1Ev
6061d000 T __ZNSt8ios_base7failureC1ERKSs
6061d04c T __ZNSt8ios_base7failureC2ERKSs
6061d098 T __ZNSt8ios_base7failureD2Ev
6061d12c T __ZNSt8ios_base7failureD0Ev
6061d1d0 t .text
6061d1d0 T __ZNKSt7codecvtIcciE6do_outERiPKcS3_RS3_PcS5_RS5_
6061d1ec T __ZNKSt7codecvtIcciE10do_unshiftERiPcS2_RS2_
6061d200 T __ZNKSt7codecvtIcciE5do_inERiPKcS3_RS3_PcS5_RS5_
6061d21c T __ZNKSt7codecvtIcciE11do_encodingEv
6061d228 T __ZNKSt7codecvtIcciE16do_always_noconvEv
6061d234 T __ZNKSt7codecvtIcciE13do_max_lengthEv
6061d240 T __ZNKSt7codecvtIwciE10do_unshiftERiPcS2_RS2_
6061d254 T __ZNKSt7codecvtIwciE16do_always_noconvEv
6061d25c T __ZNKSt7codecvtIcciE9do_lengthERiPKcS3_j
6061d284 t __Z41__static_initialization_and_destruction_0ii
6061d28c t __GLOBAL__I__ZNSt7codecvtIcciE2idE
6061d294 T __ZNSt7codecvtIcciED2Ev
6061d2e0 T __ZNSt7codecvtIcciEC1EPij
6061d32c T __ZNSt7codecvtIcciEC2EPij
6061d378 T __ZNSt7codecvtIcciEC1Ej
6061d3bc T __ZNSt7codecvtIcciEC2Ej
6061d400 T __ZNSt7codecvtIwciED0Ev
6061d454 T __ZNSt7codecvtIwciEC1EPij
6061d4a0 T __ZNSt7codecvtIwciEC2EPij
6061d4ec T __ZNSt7codecvtIwciEC1Ej
6061d530 T __ZNSt7codecvtIwciEC2Ej
6061d574 T __ZNSt7codecvtIwciED1Ev
6061d5c0 T __ZNSt7codecvtIwciED2Ev
6061d60c T __ZNSt7codecvtIcciED0Ev
6061d660 T __ZNSt7codecvtIcciED1Ev
6061d6b0 t .text
6061d6b0 T __ZNSt8numpunctIwED0Ev
6061d700 T __ZNSt8numpunctIwED1Ev
6061d744 T __ZNSt8numpunctIwED2Ev
6061d788 T __ZNSt8numpunctIcED0Ev
6061d7d8 T __ZNSt8numpunctIcED1Ev
6061d81c T __ZNSt8numpunctIcED2Ev
6061d860 T __ZNSt8numpunctIwE22_M_initialize_numpunctEPi
6061d964 T __ZNSt8numpunctIcE22_M_initialize_numpunctEPi
6061da70 t .text
6061da70 T __ZNSt10money_base20_S_construct_patternEccc
6061da7c T __ZNSt10moneypunctIwLb0EED0Ev
6061dacc T __ZNSt10moneypunctIwLb0EED1Ev
6061db10 T __ZNSt10moneypunctIwLb0EED2Ev
6061db54 T __ZNSt10moneypunctIwLb1EED0Ev
6061dba4 T __ZNSt10moneypunctIwLb1EED1Ev
6061dbe8 T __ZNSt10moneypunctIwLb1EED2Ev
6061dc2c T __ZNSt10moneypunctIcLb0EED0Ev
6061dc7c T __ZNSt10moneypunctIcLb0EED1Ev
6061dcc0 T __ZNSt10moneypunctIcLb0EED2Ev
6061dd04 T __ZNSt10moneypunctIcLb1EED0Ev
6061dd54 T __ZNSt10moneypunctIcLb1EED1Ev
6061dd98 T __ZNSt10moneypunctIcLb1EED2Ev
6061dddc T __ZNSt10moneypunctIwLb0EE24_M_initialize_moneypunctEPiPKc
6061defc T __ZNSt10moneypunctIwLb1EE24_M_initialize_moneypunctEPiPKc
6061e01c T __ZNSt10moneypunctIcLb0EE24_M_initialize_moneypunctEPiPKc
6061e140 T __ZNSt10moneypunctIcLb1EE24_M_initialize_moneypunctEPiPKc
6061e270 t .text
6061e270 T __ZNSt6locale5facet19_S_destroy_c_localeERPi
6061e280 T __ZNSt6locale5facet17_S_clone_c_localeERPi
6061e288 T __ZNSt6locale5facet18_S_create_c_localeERPiPKcS1_
6061e2bc T __ZSt14__convert_to_vIdEvPKcRT_RSt12_Ios_IostateRKPi
6061e348 T __ZSt14__convert_to_vIfEvPKcRT_RSt12_Ios_IostateRKPi
6061e3d4 T __ZSt14__convert_to_vIeEvPKcRT_RSt12_Ios_IostateRKPi
6061e460 t .text
6061e460 T ___cxa_bad_typeid
6061e488 T ___cxa_bad_cast
6061e4b0 t .text
6061e4b0 T __ZNKSt5ctypeIwE10do_scan_isEtPKwS2_
6061e4f4 T __ZNKSt5ctypeIwE11do_scan_notEtPKwS2_
6061e538 T __ZNKSt5ctypeIwE8do_widenEc
6061e54c T __ZNKSt5ctypeIwE8do_widenEPKcS2_Pw
6061e580 T __ZNKSt5ctypeIwE9do_narrowEPKwS2_cPc
6061e61c T __ZNKSt5ctypeIwE9do_narrowEwc
6061e66c T __ZNKSt5ctypeIwE5do_isEPKwS2_Pt
6061e6d8 T __ZNKSt5ctypeIwE5do_isEtw
6061e738 T __ZNKSt5ctypeIwE10do_tolowerEPwPKw
6061e76c T __ZNKSt5ctypeIwE10do_tolowerEw
6061e784 T __ZNKSt5ctypeIwE10do_toupperEPwPKw
6061e7b8 T __ZNKSt5ctypeIwE10do_toupperEw
6061e7d0 T __ZNKSt5ctypeIwE19_M_convert_to_wmaskEt
6061e940 T __ZNSt5ctypeIwE19_M_initialize_ctypeEv
6061ea1c T __ZNSt12ctype_bynameIcEC1EPKcj
6061eaac T __ZNSt12ctype_bynameIcEC2EPKcj
6061eb40 t .text
6061eb40 T __ZN9__gnu_cxx27__verbose_terminate_handlerEv
6061ec90 t .text
6061ec90 T __ZNSt10__num_base15_S_format_floatERKSt8ios_basePcc
6061ed40 t .text
6061ed40 T __ZNSt11__timepunctIwE23_M_initialize_timepunctEPi
6061f084 T __ZNSt11__timepunctIcE23_M_initialize_timepunctEPi
6061f3c8 T __ZNKSt11__timepunctIwE6_M_putEPwjPKwPK2tm
6061f430 T __ZNKSt11__timepunctIcE6_M_putEPcjPKcPK2tm
6061f4a0 t .text
6061f4a0 T __ZNKSt7collateIwE12_M_transformEPwPKwj
6061f4bc T __ZNKSt7collateIwE10_M_compareEPKwS2_
6061f4e0 T __ZNKSt7collateIcE12_M_transformEPcPKcj
6061f4fc T __ZNKSt7collateIcE10_M_compareEPKcS2_
6061f520 t .text
6061f520 T __ZNKSt8messagesIwE6do_getEiiiRKSbIwSt11char_traitsIwESaIwEE
6061f53c T __ZNKSt8messagesIcE6do_getEiiiRKSs
6061f560 t .text
6061f560 T __ZNKSt7codecvtIwciE11do_encodingEv
6061f574 T __ZNKSt7codecvtIwciE13do_max_lengthEv
6061f580 T __ZNKSt7codecvtIwciE9do_lengthERiPKcS3_j
6061f5f8 T __ZNKSt7codecvtIwciE5do_inERiPKcS3_RS3_PwS5_RS5_
6061f68c T __ZNKSt7codecvtIwciE6do_outERiPKwS3_RS3_PcS5_RS5_
6061f770 t .text
6061f770 T ___cxa_current_exception_type
6061f790 t .text
6061f790 t _d_make_empty
6061f7c0 t _d_make_comp
6061f808 t _d_make_name
6061f840 t _d_make_sub
6061f864 t _is_ctor_dtor_or_conversion
6061f898 t _has_return_type
6061f8dc t _d_number
6061f950 t _d_call_offset
6061f9a8 t _d_cv_qualifiers
6061fa38 t _d_template_param
6061faa4 t _d_discriminator
6061facc t _d_add_substitution
6061fafc t _d_substitution
6061fc14 t _d_print_error
6061fc34 t _d_source_name
6061fd04 t _d_expression
6061ff20 t _d_type
60620298 t _d_bare_function_type
6062036c t _d_operator_name
60620490 t _d_unqualified_name
606205d8 t _d_name
60620888 t _d_class_enum_type
60620894 t _d_encoding
60620bbc t _d_mangled_name
60620bf8 t _d_expr_primary
60620cc8 t _d_template_args
60620d78 t _d_print_resize
60620ddc t _d_print_append_buffer
60620e30 t _d_print_append_char
60620e70 t _d_print_comp
60622578 t _d_print_cast
60622690 t _d_print_expr_op
6062270c t _d_print_mod
60622964 t _d_print_mod_list
60622aa4 t _d_print_array_type
60622be8 t _d_print_function_type
60622e34 t _d_demangle
60623104 T ___cxa_demangle
60623210 t .text
60623210 t ___dyn_tls_dtor@12
60623244 T ___dyn_tls_init@12
606232c4 T ___tlregdtor
606232cc t .text
606232cc T _DllMain@12
606232d8 t .text
606232d8 t ___report_error
60623324 t ___write_memory
60623408 T __pei386_runtime_relocator
606235d4 t .text
606235d4 t .text
606235d4 t ___mingwthr_run_key_dtors
60623644 T ____w64_mingwthr_add_key_dtor
606236b4 T ____w64_mingwthr_remove_key_dtor
60623740 T ___mingw_TLScallback
606237b8 t .text
606237c0 t .text
606237c0 t .text
606237c0 t _read_uleb128
606237fc t _read_sleb128
60623854 T __Unwind_GetCFA
60623860 T __Unwind_GetIP
6062386c T __Unwind_SetIP
6062387c T __Unwind_GetLanguageSpecificData
60623888 T __Unwind_GetRegionStart
60623894 T __Unwind_GetDataRelBase
606238a0 T __Unwind_GetTextRelBase
606238ac T __Unwind_DeleteException
606238cc T __Unwind_SetGR
6062390c T __Unwind_GetGR
6062394c t _read_encoded_value_with_base
60623a00 t _base_of_encoded_value
60623a58 t _init_dwarf_reg_size_table
60623ad0 T __Unwind_FindEnclosingFunction
60623af0 T __Unwind_GetIPInfo
60623b08 t _execute_cfa_program
60623f84 t _uw_frame_state_for
606244bc T ___frame_state_for
60624578 t _execute_stack_op
60624a2c t _uw_update_context_1
60624c94 t _uw_init_context_1
60624e24 t _uw_install_context_1
60624f38 t _uw_update_context
60624f88 T __Unwind_Backtrace
60625014 t __Unwind_RaiseException_Phase2
60625094 T __Unwind_RaiseException
606251c8 t __Unwind_ForcedUnwind_Phase2
60625278 T __Unwind_Resume_or_Rethrow
60625324 T __Unwind_Resume
606253c8 T __Unwind_ForcedUnwind
60625470 t .text
60625470 T ___umoddi3
606255c0 t .text
606255c0 T ___udivdi3
606256f0 t .text
606256f0 T ___fixunsdfdi
60625750 t .text
60625750 T ___chkstk
60625750 T __alloca
60625756 t probe
6062576d t done
60625780 t .text
60625780 T ___gthr_win32_recursive_mutex_unlock
606257d0 T ___gthr_win32_mutex_unlock
6062580c T ___gthr_win32_recursive_mutex_trylock
60625858 T ___gthr_win32_recursive_mutex_lock
606258d4 T ___gthr_win32_mutex_lock
60625920 T ___gthr_win32_recursive_mutex_init_function
60625958 T ___gthr_win32_mutex_init_function
60625980 T ___gthr_win32_setspecific
606259a4 T ___gthr_win32_getspecific
606259cc T ___gthr_win32_key_delete
606259f0 T ___gthr_win32_key_create
60625a20 T ___gthr_win32_once
60625a90 T ___gthr_win32_mutex_trylock
60625ab0 t .text
60625ab0 T ___emutls_register_common
60625ae8 t _emutls_alloc
60625b78 t _emutls_init
60625bd0 t _emutls_destroy
60625c14 T ___emutls_get_address
60625e50 t .text
60625e50 t _read_uleb128
60625e8c t _read_sleb128
60625ee4 t _fde_unencoded_compare
60625f04 t _frame_downheap
60625f9c t _frame_heapsort
60626028 t _init_object_mutex_once
60626088 t _init_object_mutex
606260b0 t _base_from_object
606260f4 t _read_encoded_value_with_base
606261a8 t _fde_single_encoding_compare
60626224 t _get_cie_encoding
606262cc t _size_of_encoded_value
60626310 t _linear_search_fdes
60626434 t _add_fdes
60626534 t _classify_object_over_fdes
60626668 t _search_object
60626c14 t _fde_mixed_encoding_compare
60626ca0 T ___register_frame_info_bases
60626d84 T ___register_frame_info
60626da0 T ___register_frame
60626dcc T __Unwind_Find_FDE
60626f88 T ___deregister_frame_info_bases
606270cc T ___deregister_frame_info
606270d8 T ___deregister_frame
60627104 T ___register_frame_info_table_bases
606271d8 T ___register_frame_info_table
606271f4 T ___register_frame_table
60627220 t .text
60627220 T _strdup
60627230 t .text
60627230 T _ctime
60627243 T _difftime
60627265 T _fstat
6062727f T _stat
60627299 T __wstat
606272b3 T __findfirst
606272cd T __wfindfirst
606272e7 T __findnext
60627301 T __wfindnext
6062731b T __ftime
6062732e T _futime
60627348 T _gmtime
6062735b T _localtime
6062736e T _mktime
60627381 T __mkgmtime
60627394 T _time
606273a7 T _utime
606273c1 T _wctime
606273e0 t .text
606273e0 T _write
606273f0 t .text
606273f0 T _fdopen
60627400 t .text
60627400 T _read
60627410 t .text
60627410 t .text
60627410 t .text
60627410 T _fseeko64
606274b8 t .text
606274b8 T _wmemchr
606274e8 t .text
606274e8 T _wmemcpy
60627518 t .text
60627518 T _wmemcmp
60627578 t .text
60627578 T _wmemmove
606275d0 t .text
606275d0 T _wmemset
606275f4 t .text
606275f4 T ___mingw_vsnprintf
606275f4 T _vsnprintf
60627668 t .text
60627668 T ___strtof
60627668 T _strtof
606276f8 t .text
606276f8 T ___strtold
606276f8 T _strtold
60627818 t .text
60627818 T _wctype
6062785c t .text
6062785c T _wctob
60627908 t .text
60627908 T _btowc
606279a0 t .text
606279a0 t ___wcrtomb_cp
60627a28 T _wcrtomb
60627a94 T _wcsrtombs
60627bc8 t .text
60627bc8 t ___mbrtowc_cp
60627d2c T _mbrtowc
60627dbc T _mbsrtowcs
60627f00 T _mbrlen
60627f80 t .text
60627f80 t ___pformat_cvt
60628070 t ___pformat_putc
606280c4 t ___pformat_wputchars
606281d0 t ___pformat_putchars
60628278 t ___pformat_emit_inf_or_nan
60628300 t ___pformat_int
60628568 t ___pformat_xint
606287d8 t ___pformat_emit_radix_point
606288cc t ___pformat_emit_float
60628ae8 t ___pformat_emit_efloat
60628bb4 t ___pformat_efloat
60628c64 t ___pformat_float
60628d3c t ___pformat_gfloat
60628ebc t ___pformat_xldouble
606293dc T ___mingw_pformat
60629ca4 t .text
60629ca4 T ___increment_D2A
60629d30 t _rvOK
6062a040 T ___decrement_D2A
6062a06c T ___set_ones_D2A
6062a0e4 T ___strtodg
6062bee8 t .text
6062bee8 T ___gdtoa
6062d2ec t .text
6062d2ec T ___rv_alloc_D2A
6062d320 T ___nrv_alloc_D2A
6062d360 T ___freedtoa
6062d388 T ___quorem_D2A
6062d5cc t .text
6062d5cc t _dtoa_lock
6062d67c t _dtoa_lock_cleanup
6062d6bc t _dtoa_unlock
6062d6e4 T ___Balloc_D2A
6062d794 T ___Bfree_D2A
6062d7e0 T ___multadd_D2A
6062d8d4 T ___i2b_D2A
6062d8fc T ___mult_D2A
6062da74 T ___pow5mult_D2A
6062db8c T ___lshift_D2A
6062dc7c T ___cmp_D2A
6062dcc4 T ___diff_D2A
6062de44 T ___b2d_D2A
6062df3c T ___d2b_D2A
6062e020 T ___strcp_D2A
6062e040 t .text
6062e040 T ___s2b_D2A
6062e120 T ___ratio_D2A
6062e1b0 T ___match_D2A
6062e1f0 T ___copybits_D2A
6062e24c T ___any_on_D2A
6062e2ac t .text
6062e2ac T ___rshift_D2A
6062e3a0 T ___trailz_D2A
6062e3e4 t .text
6062e3e4 T ___sum_D2A
6062e558 t .text
6062e558 T ___gethex_D2A
6062eeb0 t .text
6062eeb0 T ___hexnan_D2A
6062f1e8 t .text
6062f1e8 T _hexdig_init_D2A
6062f260 t .text
6062f260 T _free
6062f270 t .text
6062f270 T _fflush
6062f280 t .text
6062f280 T _malloc
6062f290 t .text
6062f290 T __errno
6062f2a0 t .text
6062f2a0 T ___dllonexit
6062f2b0 t .text
6062f2b0 T _rand
6062f2c0 t .text
6062f2c0 T _sprintf
6062f2d0 t .text
6062f2d0 T __assert
6062f2e0 t .text
6062f2e0 T _memcpy
6062f2f0 t .text
6062f2f0 T _pow
6062f300 t .text
6062f300 T _getenv
6062f310 t .text
6062f310 T _memmove
6062f320 t .text
6062f320 t .text
6062f320 T _printf
6062f330 t .text
6062f330 T _fwrite
6062f340 t .text
6062f340 T _log10
6062f350 t .text
6062f350 T _modf
6062f360 t .text
6062f360 T _strrchr
6062f370 t .text
6062f370 T _memset
6062f380 t .text
6062f380 T _strcpy
6062f390 t .text
6062f390 T _fputs
6062f3a0 t .text
6062f3a0 T _fputc
6062f3b0 t .text
6062f3b0 T _fprintf
6062f3c0 t .text
6062f3c0 t .text
6062f3c0 t .text
6062f3c0 T __isctype
6062f3d0 t .text
6062f3d0 T _strcmp
6062f3e0 t .text
6062f3e0 T _strncmp
6062f3f0 t .text
6062f3f0 T _vsprintf
6062f400 t .text
6062f400 T _fmod
6062f410 t .text
6062f410 T _floor
6062f420 t .text
6062f420 T _atoi
6062f430 t .text
6062f430 T _ceil
6062f440 t .text
6062f440 T _puts
6062f450 t .text
6062f450 T _vfprintf
6062f460 t .text
6062f460 T _fclose
6062f470 t .text
6062f470 T _fopen
6062f480 t .text
6062f480 T _strftime
6062f490 t .text
6062f490 T _strcat
6062f4a0 t .text
6062f4a0 T _toupper
6062f4b0 t .text
6062f4b0 T _abort
6062f4c0 t .text
6062f4c0 T _memchr
6062f4d0 t .text
6062f4d0 T _strchr
6062f4e0 t .text
6062f4e0 T _isalnum
6062f4f0 t .text
6062f4f0 T _wcslen
6062f500 t .text
6062f500 T __filbuf
6062f510 t .text
6062f510 T __flsbuf
6062f520 t .text
6062f520 T _fgetpos
6062f530 t .text
6062f530 T _ungetc
6062f540 t .text
6062f540 T _fread
6062f550 t .text
6062f550 T _getwc
6062f560 t .text
6062f560 T _ungetwc
6062f570 t .text
6062f570 T _putwc
6062f580 t .text
6062f580 T _setlocale
6062f590 t .text
6062f590 T __lseeki64
6062f5a0 t .text
6062f5a0 T _setvbuf
6062f5b0 t .text
6062f5b0 T __fstat64
6062f5c0 t .text
6062f5c0 T _strtod
6062f5d0 t .text
6062f5d0 T _towupper
6062f5e0 t .text
6062f5e0 T _towlower
6062f5f0 t .text
6062f5f0 T _iswctype
6062f600 t .text
6062f600 T _wcsftime
6062f610 t .text
6062f610 T _strcoll
6062f620 t .text
6062f620 T _strxfrm
6062f630 t .text
6062f630 T _wcscoll
6062f640 t .text
6062f640 T _wcsxfrm
6062f650 t .text
6062f650 T _realloc
6062f660 t .text
6062f660 T _calloc
6062f670 t .text
6062f670 T __wctime32
6062f680 t .text
6062f680 T __utime32
6062f690 t .text
6062f690 T __time32
6062f6a0 t .text
6062f6a0 T __mkgmtime32
6062f6b0 t .text
6062f6b0 T __mktime32
6062f6c0 t .text
6062f6c0 T __localtime32
6062f6d0 t .text
6062f6d0 T __gmtime32
6062f6e0 t .text
6062f6e0 T __futime32
6062f6f0 t .text
6062f6f0 T __ftime32
6062f700 t .text
6062f700 T __wfindnext32
6062f710 t .text
6062f710 T __findnext32
6062f720 t .text
6062f720 T __wfindfirst32
6062f730 t .text
6062f730 T __findfirst32
6062f740 t .text
6062f740 T __wstat32
6062f750 t .text
6062f750 T __stat32
6062f760 t .text
6062f760 T __fstat32
6062f770 t .text
6062f770 T __difftime32
6062f780 t .text
6062f780 T __ctime64
6062f790 t .text
6062f790 T _fsetpos
6062f7a0 t .text
6062f7a0 T __filelengthi64
6062f7b0 t .text
6062f7b0 T _localeconv
6062f7c0 t .text
6062f7c0 T __get_output_format
6062f7d0 t .text
6062f7d0 t .text
6062f7d0 t .text
6062f7d0 T _GetModuleHandleA@4
6062f7d8 t .text
6062f7d8 T _GetProcAddress@8
6062f7e0 t .text
6062f7e0 T _LeaveCriticalSection@4
6062f7e8 t .text
6062f7e8 T _TryEnterCriticalSection@4
6062f7f0 t .text
6062f7f0 T _EnterCriticalSection@4
6062f7f8 t .text
6062f7f8 T _InitializeCriticalSection@4
6062f800 t .text
6062f800 T _DeleteCriticalSection@4
6062f808 t .text
6062f808 T _GetFileAttributesA@4
6062f810 t .text
6062f810 T _VirtualQuery@12
6062f818 t .text
6062f818 T _VirtualProtect@16
6062f820 t .text
6062f820 T _TlsGetValue@4
6062f828 t .text
6062f828 T _GetLastError@0
6062f830 t .text
6062f830 T _InterlockedIncrement@4
6062f838 t .text
6062f838 T _Sleep@4
6062f840 t .text
6062f840 T _InterlockedDecrement@4
6062f848 t .text
6062f848 T _ReleaseSemaphore@12
6062f850 t .text
6062f850 T _GetCurrentThreadId@0
6062f858 t .text
6062f858 T _WaitForSingleObject@8
6062f860 t .text
6062f860 T _CreateSemaphoreA@16
6062f868 t .text
6062f868 T _TlsSetValue@8
6062f870 t .text
6062f870 T _SetLastError@4
6062f878 t .text
6062f878 T _TlsFree@4
6062f880 t .text
6062f880 T _TlsAlloc@0
6062f888 t .text
6062f888 T _WideCharToMultiByte@32
6062f890 t .text
6062f890 T _MultiByteToWideChar@24
6062f898 t .text
6062f898 T _IsDBCSLeadByteEx@8
6062f8a0 t .text
6062f8a0 T _InterlockedExchange@8
6062f8a8 t .text
6062f8a8 t .text
6062f8a8 t .text
6062f8a8 T ___mingwthr_remove_key_dtor
6062f8b4 T ___mingwthr_key_dtor
6062f8d0 t .text
6062f8d0 t .text
6062f8d0 T _mti_ActivateScMethodProcess
6062f8e0 t .text
6062f8e0 T _mti_ActivateScPrimChannel
6062f8f0 t .text
6062f8f0 T _mti_ActivateScThreadProcess
6062f900 t .text
6062f900 T _mti_AddScApiToFuncTray
6062f910 t .text
6062f910 T _mti_CancelScEvent
6062f920 t .text
6062f920 T _mti_ConnectToHdlParentSignal
6062f930 t .text
6062f930 T _mti_ConnectToScParentSignal
6062f940 t .text
6062f940 T _mti_CreateModuleVariables
6062f950 t .text
6062f950 T _mti_CreateNativeCType
6062f960 t .text
6062f960 T _mti_CreateScEvent
6062f970 t .text
6062f970 T _mti_CreateScFixedPointType
6062f980 t .text
6062f980 T _mti_CreateScPrimChannel
6062f990 t .text
6062f990 T _mti_CreateScProcess
6062f9a0 t .text
6062f9a0 T _mti_CreateScRegion
6062f9b0 t .text
6062f9b0 T _mti_CreateScScalarType
6062f9c0 t .text
6062f9c0 T _mti_CreateScSignalAlias
6062f9d0 t .text
6062f9d0 T _mti_CreateScVectorType
6062f9e0 t .text
6062f9e0 T _mti_DeactivateScMethodProcess
6062f9f0 t .text
6062f9f0 T _mti_DeactivateScThreadProcess
6062fa00 t .text
6062fa00 T _mti_DeleteScEvent
6062fa10 t .text
6062fa10 T _mti_DestroyGenericList
6062fa20 t .text
6062fa20 T _mti_FindGeneric
6062fa30 t .text
6062fa30 T _mti_FreeScProcess
6062fa40 t .text
6062fa40 T _mti_GetHdlGenericList
6062fa50 t .text
6062fa50 T _mti_GetIniVarValue
6062fa60 t .text
6062fa60 T _mti_GetIntGenericValue
6062fa70 t .text
6062fa70 T _mti_GetRealGenericValue
6062fa80 t .text
6062fa80 T _mti_GetResolutionLimitEx
6062fa90 t .text
6062fa90 T _mti_GetScArgc
6062faa0 t .text
6062faa0 T _mti_GetScArgv
6062fab0 t .text
6062fab0 T _mti_GetScCurrContextPathName
6062fac0 t .text
6062fac0 T _mti_GetScMessage
6062fad0 t .text
6062fad0 T _mti_GetScPathSeparator
6062fae0 t .text
6062fae0 T _mti_GetScStackSizeSpecified
6062faf0 t .text
6062faf0 T _mti_GetScTimeUnit
6062fb00 t .text
6062fb00 T _mti_GetStringGenericValue
6062fb10 t .text
6062fb10 T _mti_IsScEvaluationPhase
6062fb20 t .text
6062fb20 T _mti_IsScProcQueued
6062fb30 t .text
6062fb30 T _mti_IsScUpdatePhase
6062fb40 t .text
6062fb40 T _mti_IsSystemcCleanup
6062fb50 t .text
6062fb50 T _mti_IsVoptMode
6062fb60 t .text
6062fb60 T _mti_LoadScHdlRegion
6062fb70 t .text
6062fb70 T _mti_MakeScPrimChannelResolved
6062fb80 t .text
6062fb80 T _mti_PrintScMessage
6062fb90 t .text
6062fb90 T _mti_ProcessGetParamInVopt
6062fba0 t .text
6062fba0 T _mti_RemoveEventFromEventList
6062fbb0 t .text
6062fbb0 T _mti_ScCheckSimulatorRunning
6062fbc0 t .text
6062fbc0 T _mti_ScControlHdlSignal
6062fbd0 t .text
6062fbd0 T _mti_ScDelta
6062fbe0 t .text
6062fbe0 T _mti_ScDoneLoadingSo
6062fbf0 t .text
6062fbf0 T _mti_ScError
6062fc00 t .text
6062fc00 T _mti_ScGetKernelFlags
6062fc10 t .text
6062fc10 T _mti_ScGetNextEventTime
6062fc20 t .text
6062fc20 T _mti_ScGetNow
6062fc30 t .text
6062fc30 T _mti_ScInitSignalDriver
6062fc40 t .text
6062fc40 T _mti_ScInitSignalSpy
6062fc50 t .text
6062fc50 T _mti_ScIsCheckpointRestoreEnabled
6062fc60 t .text
6062fc60 T _mti_ScObserveHdlSignal
6062fc70 t .text
6062fc70 T _mti_ScPause
6062fc80 t .text
6062fc80 T _mti_ScScheduleThisProcessNext
6062fc90 t .text
6062fc90 T _mti_ScSetSimulatorRunning
6062fca0 t .text
6062fca0 T _mti_ScSetTypename
6062fcb0 t .text
6062fcb0 T _mti_ScStop
6062fcc0 t .text
6062fcc0 T _mti_ScVsimOrVoptAlreadyShutdown
6062fcd0 t .text
6062fcd0 T _mti_ScWarnChkptRestoreScElementDisable
6062fce0 t .text
6062fce0 T _mti_ScheduleScClockEvent
6062fcf0 t .text
6062fcf0 T _mti_ScheduleScEvent
6062fd00 t .text
6062fd00 T _mti_SetBoundaryChannelDebugInfo
6062fd10 t .text
6062fd10 T _mti_SetResolutionLimit
6062fd20 t .text
6062fd20 T _mti_SetScMainScope
6062fd30 t .text
6062fd30 T _mti_SetScProcessDebugInfo
6062fd40 t .text
6062fd40 T _mti_SetScRegionDebugInfo
6062fd50 t .text
6062fd50 T _mti_SetScStartMode
6062fd60 t .text
6062fd60 T _mti_StripScMainScopeName
6062fd70 t .text
6062fd70 T _mti_WarnIncompleteAggregates
6062fd80 t .text
6062fd80 T _mti_cdbg_suspend_me_wrapper
6062fd90 t .text
6062fd90 T _svGetBitselBit
6062fda0 t .text
6062fda0 T _svGetBitselLogic
6062fdb0 t .text
6062fdb0 T _svPutBitselBit
6062fdc0 t .text
6062fdc0 T _svPutBitselLogic
6062fdc8 t .text$_ZN11ExampleStim4stimEv
6062fdc8 T __ZN11ExampleStim4stimEv
6062ffa4 t .text$_ZN11ExampleStim7monitorEv
6062ffa4 T __ZN11ExampleStim7monitorEv
60630100 t .text$_ZN11ExampleStimC1EN7sc_core14sc_module_nameE
60630100 T __ZN11ExampleStimC1EN7sc_core14sc_module_nameE
606304ec t .text$_ZN11ExampleStimD0Ev
606304ec T __ZN11ExampleStimD0Ev
606306c8 t .text$_ZN11ExampleStimD1Ev
606306c8 T __ZN11ExampleStimD1Ev
606308a4 t .text$_ZN13TOP_testbenchC1EN7sc_core14sc_module_nameE
606308a4 T __ZN13TOP_testbenchC1EN7sc_core14sc_module_nameE
60630bbc t .text$_ZN13TOP_testbenchD0Ev
60630bbc T __ZN13TOP_testbenchD0Ev
60630de8 t .text$_ZN13TOP_testbenchD1Ev
60630de8 T __ZN13TOP_testbenchD1Ev
60631014 t .text$_ZN13sc_mti_access17mti_set_dpi_valueEPv
60631014 T __ZN13sc_mti_access17mti_set_dpi_valueEPv
6063101c t .text$_ZN13sc_mti_access18mti_get_value_sizeEPiS0_S0_
6063101c T __ZN13sc_mti_access18mti_get_value_sizeEPiS0_S0_
6063103c t .text$_ZN13sc_mti_access18mti_get_value_typeEv
6063103c T __ZN13sc_mti_access18mti_get_value_typeEv
60631048 t .text$_ZN13sc_mti_accessC2Ev
60631048 T __ZN13sc_mti_accessC2Ev
60631058 t .text$_ZN13sc_mti_accessD0Ev
60631058 T __ZN13sc_mti_accessD0Ev
60631084 t .text$_ZN13sc_mti_accessD1Ev
60631084 T __ZN13sc_mti_accessD1Ev
606310b0 t .text$_ZN13sc_mti_accessD2Ev
606310b0 T __ZN13sc_mti_accessD2Ev
606310dc t .text$_ZN3TOPC1EN7sc_core14sc_module_nameEPKc
606310dc T __ZN3TOPC1EN7sc_core14sc_module_nameEPKc
6063129c t .text$_ZN3TOPD0Ev
6063129c T __ZN3TOPD0Ev
60631464 t .text$_ZN3TOPD1Ev
60631464 T __ZN3TOPD1Ev
6063162c t .text$_ZN5sc_dt10sc_bv_baseD0Ev
6063162c T __ZN5sc_dt10sc_bv_baseD0Ev
60631684 t .text$_ZN5sc_dt10sc_bv_baseD1Ev
60631684 T __ZN5sc_dt10sc_bv_baseD1Ev
606316d4 t .text$_ZN5sc_dt10sc_io_baseERSoNS_9sc_numrepE
606316d4 T __ZN5sc_dt10sc_io_baseERSoNS_9sc_numrepE
6063176c t .text$_ZN5sc_dt10sc_lv_baseD0Ev
6063176c T __ZN5sc_dt10sc_lv_baseD0Ev
606317b0 t .text$_ZN5sc_dt10sc_lv_baseD1Ev
606317b0 T __ZN5sc_dt10sc_lv_baseD1Ev
606317ec t .text$_ZN5sc_dt11sc_int_base11extend_signEv
606317ec T __ZN5sc_dt11sc_int_base11extend_signEv
60631834 t .text$_ZN5sc_dt11sc_int_baseC2Ei
60631834 T __ZN5sc_dt11sc_int_baseC2Ei
606318f8 t .text$_ZN5sc_dt11sc_int_baseD0Ev
606318f8 T __ZN5sc_dt11sc_int_baseD0Ev
60631914 t .text$_ZN5sc_dt11sc_int_baseD1Ev
60631914 T __ZN5sc_dt11sc_int_baseD1Ev
6063192c t .text$_ZN5sc_dt11sc_int_baseD2Ev
6063192c T __ZN5sc_dt11sc_int_baseD2Ev
60631984 t .text$_ZN5sc_dt11sc_int_baseaSEi
60631984 T __ZN5sc_dt11sc_int_baseaSEi
606319a4 t .text$_ZN5sc_dt11sc_unsignedD0Ev
606319a4 T __ZN5sc_dt11sc_unsignedD0Ev
60631a00 t .text$_ZN5sc_dt11sc_unsignedD1Ev
60631a00 T __ZN5sc_dt11sc_unsignedD1Ev
60631a58 t .text$_ZN5sc_dt11scfx_stringpLEc
60631a58 T __ZN5sc_dt11scfx_stringpLEc
60631b34 t .text$_ZN5sc_dt12sc_uint_base11extend_signEv
60631b34 T __ZN5sc_dt12sc_uint_base11extend_signEv
60631b98 t .text$_ZN5sc_dt12sc_uint_baseC2Ei
60631b98 T __ZN5sc_dt12sc_uint_baseC2Ei
60631c5c t .text$_ZN5sc_dt12sc_uint_baseD0Ev
60631c5c T __ZN5sc_dt12sc_uint_baseD0Ev
60631ca0 t .text$_ZN5sc_dt12sc_uint_baseD1Ev
60631ca0 T __ZN5sc_dt12sc_uint_baseD1Ev
60631cdc t .text$_ZN5sc_dt12sc_uint_baseD2Ev
60631cdc T __ZN5sc_dt12sc_uint_baseD2Ev
60631d5c t .text$_ZN5sc_dt12sc_uint_baseaSEy
60631d5c T __ZN5sc_dt12sc_uint_baseaSEy
60631d90 t .text$_ZN5sc_dt13sc_fxnum_fastD0Ev
60631d90 T __ZN5sc_dt13sc_fxnum_fastD0Ev
60631dc8 t .text$_ZN5sc_dt13sc_fxnum_fastD1Ev
60631dc8 T __ZN5sc_dt13sc_fxnum_fastD1Ev
60631df8 t .text$_ZN5sc_dt13sc_int_bitrefD0Ev
60631df8 T __ZN5sc_dt13sc_int_bitrefD0Ev
60631e0c t .text$_ZN5sc_dt13sc_int_bitrefD1Ev
60631e0c T __ZN5sc_dt13sc_int_bitrefD1Ev
60631e1c t .text$_ZN5sc_dt13sc_int_subrefD0Ev
60631e1c T __ZN5sc_dt13sc_int_subrefD0Ev
60631e30 t .text$_ZN5sc_dt13sc_int_subrefD1Ev
60631e30 T __ZN5sc_dt13sc_int_subrefD1Ev
60631e40 t .text$_ZN5sc_dt13sc_value_baseC2Ev
60631e40 T __ZN5sc_dt13sc_value_baseC2Ev
60631e50 t .text$_ZN5sc_dt13sc_value_baseD0Ev
60631e50 T __ZN5sc_dt13sc_value_baseD0Ev
60631e64 t .text$_ZN5sc_dt13sc_value_baseD1Ev
60631e64 T __ZN5sc_dt13sc_value_baseD1Ev
60631e74 t .text$_ZN5sc_dt13sc_value_baseD2Ev
60631e74 T __ZN5sc_dt13sc_value_baseD2Ev
60631ea0 t .text$_ZN5sc_dt14sc_uint_bitrefD0Ev
60631ea0 T __ZN5sc_dt14sc_uint_bitrefD0Ev
60631eb4 t .text$_ZN5sc_dt14sc_uint_bitrefD1Ev
60631eb4 T __ZN5sc_dt14sc_uint_bitrefD1Ev
60631ec4 t .text$_ZN5sc_dt14sc_uint_subrefD0Ev
60631ec4 T __ZN5sc_dt14sc_uint_subrefD0Ev
60631ed8 t .text$_ZN5sc_dt14sc_uint_subrefD1Ev
60631ed8 T __ZN5sc_dt14sc_uint_subrefD1Ev
60631ee8 t .text$_ZN5sc_dt15sc_int_bitref_rD0Ev
60631ee8 T __ZN5sc_dt15sc_int_bitref_rD0Ev
60631efc t .text$_ZN5sc_dt15sc_int_bitref_rD1Ev
60631efc T __ZN5sc_dt15sc_int_bitref_rD1Ev
60631f0c t .text$_ZN5sc_dt15sc_int_subref_rD0Ev
60631f0c T __ZN5sc_dt15sc_int_subref_rD0Ev
60631f20 t .text$_ZN5sc_dt15sc_int_subref_rD1Ev
60631f20 T __ZN5sc_dt15sc_int_subref_rD1Ev
60631f30 t .text$_ZN5sc_dt15sc_io_show_baseERSo
60631f30 T __ZN5sc_dt15sc_io_show_baseERSo
60631f64 t .text$_ZN5sc_dt16sc_signed_bitrefD0Ev
60631f64 T __ZN5sc_dt16sc_signed_bitrefD0Ev
60631f78 t .text$_ZN5sc_dt16sc_signed_bitrefD1Ev
60631f78 T __ZN5sc_dt16sc_signed_bitrefD1Ev
60631f88 t .text$_ZN5sc_dt16sc_signed_subrefD0Ev
60631f88 T __ZN5sc_dt16sc_signed_subrefD0Ev
60631f9c t .text$_ZN5sc_dt16sc_signed_subrefD1Ev
60631f9c T __ZN5sc_dt16sc_signed_subrefD1Ev
60631fac t .text$_ZN5sc_dt16sc_uint_bitref_rD0Ev
60631fac T __ZN5sc_dt16sc_uint_bitref_rD0Ev
60631fc0 t .text$_ZN5sc_dt16sc_uint_bitref_rD1Ev
60631fc0 T __ZN5sc_dt16sc_uint_bitref_rD1Ev
60631fd0 t .text$_ZN5sc_dt16sc_uint_subref_rD0Ev
60631fd0 T __ZN5sc_dt16sc_uint_subref_rD0Ev
60631fe4 t .text$_ZN5sc_dt16sc_uint_subref_rD1Ev
60631fe4 T __ZN5sc_dt16sc_uint_subref_rD1Ev
60631ff4 t .text$_ZN5sc_dt17sc_fxnum_observer4readERKNS_8sc_fxnumE
60631ff4 T __ZN5sc_dt17sc_fxnum_observer4readERKNS_8sc_fxnumE
60631ffc t .text$_ZN5sc_dt17sc_fxnum_observer5writeERKNS_8sc_fxnumE
60631ffc T __ZN5sc_dt17sc_fxnum_observer5writeERKNS_8sc_fxnumE
60632004 t .text$_ZN5sc_dt17sc_fxnum_observer8destructERKNS_8sc_fxnumE
60632004 T __ZN5sc_dt17sc_fxnum_observer8destructERKNS_8sc_fxnumE
6063200c t .text$_ZN5sc_dt17sc_fxnum_observer9constructERKNS_8sc_fxnumE
6063200c T __ZN5sc_dt17sc_fxnum_observer9constructERKNS_8sc_fxnumE
60632014 t .text$_ZN5sc_dt17sc_fxnum_observerD0Ev
60632014 T __ZN5sc_dt17sc_fxnum_observerD0Ev
60632028 t .text$_ZN5sc_dt17sc_fxnum_observerD1Ev
60632028 T __ZN5sc_dt17sc_fxnum_observerD1Ev
60632038 t .text$_ZN5sc_dt17sc_fxval_observer4readERKNS_8sc_fxvalE
60632038 T __ZN5sc_dt17sc_fxval_observer4readERKNS_8sc_fxvalE
60632040 t .text$_ZN5sc_dt17sc_fxval_observer5writeERKNS_8sc_fxvalE
60632040 T __ZN5sc_dt17sc_fxval_observer5writeERKNS_8sc_fxvalE
60632048 t .text$_ZN5sc_dt17sc_fxval_observer8destructERKNS_8sc_fxvalE
60632048 T __ZN5sc_dt17sc_fxval_observer8destructERKNS_8sc_fxvalE
60632050 t .text$_ZN5sc_dt17sc_fxval_observer9constructERKNS_8sc_fxvalE
60632050 T __ZN5sc_dt17sc_fxval_observer9constructERKNS_8sc_fxvalE
60632058 t .text$_ZN5sc_dt17sc_fxval_observerD0Ev
60632058 T __ZN5sc_dt17sc_fxval_observerD0Ev
6063206c t .text$_ZN5sc_dt17sc_fxval_observerD1Ev
6063206c T __ZN5sc_dt17sc_fxval_observerD1Ev
6063207c t .text$_ZN5sc_dt18sc_signed_bitref_rD0Ev
6063207c T __ZN5sc_dt18sc_signed_bitref_rD0Ev
60632090 t .text$_ZN5sc_dt18sc_signed_bitref_rD1Ev
60632090 T __ZN5sc_dt18sc_signed_bitref_rD1Ev
606320a0 t .text$_ZN5sc_dt18sc_signed_subref_rD0Ev
606320a0 T __ZN5sc_dt18sc_signed_subref_rD0Ev
606320b4 t .text$_ZN5sc_dt18sc_signed_subref_rD1Ev
606320b4 T __ZN5sc_dt18sc_signed_subref_rD1Ev
606320c4 t .text$_ZN5sc_dt18sc_unsigned_bitrefD0Ev
606320c4 T __ZN5sc_dt18sc_unsigned_bitrefD0Ev
606320d8 t .text$_ZN5sc_dt18sc_unsigned_bitrefD1Ev
606320d8 T __ZN5sc_dt18sc_unsigned_bitrefD1Ev
606320e8 t .text$_ZN5sc_dt18sc_unsigned_subrefD0Ev
606320e8 T __ZN5sc_dt18sc_unsigned_subrefD0Ev
606320fc t .text$_ZN5sc_dt18sc_unsigned_subrefD1Ev
606320fc T __ZN5sc_dt18sc_unsigned_subrefD1Ev
6063210c t .text$_ZN5sc_dt20sc_unsigned_bitref_rD0Ev
6063210c T __ZN5sc_dt20sc_unsigned_bitref_rD0Ev
60632120 t .text$_ZN5sc_dt20sc_unsigned_bitref_rD1Ev
60632120 T __ZN5sc_dt20sc_unsigned_bitref_rD1Ev
60632130 t .text$_ZN5sc_dt20sc_unsigned_subref_rD0Ev
60632130 T __ZN5sc_dt20sc_unsigned_subref_rD0Ev
60632144 t .text$_ZN5sc_dt20sc_unsigned_subref_rD1Ev
60632144 T __ZN5sc_dt20sc_unsigned_subref_rD1Ev
60632154 t .text$_ZN5sc_dt22sc_fxnum_fast_observer4readERKNS_13sc_fxnum_fastE
60632154 T __ZN5sc_dt22sc_fxnum_fast_observer4readERKNS_13sc_fxnum_fastE
6063215c t .text$_ZN5sc_dt22sc_fxnum_fast_observer5writeERKNS_13sc_fxnum_fastE
6063215c T __ZN5sc_dt22sc_fxnum_fast_observer5writeERKNS_13sc_fxnum_fastE
60632164 t .text$_ZN5sc_dt22sc_fxnum_fast_observer8destructERKNS_13sc_fxnum_fastE
60632164 T __ZN5sc_dt22sc_fxnum_fast_observer8destructERKNS_13sc_fxnum_fastE
6063216c t .text$_ZN5sc_dt22sc_fxnum_fast_observer9constructERKNS_13sc_fxnum_fastE
6063216c T __ZN5sc_dt22sc_fxnum_fast_observer9constructERKNS_13sc_fxnum_fastE
60632174 t .text$_ZN5sc_dt22sc_fxnum_fast_observerD0Ev
60632174 T __ZN5sc_dt22sc_fxnum_fast_observerD0Ev
60632188 t .text$_ZN5sc_dt22sc_fxnum_fast_observerD1Ev
60632188 T __ZN5sc_dt22sc_fxnum_fast_observerD1Ev
60632198 t .text$_ZN5sc_dt22sc_fxval_fast_observer4readERKNS_13sc_fxval_fastE
60632198 T __ZN5sc_dt22sc_fxval_fast_observer4readERKNS_13sc_fxval_fastE
606321a0 t .text$_ZN5sc_dt22sc_fxval_fast_observer5writeERKNS_13sc_fxval_fastE
606321a0 T __ZN5sc_dt22sc_fxval_fast_observer5writeERKNS_13sc_fxval_fastE
606321a8 t .text$_ZN5sc_dt22sc_fxval_fast_observer8destructERKNS_13sc_fxval_fastE
606321a8 T __ZN5sc_dt22sc_fxval_fast_observer8destructERKNS_13sc_fxval_fastE
606321b0 t .text$_ZN5sc_dt22sc_fxval_fast_observer9constructERKNS_13sc_fxval_fastE
606321b0 T __ZN5sc_dt22sc_fxval_fast_observer9constructERKNS_13sc_fxval_fastE
606321b8 t .text$_ZN5sc_dt22sc_fxval_fast_observerD0Ev
606321b8 T __ZN5sc_dt22sc_fxval_fast_observerD0Ev
606321cc t .text$_ZN5sc_dt22sc_fxval_fast_observerD1Ev
606321cc T __ZN5sc_dt22sc_fxval_fast_observerD1Ev
606321dc t .text$_ZN5sc_dt6sc_bitD0Ev
606321dc T __ZN5sc_dt6sc_bitD0Ev
606321f0 t .text$_ZN5sc_dt6sc_bitD1Ev
606321f0 T __ZN5sc_dt6sc_bitD1Ev
60632200 t .text$_ZN5sc_dt6sc_fixD0Ev
60632200 T __ZN5sc_dt6sc_fixD0Ev
60632270 t .text$_ZN5sc_dt6sc_fixD1Ev
60632270 T __ZN5sc_dt6sc_fixD1Ev
606322d8 t .text$_ZN5sc_dt6sc_intILi16EEC1Ei
606322d8 T __ZN5sc_dt6sc_intILi16EEC1Ei
60632318 t .text$_ZN5sc_dt6sc_intILi16EEC1Ev
60632318 T __ZN5sc_dt6sc_intILi16EEC1Ev
60632348 t .text$_ZN5sc_dt6sc_intILi16EED0Ev
60632348 T __ZN5sc_dt6sc_intILi16EED0Ev
6063238c t .text$_ZN5sc_dt6sc_intILi16EED1Ev
6063238c T __ZN5sc_dt6sc_intILi16EED1Ev
606323d0 t .text$_ZN5sc_dt6sc_intILi16EEaSERKS1_
606323d0 T __ZN5sc_dt6sc_intILi16EEaSERKS1_
606323ec t .text$_ZN5sc_dt7sc_ufixD0Ev
606323ec T __ZN5sc_dt7sc_ufixD0Ev
6063245c t .text$_ZN5sc_dt7sc_ufixD1Ev
6063245c T __ZN5sc_dt7sc_ufixD1Ev
606324c4 t .text$_ZN5sc_dt7sc_uintILi4EEC1Ev
606324c4 T __ZN5sc_dt7sc_uintILi4EEC1Ev
606324f4 t .text$_ZN5sc_dt7sc_uintILi4EED0Ev
606324f4 T __ZN5sc_dt7sc_uintILi4EED0Ev
60632538 t .text$_ZN5sc_dt7sc_uintILi4EED1Ev
60632538 T __ZN5sc_dt7sc_uintILi4EED1Ev
6063257c t .text$_ZN5sc_dt7sc_uintILi4EEaSERKS1_
6063257c T __ZN5sc_dt7sc_uintILi4EEaSERKS1_
60632598 t .text$_ZN5sc_dt7sc_uintILi4EEaSEy
60632598 T __ZN5sc_dt7sc_uintILi4EEaSEy
606325c4 t .text$_ZN5sc_dt8sc_fxnumD0Ev
606325c4 T __ZN5sc_dt8sc_fxnumD0Ev
60632634 t .text$_ZN5sc_dt8sc_fxnumD1Ev
60632634 T __ZN5sc_dt8sc_fxnumD1Ev
6063269c t .text$_ZN5sc_dt8sc_logicD0Ev
6063269c T __ZN5sc_dt8sc_logicD0Ev
606326b8 t .text$_ZN5sc_dt8sc_logicD1Ev
606326b8 T __ZN5sc_dt8sc_logicD1Ev
606326c8 t .text$_ZN5sc_dt8sc_proxyINS_10sc_bv_baseEED0Ev
606326c8 T __ZN5sc_dt8sc_proxyINS_10sc_bv_baseEED0Ev
606326dc t .text$_ZN5sc_dt8sc_proxyINS_10sc_bv_baseEED1Ev
606326dc T __ZN5sc_dt8sc_proxyINS_10sc_bv_baseEED1Ev
606326ec t .text$_ZN5sc_dt8sc_proxyINS_10sc_lv_baseEED0Ev
606326ec T __ZN5sc_dt8sc_proxyINS_10sc_lv_baseEED0Ev
60632700 t .text$_ZN5sc_dt8sc_proxyINS_10sc_lv_baseEED1Ev
60632700 T __ZN5sc_dt8sc_proxyINS_10sc_lv_baseEED1Ev
60632710 t .text$_ZN5sc_dt9sc_signedD0Ev
60632710 T __ZN5sc_dt9sc_signedD0Ev
60632768 t .text$_ZN5sc_dt9sc_signedD1Ev
60632768 T __ZN5sc_dt9sc_signedD1Ev
606327b8 t .text$_ZN5sc_dteqERKNS_11sc_int_baseES2_
606327b8 T __ZN5sc_dteqERKNS_11sc_int_baseES2_
606327e8 t .text$_ZN5sc_dteqERKNS_12sc_uint_baseES2_
606327e8 T __ZN5sc_dteqERKNS_12sc_uint_baseES2_
60632818 t .text$_ZN5sc_dtlsERSoRKNS_11sc_int_baseE
60632818 T __ZN5sc_dtlsERSoRKNS_11sc_int_baseE
60632834 t .text$_ZN5sc_dtlsERSoRKNS_12sc_uint_baseE
60632834 T __ZN5sc_dtlsERSoRKNS_12sc_uint_baseE
60632850 t .text$_ZN7sc_core10sc_cor_pkgD0Ev
60632850 T __ZN7sc_core10sc_cor_pkgD0Ev
60632864 t .text$_ZN7sc_core10sc_cor_pkgD1Ev
60632864 T __ZN7sc_core10sc_cor_pkgD1Ev
60632874 t .text$_ZN7sc_core11sc_mutex_ifD0Ev
60632874 T __ZN7sc_core11sc_mutex_ifD0Ev
6063289c t .text$_ZN7sc_core11sc_mutex_ifD1Ev
6063289c T __ZN7sc_core11sc_mutex_ifD1Ev
606328b0 t .text$_ZN7sc_core11vcd_T_traceIN5sc_dt10sc_bv_baseEE5writeEP6_iobuf
606328b0 T __ZN7sc_core11vcd_T_traceIN5sc_dt10sc_bv_baseEE5writeEP6_iobuf
60632c70 t .text$_ZN7sc_core11vcd_T_traceIN5sc_dt10sc_bv_baseEE7changedEv
60632c70 T __ZN7sc_core11vcd_T_traceIN5sc_dt10sc_bv_baseEE7changedEv
60632cc8 t .text$_ZN7sc_core11vcd_T_traceIN5sc_dt10sc_bv_baseEE9set_widthEv
60632cc8 T __ZN7sc_core11vcd_T_traceIN5sc_dt10sc_bv_baseEE9set_widthEv
60632cdc t .text$_ZN7sc_core11vcd_T_traceIN5sc_dt10sc_bv_baseEED0Ev
60632cdc T __ZN7sc_core11vcd_T_traceIN5sc_dt10sc_bv_baseEED0Ev
60632d4c t .text$_ZN7sc_core11vcd_T_traceIN5sc_dt10sc_bv_baseEED1Ev
60632d4c T __ZN7sc_core11vcd_T_traceIN5sc_dt10sc_bv_baseEED1Ev
60632db0 t .text$_ZN7sc_core11vcd_T_traceIN5sc_dt10sc_lv_baseEE5writeEP6_iobuf
60632db0 T __ZN7sc_core11vcd_T_traceIN5sc_dt10sc_lv_baseEE5writeEP6_iobuf
606331d0 t .text$_ZN7sc_core11vcd_T_traceIN5sc_dt10sc_lv_baseEE7changedEv
606331d0 T __ZN7sc_core11vcd_T_traceIN5sc_dt10sc_lv_baseEE7changedEv
60633244 t .text$_ZN7sc_core11vcd_T_traceIN5sc_dt10sc_lv_baseEE9set_widthEv
60633244 T __ZN7sc_core11vcd_T_traceIN5sc_dt10sc_lv_baseEE9set_widthEv
60633258 t .text$_ZN7sc_core11vcd_T_traceIN5sc_dt10sc_lv_baseEED0Ev
60633258 T __ZN7sc_core11vcd_T_traceIN5sc_dt10sc_lv_baseEED0Ev
606332b4 t .text$_ZN7sc_core11vcd_T_traceIN5sc_dt10sc_lv_baseEED1Ev
606332b4 T __ZN7sc_core11vcd_T_traceIN5sc_dt10sc_lv_baseEED1Ev
60633304 t .text$_ZN7sc_core12sc_port_base19mti_is_boundary_topEv
60633304 T __ZN7sc_core12sc_port_base19mti_is_boundary_topEv
60633314 t .text$_ZN7sc_core12sc_port_base22mti_disable_port_checkEv
60633314 T __ZN7sc_core12sc_port_base22mti_disable_port_checkEv
60633320 t .text$_ZN7sc_core12sc_process_b16add_child_objectEPNS_9sc_objectE
60633320 T __ZN7sc_core12sc_process_b16add_child_objectEPNS_9sc_objectE
6063335c t .text$_ZN7sc_core12sc_process_b19reference_decrementEv
6063335c T __ZN7sc_core12sc_process_b19reference_decrementEv
6063338c t .text$_ZN7sc_core12sc_process_b19reference_incrementEv
6063338c T __ZN7sc_core12sc_process_b19reference_incrementEv
606333c4 t .text$_ZN7sc_core12sc_process_b19remove_child_objectEPNS_9sc_objectE
606333c4 T __ZN7sc_core12sc_process_b19remove_child_objectEPNS_9sc_objectE
60633414 t .text$_ZN7sc_core13sc_host_mutex4lockEv
60633414 T __ZN7sc_core13sc_host_mutex4lockEv
6063342c t .text$_ZN7sc_core13sc_host_mutex6unlockEv
6063342c T __ZN7sc_core13sc_host_mutex6unlockEv
60633444 t .text$_ZN7sc_core13sc_host_mutex7trylockEv
60633444 T __ZN7sc_core13sc_host_mutex7trylockEv
60633460 t .text$_ZN7sc_core13sc_host_mutexD0Ev
60633460 T __ZN7sc_core13sc_host_mutexD0Ev
606334cc t .text$_ZN7sc_core13sc_host_mutexD1Ev
606334cc T __ZN7sc_core13sc_host_mutexD1Ev
60633530 t .text$_ZN7sc_core13sc_trace_fileD0Ev
60633530 T __ZN7sc_core13sc_trace_fileD0Ev
60633544 t .text$_ZN7sc_core13sc_trace_fileD1Ev
60633544 T __ZN7sc_core13sc_trace_fileD1Ev
60633554 t .text$_ZN7sc_core14sc_delta_countEv
60633554 T __ZN7sc_core14sc_delta_countEv
60633568 t .text$_ZN7sc_core14sc_export_base23mti_create_export_aliasEv
60633568 T __ZN7sc_core14sc_export_base23mti_create_export_aliasEv
60633570 t .text$_ZN7sc_core14sc_main_moduleD0Ev
60633570 T __ZN7sc_core14sc_main_moduleD0Ev
6063359c t .text$_ZN7sc_core14sc_main_moduleD1Ev
6063359c T __ZN7sc_core14sc_main_moduleD1Ev
606335b8 t .text$_ZN7sc_core14sc_spawn_resetINS_15sc_signal_in_ifIbEEE13specify_resetEv
606335b8 T __ZN7sc_core14sc_spawn_resetINS_15sc_signal_in_ifIbEEE13specify_resetEv
606335d8 t .text$_ZN7sc_core14sc_spawn_resetINS_15sc_signal_in_ifIbEEED0Ev
606335d8 T __ZN7sc_core14sc_spawn_resetINS_15sc_signal_in_ifIbEEED0Ev
606335ec t .text$_ZN7sc_core14sc_spawn_resetINS_15sc_signal_in_ifIbEEED1Ev
606335ec T __ZN7sc_core14sc_spawn_resetINS_15sc_signal_in_ifIbEEED1Ev
606335fc t .text$_ZN7sc_core14sc_spawn_resetINS_5sc_inIbEEE13specify_resetEv
606335fc T __ZN7sc_core14sc_spawn_resetINS_5sc_inIbEEE13specify_resetEv
6063361c t .text$_ZN7sc_core14sc_spawn_resetINS_5sc_inIbEEED0Ev
6063361c T __ZN7sc_core14sc_spawn_resetINS_5sc_inIbEEED0Ev
60633630 t .text$_ZN7sc_core14sc_spawn_resetINS_5sc_inIbEEED1Ev
60633630 T __ZN7sc_core14sc_spawn_resetINS_5sc_inIbEEED1Ev
60633640 t .text$_ZN7sc_core14sc_spawn_resetINS_6sc_outIbEEE13specify_resetEv
60633640 T __ZN7sc_core14sc_spawn_resetINS_6sc_outIbEEE13specify_resetEv
60633660 t .text$_ZN7sc_core14sc_spawn_resetINS_6sc_outIbEEED0Ev
60633660 T __ZN7sc_core14sc_spawn_resetINS_6sc_outIbEEED0Ev
60633674 t .text$_ZN7sc_core14sc_spawn_resetINS_6sc_outIbEEED1Ev
60633674 T __ZN7sc_core14sc_spawn_resetINS_6sc_outIbEEED1Ev
60633684 t .text$_ZN7sc_core14sc_spawn_resetINS_8sc_inoutIbEEE13specify_resetEv
60633684 T __ZN7sc_core14sc_spawn_resetINS_8sc_inoutIbEEE13specify_resetEv
606336a4 t .text$_ZN7sc_core14sc_spawn_resetINS_8sc_inoutIbEEED0Ev
606336a4 T __ZN7sc_core14sc_spawn_resetINS_8sc_inoutIbEEED0Ev
606336b8 t .text$_ZN7sc_core14sc_spawn_resetINS_8sc_inoutIbEEED1Ev
606336b8 T __ZN7sc_core14sc_spawn_resetINS_8sc_inoutIbEEED1Ev
606336c8 t .text$_ZN7sc_core14vcd_bool_traceD0Ev
606336c8 T __ZN7sc_core14vcd_bool_traceD0Ev
606336f0 t .text$_ZN7sc_core14vcd_bool_traceD1Ev
606336f0 T __ZN7sc_core14vcd_bool_traceD1Ev
60633704 t .text$_ZN7sc_core14vcd_enum_traceD0Ev
60633704 T __ZN7sc_core14vcd_enum_traceD0Ev
6063372c t .text$_ZN7sc_core14vcd_enum_traceD1Ev
6063372c T __ZN7sc_core14vcd_enum_traceD1Ev
60633740 t .text$_ZN7sc_core15sc_prim_channel14request_updateEv
60633740 T __ZN7sc_core15sc_prim_channel14request_updateEv
60633788 t .text$_ZN7sc_core15sc_prim_channel20mti_get_channel_typeEv
60633788 T __ZN7sc_core15sc_prim_channel20mti_get_channel_typeEv
60633790 t .text$_ZN7sc_core15sc_prim_channel20mti_get_prim_channelEv
60633790 T __ZN7sc_core15sc_prim_channel20mti_get_prim_channelEv
6063379c t .text$_ZN7sc_core15sc_prim_channel27mti_get_construction_paramsEPiS1_S1_S1_S1_
6063379c T __ZN7sc_core15sc_prim_channel27mti_get_construction_paramsEPiS1_S1_S1_S1_
606337b4 t .text$_ZN7sc_core15sc_process_hostD0Ev
606337b4 T __ZN7sc_core15sc_process_hostD0Ev
606337c8 t .text$_ZN7sc_core15sc_process_hostD1Ev
606337c8 T __ZN7sc_core15sc_process_hostD1Ev
606337d8 t .text$_ZN7sc_core15sc_signal_in_ifIN5sc_dt6sc_intILi16EEEEC2Ev
606337d8 T __ZN7sc_core15sc_signal_in_ifIN5sc_dt6sc_intILi16EEEEC2Ev
60633804 t .text$_ZN7sc_core15sc_signal_in_ifIN5sc_dt6sc_intILi16EEEED0Ev
60633804 T __ZN7sc_core15sc_signal_in_ifIN5sc_dt6sc_intILi16EEEED0Ev
60633858 t .text$_ZN7sc_core15sc_signal_in_ifIN5sc_dt6sc_intILi16EEEED1Ev
60633858 T __ZN7sc_core15sc_signal_in_ifIN5sc_dt6sc_intILi16EEEED1Ev
606338ac t .text$_ZN7sc_core15sc_signal_in_ifIN5sc_dt6sc_intILi16EEEED2Ev
606338ac T __ZN7sc_core15sc_signal_in_ifIN5sc_dt6sc_intILi16EEEED2Ev
60633908 t .text$_ZN7sc_core15sc_signal_in_ifIN5sc_dt7sc_uintILi4EEEEC2Ev
60633908 T __ZN7sc_core15sc_signal_in_ifIN5sc_dt7sc_uintILi4EEEEC2Ev
60633934 t .text$_ZN7sc_core15sc_signal_in_ifIN5sc_dt7sc_uintILi4EEEED0Ev
60633934 T __ZN7sc_core15sc_signal_in_ifIN5sc_dt7sc_uintILi4EEEED0Ev
60633988 t .text$_ZN7sc_core15sc_signal_in_ifIN5sc_dt7sc_uintILi4EEEED1Ev
60633988 T __ZN7sc_core15sc_signal_in_ifIN5sc_dt7sc_uintILi4EEEED1Ev
606339dc t .text$_ZN7sc_core15sc_signal_in_ifIN5sc_dt7sc_uintILi4EEEED2Ev
606339dc T __ZN7sc_core15sc_signal_in_ifIN5sc_dt7sc_uintILi4EEEED2Ev
60633a38 t .text$_ZN7sc_core15sc_signal_in_ifIN5sc_dt8sc_logicEED0Ev
60633a38 T __ZN7sc_core15sc_signal_in_ifIN5sc_dt8sc_logicEED0Ev
60633a60 t .text$_ZN7sc_core15sc_signal_in_ifIN5sc_dt8sc_logicEED1Ev
60633a60 T __ZN7sc_core15sc_signal_in_ifIN5sc_dt8sc_logicEED1Ev
60633a74 t .text$_ZN7sc_core15sc_signal_in_ifIbEC2Ev
60633a74 T __ZN7sc_core15sc_signal_in_ifIbEC2Ev
60633aa0 t .text$_ZN7sc_core15sc_signal_in_ifIbED0Ev
60633aa0 T __ZN7sc_core15sc_signal_in_ifIbED0Ev
60633af4 t .text$_ZN7sc_core15sc_signal_in_ifIbED1Ev
60633af4 T __ZN7sc_core15sc_signal_in_ifIbED1Ev
60633b48 t .text$_ZN7sc_core15sc_signal_in_ifIbED2Ev
60633b48 T __ZN7sc_core15sc_signal_in_ifIbED2Ev
60633ba4 t .text$_ZN7sc_core15sc_spawn_objectIN8sc_boost3_bi6bind_tIvNS1_4_mfi3mf0IvNS_16sc_invoke_methodEEENS2_5list1INS2_5valueIPS6_EEEEEEE9semanticsEv
60633ba4 T __ZN7sc_core15sc_spawn_objectIN8sc_boost3_bi6bind_tIvNS1_4_mfi3mf0IvNS_16sc_invoke_methodEEENS2_5list1INS2_5valueIPS6_EEEEEEE9semanticsEv
60633bcc t .text$_ZN7sc_core15sc_spawn_objectIN8sc_boost3_bi6bind_tIvNS1_4_mfi3mf0IvNS_16sc_invoke_methodEEENS2_5list1INS2_5valueIPS6_EEEEEEED0Ev
60633bcc T __ZN7sc_core15sc_spawn_objectIN8sc_boost3_bi6bind_tIvNS1_4_mfi3mf0IvNS_16sc_invoke_methodEEENS2_5list1INS2_5valueIPS6_EEEEEEED0Ev
60633be0 t .text$_ZN7sc_core15sc_spawn_objectIN8sc_boost3_bi6bind_tIvNS1_4_mfi3mf0IvNS_16sc_invoke_methodEEENS2_5list1INS2_5valueIPS6_EEEEEEED1Ev
60633be0 T __ZN7sc_core15sc_spawn_objectIN8sc_boost3_bi6bind_tIvNS1_4_mfi3mf0IvNS_16sc_invoke_methodEEENS2_5list1INS2_5valueIPS6_EEEEEEED1Ev
60633bf0 t .text$_ZN7sc_core15sc_trace_paramsD1Ev
60633bf0 T __ZN7sc_core15sc_trace_paramsD1Ev
60633c0c t .text$_ZN7sc_core15vcd_float_traceD0Ev
60633c0c T __ZN7sc_core15vcd_float_traceD0Ev
60633c34 t .text$_ZN7sc_core15vcd_float_traceD1Ev
60633c34 T __ZN7sc_core15vcd_float_traceD1Ev
60633c48 t .text$_ZN7sc_core15vcd_int64_traceD0Ev
60633c48 T __ZN7sc_core15vcd_int64_traceD0Ev
60633c70 t .text$_ZN7sc_core15vcd_int64_traceD1Ev
60633c70 T __ZN7sc_core15vcd_int64_traceD1Ev
60633c84 t .text$_ZN7sc_core16sc_invoke_method13invoke_methodEPNS_17sc_method_processE
60633c84 T __ZN7sc_core16sc_invoke_method13invoke_methodEPNS_17sc_method_processE
60634458 t .text$_ZN7sc_core16sc_invoke_method7invokerEv
60634458 T __ZN7sc_core16sc_invoke_method7invokerEv
606346e8 t .text$_ZN7sc_core16sc_invoke_methodD0Ev
606346e8 T __ZN7sc_core16sc_invoke_methodD0Ev
606348f0 t .text$_ZN7sc_core16sc_invoke_methodD1Ev
606348f0 T __ZN7sc_core16sc_invoke_methodD1Ev
60634af0 t .text$_ZN7sc_core16vcd_double_traceD0Ev
60634af0 T __ZN7sc_core16vcd_double_traceD0Ev
60634b18 t .text$_ZN7sc_core16vcd_double_traceD1Ev
60634b18 T __ZN7sc_core16vcd_double_traceD1Ev
60634b2c t .text$_ZN7sc_core16vcd_sc_bit_traceD0Ev
60634b2c T __ZN7sc_core16vcd_sc_bit_traceD0Ev
60634b58 t .text$_ZN7sc_core16vcd_sc_bit_traceD1Ev
60634b58 T __ZN7sc_core16vcd_sc_bit_traceD1Ev
60634b74 t .text$_ZN7sc_core16vcd_uint64_traceD0Ev
60634b74 T __ZN7sc_core16vcd_uint64_traceD0Ev
60634b9c t .text$_ZN7sc_core16vcd_uint64_traceD1Ev
60634b9c T __ZN7sc_core16vcd_uint64_traceD1Ev
60634bb0 t .text$_ZN7sc_core17sc_event_finder_tINS_15sc_signal_in_ifIN5sc_dt8sc_logicEEEED0Ev
60634bb0 T __ZN7sc_core17sc_event_finder_tINS_15sc_signal_in_ifIN5sc_dt8sc_logicEEEED0Ev
60634bd8 t .text$_ZN7sc_core17sc_event_finder_tINS_15sc_signal_in_ifIN5sc_dt8sc_logicEEEED1Ev
60634bd8 T __ZN7sc_core17sc_event_finder_tINS_15sc_signal_in_ifIN5sc_dt8sc_logicEEEED1Ev
60634bec t .text$_ZN7sc_core17sc_event_finder_tINS_15sc_signal_in_ifIbEEEC1ERKNS_12sc_port_baseEMS2_KFRKNS_8sc_eventEvE
60634bec T __ZN7sc_core17sc_event_finder_tINS_15sc_signal_in_ifIbEEEC1ERKNS_12sc_port_baseEMS2_KFRKNS_8sc_eventEvE
60634c20 t .text$_ZN7sc_core17sc_event_finder_tINS_15sc_signal_in_ifIbEEED0Ev
60634c20 T __ZN7sc_core17sc_event_finder_tINS_15sc_signal_in_ifIbEEED0Ev
60634c58 t .text$_ZN7sc_core17sc_event_finder_tINS_15sc_signal_in_ifIbEEED1Ev
60634c58 T __ZN7sc_core17sc_event_finder_tINS_15sc_signal_in_ifIbEEED1Ev
60634c90 t .text$_ZN7sc_core17sc_foreign_moduleD0Ev
60634c90 T __ZN7sc_core17sc_foreign_moduleD0Ev
60634ce8 t .text$_ZN7sc_core17sc_foreign_moduleD1Ev
60634ce8 T __ZN7sc_core17sc_foreign_moduleD1Ev
60634d40 t .text$_ZN7sc_core17sc_foreign_moduleD2Ev
60634d40 T __ZN7sc_core17sc_foreign_moduleD2Ev
60634d98 t .text$_ZN7sc_core17sc_method_process22prepare_for_simulationEv
60634d98 T __ZN7sc_core17sc_method_process22prepare_for_simulationEv
60634da0 t .text$_ZN7sc_core17sc_process_handleC1ERKS0_
60634da0 T __ZN7sc_core17sc_process_handleC1ERKS0_
60634dcc t .text$_ZN7sc_core17sc_process_handleD1Ev
60634dcc T __ZN7sc_core17sc_process_handleD1Ev
60634df0 t .text$_ZN7sc_core17sc_spawn_object_vIN8sc_boost3_bi6bind_tIiPFiPFiiPPcEENS2_5list1INS2_5valueIS7_EEEEEEE9semanticsEv
60634df0 T __ZN7sc_core17sc_spawn_object_vIN8sc_boost3_bi6bind_tIiPFiPFiiPPcEENS2_5list1INS2_5valueIS7_EEEEEEE9semanticsEv
60634e10 t .text$_ZN7sc_core17sc_spawn_object_vIN8sc_boost3_bi6bind_tIiPFiPFiiPPcEENS2_5list1INS2_5valueIS7_EEEEEEED0Ev
60634e10 T __ZN7sc_core17sc_spawn_object_vIN8sc_boost3_bi6bind_tIiPFiPFiiPPcEENS2_5list1INS2_5valueIS7_EEEEEEED0Ev
60634e24 t .text$_ZN7sc_core17sc_spawn_object_vIN8sc_boost3_bi6bind_tIiPFiPFiiPPcEENS2_5list1INS2_5valueIS7_EEEEEEED1Ev
60634e24 T __ZN7sc_core17sc_spawn_object_vIN8sc_boost3_bi6bind_tIiPFiPFiiPPcEENS2_5list1INS2_5valueIS7_EEEEEEED1Ev
60634e34 t .text$_ZN7sc_core18sc_process_monitor6signalEPNS_17sc_thread_processEi
60634e34 T __ZN7sc_core18sc_process_monitor6signalEPNS_17sc_thread_processEi
60634e3c t .text$_ZN7sc_core18sc_process_monitorD0Ev
60634e3c T __ZN7sc_core18sc_process_monitorD0Ev
60634e68 t .text$_ZN7sc_core18sc_process_monitorD1Ev
60634e68 T __ZN7sc_core18sc_process_monitorD1Ev
60634e94 t .text$_ZN7sc_core18sc_signal_inout_ifIN5sc_dt6sc_intILi16EEEEC2Ev
60634e94 T __ZN7sc_core18sc_signal_inout_ifIN5sc_dt6sc_intILi16EEEEC2Ev
60634ef8 t .text$_ZN7sc_core18sc_signal_inout_ifIN5sc_dt6sc_intILi16EEEED0Ev
60634ef8 T __ZN7sc_core18sc_signal_inout_ifIN5sc_dt6sc_intILi16EEEED0Ev
60635018 t .text$_ZN7sc_core18sc_signal_inout_ifIN5sc_dt6sc_intILi16EEEED1Ev
60635018 T __ZN7sc_core18sc_signal_inout_ifIN5sc_dt6sc_intILi16EEEED1Ev
60635138 t .text$_ZN7sc_core18sc_signal_inout_ifIN5sc_dt6sc_intILi16EEEED2Ev
60635138 T __ZN7sc_core18sc_signal_inout_ifIN5sc_dt6sc_intILi16EEEED2Ev
60635264 t .text$_ZN7sc_core18sc_signal_inout_ifIN5sc_dt7sc_uintILi4EEEEC2Ev
60635264 T __ZN7sc_core18sc_signal_inout_ifIN5sc_dt7sc_uintILi4EEEEC2Ev
606352c8 t .text$_ZN7sc_core18sc_signal_inout_ifIN5sc_dt7sc_uintILi4EEEED0Ev
606352c8 T __ZN7sc_core18sc_signal_inout_ifIN5sc_dt7sc_uintILi4EEEED0Ev
606353e8 t .text$_ZN7sc_core18sc_signal_inout_ifIN5sc_dt7sc_uintILi4EEEED1Ev
606353e8 T __ZN7sc_core18sc_signal_inout_ifIN5sc_dt7sc_uintILi4EEEED1Ev
60635508 t .text$_ZN7sc_core18sc_signal_inout_ifIN5sc_dt7sc_uintILi4EEEED2Ev
60635508 T __ZN7sc_core18sc_signal_inout_ifIN5sc_dt7sc_uintILi4EEEED2Ev
60635634 t .text$_ZN7sc_core18sc_signal_inout_ifIN5sc_dt8sc_logicEED0Ev
60635634 T __ZN7sc_core18sc_signal_inout_ifIN5sc_dt8sc_logicEED0Ev
6063567c t .text$_ZN7sc_core18sc_signal_inout_ifIN5sc_dt8sc_logicEED1Ev
6063567c T __ZN7sc_core18sc_signal_inout_ifIN5sc_dt8sc_logicEED1Ev
606356b0 t .text$_ZN7sc_core18sc_signal_inout_ifIbEC2Ev
606356b0 T __ZN7sc_core18sc_signal_inout_ifIbEC2Ev
60635714 t .text$_ZN7sc_core18sc_signal_inout_ifIbED0Ev
60635714 T __ZN7sc_core18sc_signal_inout_ifIbED0Ev
60635834 t .text$_ZN7sc_core18sc_signal_inout_ifIbED1Ev
60635834 T __ZN7sc_core18sc_signal_inout_ifIbED1Ev
60635954 t .text$_ZN7sc_core18sc_signal_inout_ifIbED2Ev
60635954 T __ZN7sc_core18sc_signal_inout_ifIbED2Ev
6063598c t .text$_ZN7sc_core18sc_signal_write_ifIN5sc_dt6sc_intILi16EEEEC2Ev
6063598c T __ZN7sc_core18sc_signal_write_ifIN5sc_dt6sc_intILi16EEEEC2Ev
606359b8 t .text$_ZN7sc_core18sc_signal_write_ifIN5sc_dt6sc_intILi16EEEED0Ev
606359b8 T __ZN7sc_core18sc_signal_write_ifIN5sc_dt6sc_intILi16EEEED0Ev
60635a0c t .text$_ZN7sc_core18sc_signal_write_ifIN5sc_dt6sc_intILi16EEEED1Ev
60635a0c T __ZN7sc_core18sc_signal_write_ifIN5sc_dt6sc_intILi16EEEED1Ev
60635a60 t .text$_ZN7sc_core18sc_signal_write_ifIN5sc_dt6sc_intILi16EEEED2Ev
60635a60 T __ZN7sc_core18sc_signal_write_ifIN5sc_dt6sc_intILi16EEEED2Ev
60635abc t .text$_ZN7sc_core18sc_signal_write_ifIN5sc_dt7sc_uintILi4EEEEC2Ev
60635abc T __ZN7sc_core18sc_signal_write_ifIN5sc_dt7sc_uintILi4EEEEC2Ev
60635ae8 t .text$_ZN7sc_core18sc_signal_write_ifIN5sc_dt7sc_uintILi4EEEED0Ev
60635ae8 T __ZN7sc_core18sc_signal_write_ifIN5sc_dt7sc_uintILi4EEEED0Ev
60635b3c t .text$_ZN7sc_core18sc_signal_write_ifIN5sc_dt7sc_uintILi4EEEED1Ev
60635b3c T __ZN7sc_core18sc_signal_write_ifIN5sc_dt7sc_uintILi4EEEED1Ev
60635b90 t .text$_ZN7sc_core18sc_signal_write_ifIN5sc_dt7sc_uintILi4EEEED2Ev
60635b90 T __ZN7sc_core18sc_signal_write_ifIN5sc_dt7sc_uintILi4EEEED2Ev
60635bec t .text$_ZN7sc_core18sc_signal_write_ifIN5sc_dt8sc_logicEED0Ev
60635bec T __ZN7sc_core18sc_signal_write_ifIN5sc_dt8sc_logicEED0Ev
60635c14 t .text$_ZN7sc_core18sc_signal_write_ifIN5sc_dt8sc_logicEED1Ev
60635c14 T __ZN7sc_core18sc_signal_write_ifIN5sc_dt8sc_logicEED1Ev
60635c28 t .text$_ZN7sc_core18sc_signal_write_ifIbEC2Ev
60635c28 T __ZN7sc_core18sc_signal_write_ifIbEC2Ev
60635c54 t .text$_ZN7sc_core18sc_signal_write_ifIbED0Ev
60635c54 T __ZN7sc_core18sc_signal_write_ifIbED0Ev
60635ca8 t .text$_ZN7sc_core18sc_signal_write_ifIbED1Ev
60635ca8 T __ZN7sc_core18sc_signal_write_ifIbED1Ev
60635cfc t .text$_ZN7sc_core18sc_signal_write_ifIbED2Ev
60635cfc T __ZN7sc_core18sc_signal_write_ifIbED2Ev
60635d58 t .text$_ZN7sc_core18vcd_sc_fxnum_traceD0Ev
60635d58 T __ZN7sc_core18vcd_sc_fxnum_traceD0Ev
60635dec t .text$_ZN7sc_core18vcd_sc_fxnum_traceD1Ev
60635dec T __ZN7sc_core18vcd_sc_fxnum_traceD1Ev
60635e74 t .text$_ZN7sc_core18vcd_sc_fxval_traceD0Ev
60635e74 T __ZN7sc_core18vcd_sc_fxval_traceD0Ev
60635edc t .text$_ZN7sc_core18vcd_sc_fxval_traceD1Ev
60635edc T __ZN7sc_core18vcd_sc_fxval_traceD1Ev
60635f38 t .text$_ZN7sc_core18vcd_sc_logic_traceD0Ev
60635f38 T __ZN7sc_core18vcd_sc_logic_traceD0Ev
60635f64 t .text$_ZN7sc_core18vcd_sc_logic_traceD1Ev
60635f64 T __ZN7sc_core18vcd_sc_logic_traceD1Ev
60635f80 t .text$_ZN7sc_core19sc_spawn_reset_baseD0Ev
60635f80 T __ZN7sc_core19sc_spawn_reset_baseD0Ev
60635f94 t .text$_ZN7sc_core19sc_spawn_reset_baseD1Ev
60635f94 T __ZN7sc_core19sc_spawn_reset_baseD1Ev
60635fa4 t .text$_ZN7sc_core19vcd_sc_signed_traceD0Ev
60635fa4 T __ZN7sc_core19vcd_sc_signed_traceD0Ev
60636014 t .text$_ZN7sc_core19vcd_sc_signed_traceD1Ev
60636014 T __ZN7sc_core19vcd_sc_signed_traceD1Ev
60636078 t .text$_ZN7sc_core20vcd_signed_int_traceD0Ev
60636078 T __ZN7sc_core20vcd_signed_int_traceD0Ev
606360a0 t .text$_ZN7sc_core20vcd_signed_int_traceD1Ev
606360a0 T __ZN7sc_core20vcd_signed_int_traceD1Ev
606360b4 t .text$_ZN7sc_core21vcd_sc_int_base_traceD0Ev
606360b4 T __ZN7sc_core21vcd_sc_int_base_traceD0Ev
606360e8 t .text$_ZN7sc_core21vcd_sc_int_base_traceD1Ev
606360e8 T __ZN7sc_core21vcd_sc_int_base_traceD1Ev
60636108 t .text$_ZN7sc_core21vcd_sc_unsigned_traceD0Ev
60636108 T __ZN7sc_core21vcd_sc_unsigned_traceD0Ev
6063617c t .text$_ZN7sc_core21vcd_sc_unsigned_traceD1Ev
6063617c T __ZN7sc_core21vcd_sc_unsigned_traceD1Ev
606361e4 t .text$_ZN7sc_core21vcd_signed_char_traceD0Ev
606361e4 T __ZN7sc_core21vcd_signed_char_traceD0Ev
6063620c t .text$_ZN7sc_core21vcd_signed_char_traceD1Ev
6063620c T __ZN7sc_core21vcd_signed_char_traceD1Ev
60636220 t .text$_ZN7sc_core21vcd_signed_long_traceD0Ev
60636220 T __ZN7sc_core21vcd_signed_long_traceD0Ev
60636248 t .text$_ZN7sc_core21vcd_signed_long_traceD1Ev
60636248 T __ZN7sc_core21vcd_signed_long_traceD1Ev
6063625c t .text$_ZN7sc_core22sc_get_curr_simcontextEv
6063625c T __ZN7sc_core22sc_get_curr_simcontextEv
606362d0 t .text$_ZN7sc_core22sc_writer_policy_checkILNS_16sc_writer_policyE0EEC2Ev
606362d0 T __ZN7sc_core22sc_writer_policy_checkILNS_16sc_writer_policyE0EEC2Ev
606362f4 t .text$_ZN7sc_core22vcd_sc_uint_base_traceD0Ev
606362f4 T __ZN7sc_core22vcd_sc_uint_base_traceD0Ev
60636350 t .text$_ZN7sc_core22vcd_sc_uint_base_traceD1Ev
60636350 T __ZN7sc_core22vcd_sc_uint_base_traceD1Ev
606363a0 t .text$_ZN7sc_core22vcd_signed_short_traceD0Ev
606363a0 T __ZN7sc_core22vcd_signed_short_traceD0Ev
606363c8 t .text$_ZN7sc_core22vcd_signed_short_traceD1Ev
606363c8 T __ZN7sc_core22vcd_signed_short_traceD1Ev
606363dc t .text$_ZN7sc_core22vcd_unsigned_int_traceD0Ev
606363dc T __ZN7sc_core22vcd_unsigned_int_traceD0Ev
60636404 t .text$_ZN7sc_core22vcd_unsigned_int_traceD1Ev
60636404 T __ZN7sc_core22vcd_unsigned_int_traceD1Ev
60636418 t .text$_ZN7sc_core23vcd_sc_fxnum_fast_traceD0Ev
60636418 T __ZN7sc_core23vcd_sc_fxnum_fast_traceD0Ev
60636464 t .text$_ZN7sc_core23vcd_sc_fxnum_fast_traceD1Ev
60636464 T __ZN7sc_core23vcd_sc_fxnum_fast_traceD1Ev
606364a4 t .text$_ZN7sc_core23vcd_sc_fxval_fast_traceD0Ev
606364a4 T __ZN7sc_core23vcd_sc_fxval_fast_traceD0Ev
606364cc t .text$_ZN7sc_core23vcd_sc_fxval_fast_traceD1Ev
606364cc T __ZN7sc_core23vcd_sc_fxval_fast_traceD1Ev
606364e0 t .text$_ZN7sc_core23vcd_unsigned_char_traceD0Ev
606364e0 T __ZN7sc_core23vcd_unsigned_char_traceD0Ev
60636508 t .text$_ZN7sc_core23vcd_unsigned_char_traceD1Ev
60636508 T __ZN7sc_core23vcd_unsigned_char_traceD1Ev
6063651c t .text$_ZN7sc_core23vcd_unsigned_long_traceD0Ev
6063651c T __ZN7sc_core23vcd_unsigned_long_traceD0Ev
60636544 t .text$_ZN7sc_core23vcd_unsigned_long_traceD1Ev
60636544 T __ZN7sc_core23vcd_unsigned_long_traceD1Ev
60636558 t .text$_ZN7sc_core24sc_prim_channel_registry14request_updateERNS_15sc_prim_channelE
60636558 T __ZN7sc_core24sc_prim_channel_registry14request_updateERNS_15sc_prim_channelE
60636574 t .text$_ZN7sc_core24vcd_unsigned_short_traceD0Ev
60636574 T __ZN7sc_core24vcd_unsigned_short_traceD0Ev
6063659c t .text$_ZN7sc_core24vcd_unsigned_short_traceD1Ev
6063659c T __ZN7sc_core24vcd_unsigned_short_traceD1Ev
606365b0 t .text$_ZN7sc_core27sc_writer_policy_check_portC2Ev
606365b0 T __ZN7sc_core27sc_writer_policy_check_portC2Ev
606365c0 t .text$_ZN7sc_core28sc_writer_policy_check_write11check_writeEPNS_9sc_objectEb
606365c0 T __ZN7sc_core28sc_writer_policy_check_write11check_writeEPNS_9sc_objectEb
60636644 t .text$_ZN7sc_core28sc_writer_policy_check_write6updateEv
60636644 T __ZN7sc_core28sc_writer_policy_check_write6updateEv
6063664c t .text$_ZN7sc_core28sc_writer_policy_check_writeC2Eb
6063664c T __ZN7sc_core28sc_writer_policy_check_writeC2Eb
6063666c t .text$_ZN7sc_core5sc_inIN5sc_dt6sc_intILi16EEEE18end_of_elaborationEv
6063666c T __ZN7sc_core5sc_inIN5sc_dt6sc_intILi16EEEE18end_of_elaborationEv
60636754 t .text$_ZN7sc_core5sc_inIN5sc_dt6sc_intILi16EEEE20mti_bind_sc_obj_nameEPc
60636754 T __ZN7sc_core5sc_inIN5sc_dt6sc_intILi16EEEE20mti_bind_sc_obj_nameEPc
606368b8 t .text$_ZN7sc_core5sc_inIN5sc_dt6sc_intILi16EEEE28mti_initialize_boundary_portEv
606368b8 T __ZN7sc_core5sc_inIN5sc_dt6sc_intILi16EEEE28mti_initialize_boundary_portEv
60636998 t .text$_ZN7sc_core5sc_inIN5sc_dt6sc_intILi16EEEE4bindERKNS_15sc_signal_in_ifIS3_EE
60636998 T __ZN7sc_core5sc_inIN5sc_dt6sc_intILi16EEEE4bindERKNS_15sc_signal_in_ifIS3_EE
606369c0 t .text$_ZN7sc_core5sc_inIN5sc_dt6sc_intILi16EEEE4bindERNS_15sc_signal_in_ifIS3_EE
606369c0 T __ZN7sc_core5sc_inIN5sc_dt6sc_intILi16EEEE4bindERNS_15sc_signal_in_ifIS3_EE
606369e4 t .text$_ZN7sc_core5sc_inIN5sc_dt6sc_intILi16EEEE4bindERNS_7sc_portINS_15sc_signal_in_ifIS3_EELi1ELNS_14sc_port_policyE0EEE
606369e4 T __ZN7sc_core5sc_inIN5sc_dt6sc_intILi16EEEE4bindERNS_7sc_portINS_15sc_signal_in_ifIS3_EELi1ELNS_14sc_port_policyE0EEE
60636a00 t .text$_ZN7sc_core5sc_inIN5sc_dt6sc_intILi16EEEE4bindERNS_7sc_portINS_18sc_signal_inout_ifIS3_EELi1ELNS_14sc_port_policyE0EEE
60636a00 T __ZN7sc_core5sc_inIN5sc_dt6sc_intILi16EEEE4bindERNS_7sc_portINS_18sc_signal_inout_ifIS3_EELi1ELNS_14sc_port_policyE0EEE
60636a1c t .text$_ZN7sc_core5sc_inIN5sc_dt6sc_intILi16EEEE4bindERNS_9sc_port_bINS_15sc_signal_in_ifIS3_EEEE
60636a1c T __ZN7sc_core5sc_inIN5sc_dt6sc_intILi16EEEE4bindERNS_9sc_port_bINS_15sc_signal_in_ifIS3_EEEE
60636a38 t .text$_ZN7sc_core5sc_inIN5sc_dt6sc_intILi16EEEE5vbindERNS_12sc_interfaceE
60636a38 T __ZN7sc_core5sc_inIN5sc_dt6sc_intILi16EEEE5vbindERNS_12sc_interfaceE
60636a54 t .text$_ZN7sc_core5sc_inIN5sc_dt6sc_intILi16EEEE5vbindERNS_12sc_port_baseE
60636a54 T __ZN7sc_core5sc_inIN5sc_dt6sc_intILi16EEEE5vbindERNS_12sc_port_baseE
60636b08 t .text$_ZN7sc_core5sc_inIN5sc_dt6sc_intILi16EEEEC1EPKc
60636b08 T __ZN7sc_core5sc_inIN5sc_dt6sc_intILi16EEEEC1EPKc
60636ba0 t .text$_ZN7sc_core5sc_inIN5sc_dt6sc_intILi16EEEEC1Ev
60636ba0 T __ZN7sc_core5sc_inIN5sc_dt6sc_intILi16EEEEC1Ev
60636c34 t .text$_ZN7sc_core5sc_inIN5sc_dt6sc_intILi16EEEED0Ev
60636c34 T __ZN7sc_core5sc_inIN5sc_dt6sc_intILi16EEEED0Ev
60636d18 t .text$_ZN7sc_core5sc_inIN5sc_dt6sc_intILi16EEEED1Ev
60636d18 T __ZN7sc_core5sc_inIN5sc_dt6sc_intILi16EEEED1Ev
60636dfc t .text$_ZN7sc_core5sc_inIN5sc_dt6sc_intILi16EEEEclERKNS_15sc_signal_in_ifIS3_EE
60636dfc T __ZN7sc_core5sc_inIN5sc_dt6sc_intILi16EEEEclERKNS_15sc_signal_in_ifIS3_EE
60636e20 t .text$_ZN7sc_core5sc_inIN5sc_dt6sc_intILi16EEEEclERNS_7sc_portINS_15sc_signal_in_ifIS3_EELi1ELNS_14sc_port_policyE0EEE
60636e20 T __ZN7sc_core5sc_inIN5sc_dt6sc_intILi16EEEEclERNS_7sc_portINS_15sc_signal_in_ifIS3_EELi1ELNS_14sc_port_policyE0EEE
60636e44 t .text$_ZN7sc_core5sc_inIN5sc_dt7sc_uintILi4EEEE18end_of_elaborationEv
60636e44 T __ZN7sc_core5sc_inIN5sc_dt7sc_uintILi4EEEE18end_of_elaborationEv
60636f2c t .text$_ZN7sc_core5sc_inIN5sc_dt7sc_uintILi4EEEE20mti_bind_sc_obj_nameEPc
60636f2c T __ZN7sc_core5sc_inIN5sc_dt7sc_uintILi4EEEE20mti_bind_sc_obj_nameEPc
60637090 t .text$_ZN7sc_core5sc_inIN5sc_dt7sc_uintILi4EEEE28mti_initialize_boundary_portEv
60637090 T __ZN7sc_core5sc_inIN5sc_dt7sc_uintILi4EEEE28mti_initialize_boundary_portEv
60637170 t .text$_ZN7sc_core5sc_inIN5sc_dt7sc_uintILi4EEEE4bindERKNS_15sc_signal_in_ifIS3_EE
60637170 T __ZN7sc_core5sc_inIN5sc_dt7sc_uintILi4EEEE4bindERKNS_15sc_signal_in_ifIS3_EE
60637198 t .text$_ZN7sc_core5sc_inIN5sc_dt7sc_uintILi4EEEE4bindERNS_15sc_signal_in_ifIS3_EE
60637198 T __ZN7sc_core5sc_inIN5sc_dt7sc_uintILi4EEEE4bindERNS_15sc_signal_in_ifIS3_EE
606371bc t .text$_ZN7sc_core5sc_inIN5sc_dt7sc_uintILi4EEEE4bindERNS_7sc_portINS_15sc_signal_in_ifIS3_EELi1ELNS_14sc_port_policyE0EEE
606371bc T __ZN7sc_core5sc_inIN5sc_dt7sc_uintILi4EEEE4bindERNS_7sc_portINS_15sc_signal_in_ifIS3_EELi1ELNS_14sc_port_policyE0EEE
606371d8 t .text$_ZN7sc_core5sc_inIN5sc_dt7sc_uintILi4EEEE4bindERNS_7sc_portINS_18sc_signal_inout_ifIS3_EELi1ELNS_14sc_port_policyE0EEE
606371d8 T __ZN7sc_core5sc_inIN5sc_dt7sc_uintILi4EEEE4bindERNS_7sc_portINS_18sc_signal_inout_ifIS3_EELi1ELNS_14sc_port_policyE0EEE
606371f4 t .text$_ZN7sc_core5sc_inIN5sc_dt7sc_uintILi4EEEE4bindERNS_9sc_port_bINS_15sc_signal_in_ifIS3_EEEE
606371f4 T __ZN7sc_core5sc_inIN5sc_dt7sc_uintILi4EEEE4bindERNS_9sc_port_bINS_15sc_signal_in_ifIS3_EEEE
60637210 t .text$_ZN7sc_core5sc_inIN5sc_dt7sc_uintILi4EEEE5vbindERNS_12sc_interfaceE
60637210 T __ZN7sc_core5sc_inIN5sc_dt7sc_uintILi4EEEE5vbindERNS_12sc_interfaceE
6063722c t .text$_ZN7sc_core5sc_inIN5sc_dt7sc_uintILi4EEEE5vbindERNS_12sc_port_baseE
6063722c T __ZN7sc_core5sc_inIN5sc_dt7sc_uintILi4EEEE5vbindERNS_12sc_port_baseE
606372e0 t .text$_ZN7sc_core5sc_inIN5sc_dt7sc_uintILi4EEEEC1EPKc
606372e0 T __ZN7sc_core5sc_inIN5sc_dt7sc_uintILi4EEEEC1EPKc
60637378 t .text$_ZN7sc_core5sc_inIN5sc_dt7sc_uintILi4EEEED0Ev
60637378 T __ZN7sc_core5sc_inIN5sc_dt7sc_uintILi4EEEED0Ev
6063745c t .text$_ZN7sc_core5sc_inIN5sc_dt7sc_uintILi4EEEED1Ev
6063745c T __ZN7sc_core5sc_inIN5sc_dt7sc_uintILi4EEEED1Ev
60637540 t .text$_ZN7sc_core5sc_inIN5sc_dt7sc_uintILi4EEEEclERKNS_15sc_signal_in_ifIS3_EE
60637540 T __ZN7sc_core5sc_inIN5sc_dt7sc_uintILi4EEEEclERKNS_15sc_signal_in_ifIS3_EE
60637564 t .text$_ZN7sc_core5sc_inIN5sc_dt7sc_uintILi4EEEEclERNS_7sc_portINS_15sc_signal_in_ifIS3_EELi1ELNS_14sc_port_policyE0EEE
60637564 T __ZN7sc_core5sc_inIN5sc_dt7sc_uintILi4EEEEclERNS_7sc_portINS_15sc_signal_in_ifIS3_EELi1ELNS_14sc_port_policyE0EEE
60637588 t .text$_ZN7sc_core5sc_inIN5sc_dt8sc_logicEE20mti_bind_sc_obj_nameEPc
60637588 T __ZN7sc_core5sc_inIN5sc_dt8sc_logicEE20mti_bind_sc_obj_nameEPc
60637728 t .text$_ZN7sc_core5sc_inIN5sc_dt8sc_logicEE4bindERKNS_15sc_signal_in_ifIS2_EE
60637728 T __ZN7sc_core5sc_inIN5sc_dt8sc_logicEE4bindERKNS_15sc_signal_in_ifIS2_EE
6063773c t .text$_ZN7sc_core5sc_inIN5sc_dt8sc_logicEE4bindERNS_15sc_signal_in_ifIS2_EE
6063773c T __ZN7sc_core5sc_inIN5sc_dt8sc_logicEE4bindERNS_15sc_signal_in_ifIS2_EE
60637750 t .text$_ZN7sc_core5sc_inIN5sc_dt8sc_logicEE4bindERNS_7sc_portINS_15sc_signal_in_ifIS2_EELi1ELNS_14sc_port_policyE0EEE
60637750 T __ZN7sc_core5sc_inIN5sc_dt8sc_logicEE4bindERNS_7sc_portINS_15sc_signal_in_ifIS2_EELi1ELNS_14sc_port_policyE0EEE
6063775c t .text$_ZN7sc_core5sc_inIN5sc_dt8sc_logicEE4bindERNS_7sc_portINS_18sc_signal_inout_ifIS2_EELi1ELNS_14sc_port_policyE0EEE
6063775c T __ZN7sc_core5sc_inIN5sc_dt8sc_logicEE4bindERNS_7sc_portINS_18sc_signal_inout_ifIS2_EELi1ELNS_14sc_port_policyE0EEE
60637768 t .text$_ZN7sc_core5sc_inIN5sc_dt8sc_logicEE4bindERNS_9sc_port_bINS_15sc_signal_in_ifIS2_EEEE
60637768 T __ZN7sc_core5sc_inIN5sc_dt8sc_logicEE4bindERNS_9sc_port_bINS_15sc_signal_in_ifIS2_EEEE
60637774 t .text$_ZN7sc_core5sc_inIN5sc_dt8sc_logicEED0Ev
60637774 T __ZN7sc_core5sc_inIN5sc_dt8sc_logicEED0Ev
60637830 t .text$_ZN7sc_core5sc_inIN5sc_dt8sc_logicEED1Ev
60637830 T __ZN7sc_core5sc_inIN5sc_dt8sc_logicEED1Ev
606378e4 t .text$_ZN7sc_core5sc_inIbE20mti_bind_sc_obj_nameEPc
606378e4 T __ZN7sc_core5sc_inIbE20mti_bind_sc_obj_nameEPc
60637a84 t .text$_ZN7sc_core5sc_inIbE28mti_initialize_boundary_portEv
60637a84 T __ZN7sc_core5sc_inIbE28mti_initialize_boundary_portEv
60637b64 t .text$_ZN7sc_core5sc_inIbE4bindERKNS_15sc_signal_in_ifIbEE
60637b64 T __ZN7sc_core5sc_inIbE4bindERKNS_15sc_signal_in_ifIbEE
60637b78 t .text$_ZN7sc_core5sc_inIbE4bindERNS_15sc_signal_in_ifIbEE
60637b78 T __ZN7sc_core5sc_inIbE4bindERNS_15sc_signal_in_ifIbEE
60637b8c t .text$_ZN7sc_core5sc_inIbE4bindERNS_7sc_portINS_15sc_signal_in_ifIbEELi1ELNS_14sc_port_policyE0EEE
60637b8c T __ZN7sc_core5sc_inIbE4bindERNS_7sc_portINS_15sc_signal_in_ifIbEELi1ELNS_14sc_port_policyE0EEE
60637b98 t .text$_ZN7sc_core5sc_inIbE4bindERNS_7sc_portINS_18sc_signal_inout_ifIbEELi1ELNS_14sc_port_policyE0EEE
60637b98 T __ZN7sc_core5sc_inIbE4bindERNS_7sc_portINS_18sc_signal_inout_ifIbEELi1ELNS_14sc_port_policyE0EEE
60637ba4 t .text$_ZN7sc_core5sc_inIbE4bindERNS_9sc_port_bINS_15sc_signal_in_ifIbEEEE
60637ba4 T __ZN7sc_core5sc_inIbE4bindERNS_9sc_port_bINS_15sc_signal_in_ifIbEEEE
60637bb0 t .text$_ZN7sc_core5sc_inIbEC1EPKc
60637bb0 T __ZN7sc_core5sc_inIbEC1EPKc
60637c5c t .text$_ZN7sc_core5sc_inIbEC1Ev
60637c5c T __ZN7sc_core5sc_inIbEC1Ev
60637d04 t .text$_ZN7sc_core5sc_inIbED0Ev
60637d04 T __ZN7sc_core5sc_inIbED0Ev
60637da8 t .text$_ZN7sc_core5sc_inIbED1Ev
60637da8 T __ZN7sc_core5sc_inIbED1Ev
60637e94 t .text$_ZN7sc_core5sc_inIbEclERKNS_15sc_signal_in_ifIbEE
60637e94 T __ZN7sc_core5sc_inIbEclERKNS_15sc_signal_in_ifIbEE
60637eb8 t .text$_ZN7sc_core5sc_inIbEclERNS_7sc_portINS_15sc_signal_in_ifIbEELi1ELNS_14sc_port_policyE0EEE
60637eb8 T __ZN7sc_core5sc_inIbEclERNS_7sc_portINS_15sc_signal_in_ifIbEELi1ELNS_14sc_port_policyE0EEE
60637edc t .text$_ZN7sc_core6sc_cor13stack_protectEb
60637edc T __ZN7sc_core6sc_cor13stack_protectEb
60637ee4 t .text$_ZN7sc_core6sc_cor36sc_mti_get_qthread_top_stack_pointerEv
60637ee4 T __ZN7sc_core6sc_cor36sc_mti_get_qthread_top_stack_pointerEv
60637eec t .text$_ZN7sc_core6sc_corD0Ev
60637eec T __ZN7sc_core6sc_corD0Ev
60637f00 t .text$_ZN7sc_core6sc_corD1Ev
60637f00 T __ZN7sc_core6sc_corD1Ev
60637f10 t .text$_ZN7sc_core6sc_outIN5sc_dt6sc_intILi16EEEEC1EPKc
60637f10 T __ZN7sc_core6sc_outIN5sc_dt6sc_intILi16EEEEC1EPKc
60637f34 t .text$_ZN7sc_core6sc_outIN5sc_dt6sc_intILi16EEEEC1Ev
60637f34 T __ZN7sc_core6sc_outIN5sc_dt6sc_intILi16EEEEC1Ev
60637f58 t .text$_ZN7sc_core6sc_outIN5sc_dt6sc_intILi16EEEED0Ev
60637f58 T __ZN7sc_core6sc_outIN5sc_dt6sc_intILi16EEEED0Ev
60637f90 t .text$_ZN7sc_core6sc_outIN5sc_dt6sc_intILi16EEEED1Ev
60637f90 T __ZN7sc_core6sc_outIN5sc_dt6sc_intILi16EEEED1Ev
60637fc8 t .text$_ZN7sc_core6sc_outIN5sc_dt7sc_uintILi4EEEEC1Ev
60637fc8 T __ZN7sc_core6sc_outIN5sc_dt7sc_uintILi4EEEEC1Ev
60637fec t .text$_ZN7sc_core6sc_outIN5sc_dt7sc_uintILi4EEEED0Ev
60637fec T __ZN7sc_core6sc_outIN5sc_dt7sc_uintILi4EEEED0Ev
60638024 t .text$_ZN7sc_core6sc_outIN5sc_dt7sc_uintILi4EEEED1Ev
60638024 T __ZN7sc_core6sc_outIN5sc_dt7sc_uintILi4EEEED1Ev
6063805c t .text$_ZN7sc_core7sc_portINS_15sc_signal_in_ifIN5sc_dt6sc_intILi16EEEEELi1ELNS_14sc_port_policyE0EEC2EPKc
6063805c T __ZN7sc_core7sc_portINS_15sc_signal_in_ifIN5sc_dt6sc_intILi16EEEEELi1ELNS_14sc_port_policyE0EEC2EPKc
60638084 t .text$_ZN7sc_core7sc_portINS_15sc_signal_in_ifIN5sc_dt6sc_intILi16EEEEELi1ELNS_14sc_port_policyE0EEC2Ev
60638084 T __ZN7sc_core7sc_portINS_15sc_signal_in_ifIN5sc_dt6sc_intILi16EEEEELi1ELNS_14sc_port_policyE0EEC2Ev
606380ac t .text$_ZN7sc_core7sc_portINS_15sc_signal_in_ifIN5sc_dt6sc_intILi16EEEEELi1ELNS_14sc_port_policyE0EED0Ev
606380ac T __ZN7sc_core7sc_portINS_15sc_signal_in_ifIN5sc_dt6sc_intILi16EEEEELi1ELNS_14sc_port_policyE0EED0Ev
606380e4 t .text$_ZN7sc_core7sc_portINS_15sc_signal_in_ifIN5sc_dt6sc_intILi16EEEEELi1ELNS_14sc_port_policyE0EED1Ev
606380e4 T __ZN7sc_core7sc_portINS_15sc_signal_in_ifIN5sc_dt6sc_intILi16EEEEELi1ELNS_14sc_port_policyE0EED1Ev
6063811c t .text$_ZN7sc_core7sc_portINS_15sc_signal_in_ifIN5sc_dt6sc_intILi16EEEEELi1ELNS_14sc_port_policyE0EED2Ev
6063811c T __ZN7sc_core7sc_portINS_15sc_signal_in_ifIN5sc_dt6sc_intILi16EEEEELi1ELNS_14sc_port_policyE0EED2Ev
60638154 t .text$_ZN7sc_core7sc_portINS_15sc_signal_in_ifIN5sc_dt7sc_uintILi4EEEEELi1ELNS_14sc_port_policyE0EEC2EPKc
60638154 T __ZN7sc_core7sc_portINS_15sc_signal_in_ifIN5sc_dt7sc_uintILi4EEEEELi1ELNS_14sc_port_policyE0EEC2EPKc
6063817c t .text$_ZN7sc_core7sc_portINS_15sc_signal_in_ifIN5sc_dt7sc_uintILi4EEEEELi1ELNS_14sc_port_policyE0EED0Ev
6063817c T __ZN7sc_core7sc_portINS_15sc_signal_in_ifIN5sc_dt7sc_uintILi4EEEEELi1ELNS_14sc_port_policyE0EED0Ev
606381b4 t .text$_ZN7sc_core7sc_portINS_15sc_signal_in_ifIN5sc_dt7sc_uintILi4EEEEELi1ELNS_14sc_port_policyE0EED1Ev
606381b4 T __ZN7sc_core7sc_portINS_15sc_signal_in_ifIN5sc_dt7sc_uintILi4EEEEELi1ELNS_14sc_port_policyE0EED1Ev
606381ec t .text$_ZN7sc_core7sc_portINS_15sc_signal_in_ifIN5sc_dt7sc_uintILi4EEEEELi1ELNS_14sc_port_policyE0EED2Ev
606381ec T __ZN7sc_core7sc_portINS_15sc_signal_in_ifIN5sc_dt7sc_uintILi4EEEEELi1ELNS_14sc_port_policyE0EED2Ev
60638224 t .text$_ZN7sc_core7sc_portINS_15sc_signal_in_ifIN5sc_dt8sc_logicEEELi1ELNS_14sc_port_policyE0EED0Ev
60638224 T __ZN7sc_core7sc_portINS_15sc_signal_in_ifIN5sc_dt8sc_logicEEELi1ELNS_14sc_port_policyE0EED0Ev
60638254 t .text$_ZN7sc_core7sc_portINS_15sc_signal_in_ifIN5sc_dt8sc_logicEEELi1ELNS_14sc_port_policyE0EED1Ev
60638254 T __ZN7sc_core7sc_portINS_15sc_signal_in_ifIN5sc_dt8sc_logicEEELi1ELNS_14sc_port_policyE0EED1Ev
6063827c t .text$_ZN7sc_core7sc_portINS_15sc_signal_in_ifIbEELi1ELNS_14sc_port_policyE0EEC2EPKc
6063827c T __ZN7sc_core7sc_portINS_15sc_signal_in_ifIbEELi1ELNS_14sc_port_policyE0EEC2EPKc
606382a4 t .text$_ZN7sc_core7sc_portINS_15sc_signal_in_ifIbEELi1ELNS_14sc_port_policyE0EEC2Ev
606382a4 T __ZN7sc_core7sc_portINS_15sc_signal_in_ifIbEELi1ELNS_14sc_port_policyE0EEC2Ev
606382cc t .text$_ZN7sc_core7sc_portINS_15sc_signal_in_ifIbEELi1ELNS_14sc_port_policyE0EED0Ev
606382cc T __ZN7sc_core7sc_portINS_15sc_signal_in_ifIbEELi1ELNS_14sc_port_policyE0EED0Ev
60638304 t .text$_ZN7sc_core7sc_portINS_15sc_signal_in_ifIbEELi1ELNS_14sc_port_policyE0EED1Ev
60638304 T __ZN7sc_core7sc_portINS_15sc_signal_in_ifIbEELi1ELNS_14sc_port_policyE0EED1Ev
6063833c t .text$_ZN7sc_core7sc_portINS_15sc_signal_in_ifIbEELi1ELNS_14sc_port_policyE0EED2Ev
6063833c T __ZN7sc_core7sc_portINS_15sc_signal_in_ifIbEELi1ELNS_14sc_port_policyE0EED2Ev
60638374 t .text$_ZN7sc_core7sc_portINS_18sc_signal_inout_ifIN5sc_dt6sc_intILi16EEEEELi1ELNS_14sc_port_policyE0EEC2EPKc
60638374 T __ZN7sc_core7sc_portINS_18sc_signal_inout_ifIN5sc_dt6sc_intILi16EEEEELi1ELNS_14sc_port_policyE0EEC2EPKc
6063839c t .text$_ZN7sc_core7sc_portINS_18sc_signal_inout_ifIN5sc_dt6sc_intILi16EEEEELi1ELNS_14sc_port_policyE0EEC2Ev
6063839c T __ZN7sc_core7sc_portINS_18sc_signal_inout_ifIN5sc_dt6sc_intILi16EEEEELi1ELNS_14sc_port_policyE0EEC2Ev
606383c4 t .text$_ZN7sc_core7sc_portINS_18sc_signal_inout_ifIN5sc_dt6sc_intILi16EEEEELi1ELNS_14sc_port_policyE0EED0Ev
606383c4 T __ZN7sc_core7sc_portINS_18sc_signal_inout_ifIN5sc_dt6sc_intILi16EEEEELi1ELNS_14sc_port_policyE0EED0Ev
606383fc t .text$_ZN7sc_core7sc_portINS_18sc_signal_inout_ifIN5sc_dt6sc_intILi16EEEEELi1ELNS_14sc_port_policyE0EED1Ev
606383fc T __ZN7sc_core7sc_portINS_18sc_signal_inout_ifIN5sc_dt6sc_intILi16EEEEELi1ELNS_14sc_port_policyE0EED1Ev
60638434 t .text$_ZN7sc_core7sc_portINS_18sc_signal_inout_ifIN5sc_dt6sc_intILi16EEEEELi1ELNS_14sc_port_policyE0EED2Ev
60638434 T __ZN7sc_core7sc_portINS_18sc_signal_inout_ifIN5sc_dt6sc_intILi16EEEEELi1ELNS_14sc_port_policyE0EED2Ev
6063846c t .text$_ZN7sc_core7sc_portINS_18sc_signal_inout_ifIN5sc_dt7sc_uintILi4EEEEELi1ELNS_14sc_port_policyE0EEC2Ev
6063846c T __ZN7sc_core7sc_portINS_18sc_signal_inout_ifIN5sc_dt7sc_uintILi4EEEEELi1ELNS_14sc_port_policyE0EEC2Ev
60638494 t .text$_ZN7sc_core7sc_portINS_18sc_signal_inout_ifIN5sc_dt7sc_uintILi4EEEEELi1ELNS_14sc_port_policyE0EED0Ev
60638494 T __ZN7sc_core7sc_portINS_18sc_signal_inout_ifIN5sc_dt7sc_uintILi4EEEEELi1ELNS_14sc_port_policyE0EED0Ev
606384cc t .text$_ZN7sc_core7sc_portINS_18sc_signal_inout_ifIN5sc_dt7sc_uintILi4EEEEELi1ELNS_14sc_port_policyE0EED1Ev
606384cc T __ZN7sc_core7sc_portINS_18sc_signal_inout_ifIN5sc_dt7sc_uintILi4EEEEELi1ELNS_14sc_port_policyE0EED1Ev
60638504 t .text$_ZN7sc_core7sc_portINS_18sc_signal_inout_ifIN5sc_dt7sc_uintILi4EEEEELi1ELNS_14sc_port_policyE0EED2Ev
60638504 T __ZN7sc_core7sc_portINS_18sc_signal_inout_ifIN5sc_dt7sc_uintILi4EEEEELi1ELNS_14sc_port_policyE0EED2Ev
6063853c t .text$_ZN7sc_core7sc_portINS_18sc_signal_inout_ifIN5sc_dt8sc_logicEEELi1ELNS_14sc_port_policyE0EED0Ev
6063853c T __ZN7sc_core7sc_portINS_18sc_signal_inout_ifIN5sc_dt8sc_logicEEELi1ELNS_14sc_port_policyE0EED0Ev
6063856c t .text$_ZN7sc_core7sc_portINS_18sc_signal_inout_ifIN5sc_dt8sc_logicEEELi1ELNS_14sc_port_policyE0EED1Ev
6063856c T __ZN7sc_core7sc_portINS_18sc_signal_inout_ifIN5sc_dt8sc_logicEEELi1ELNS_14sc_port_policyE0EED1Ev
60638594 t .text$_ZN7sc_core7sc_portINS_18sc_signal_inout_ifIbEELi1ELNS_14sc_port_policyE0EED0Ev
60638594 T __ZN7sc_core7sc_portINS_18sc_signal_inout_ifIbEELi1ELNS_14sc_port_policyE0EED0Ev
606385c4 t .text$_ZN7sc_core7sc_portINS_18sc_signal_inout_ifIbEELi1ELNS_14sc_port_policyE0EED1Ev
606385c4 T __ZN7sc_core7sc_portINS_18sc_signal_inout_ifIbEELi1ELNS_14sc_port_policyE0EED1Ev
606385ec t .text$_ZN7sc_core8sc_event17notify_next_deltaEv
606385ec T __ZN7sc_core8sc_event17notify_next_deltaEv
60638668 t .text$_ZN7sc_core8sc_eventC1EPNS_8sc_clockENS0_17mtiClockEdgeTypeTE
60638668 T __ZN7sc_core8sc_eventC1EPNS_8sc_clockENS0_17mtiClockEdgeTypeTE
60638818 t .text$_ZN7sc_core8sc_inoutIN5sc_dt6sc_intILi16EEEE18end_of_elaborationEv
60638818 T __ZN7sc_core8sc_inoutIN5sc_dt6sc_intILi16EEEE18end_of_elaborationEv
60638948 t .text$_ZN7sc_core8sc_inoutIN5sc_dt6sc_intILi16EEEE20mti_bind_sc_obj_nameEPc
60638948 T __ZN7sc_core8sc_inoutIN5sc_dt6sc_intILi16EEEE20mti_bind_sc_obj_nameEPc
60638ab0 t .text$_ZN7sc_core8sc_inoutIN5sc_dt6sc_intILi16EEEE28mti_initialize_boundary_portEv
60638ab0 T __ZN7sc_core8sc_inoutIN5sc_dt6sc_intILi16EEEE28mti_initialize_boundary_portEv
60638b90 t .text$_ZN7sc_core8sc_inoutIN5sc_dt6sc_intILi16EEEE5writeERKS3_
60638b90 T __ZN7sc_core8sc_inoutIN5sc_dt6sc_intILi16EEEE5writeERKS3_
60638bc0 t .text$_ZN7sc_core8sc_inoutIN5sc_dt6sc_intILi16EEEEC2EPKc
60638bc0 T __ZN7sc_core8sc_inoutIN5sc_dt6sc_intILi16EEEEC2EPKc
60638c60 t .text$_ZN7sc_core8sc_inoutIN5sc_dt6sc_intILi16EEEEC2Ev
60638c60 T __ZN7sc_core8sc_inoutIN5sc_dt6sc_intILi16EEEEC2Ev
60638cfc t .text$_ZN7sc_core8sc_inoutIN5sc_dt6sc_intILi16EEEED0Ev
60638cfc T __ZN7sc_core8sc_inoutIN5sc_dt6sc_intILi16EEEED0Ev
60638e10 t .text$_ZN7sc_core8sc_inoutIN5sc_dt6sc_intILi16EEEED1Ev
60638e10 T __ZN7sc_core8sc_inoutIN5sc_dt6sc_intILi16EEEED1Ev
60638f24 t .text$_ZN7sc_core8sc_inoutIN5sc_dt6sc_intILi16EEEED2Ev
60638f24 T __ZN7sc_core8sc_inoutIN5sc_dt6sc_intILi16EEEED2Ev
60639038 t .text$_ZN7sc_core8sc_inoutIN5sc_dt7sc_uintILi4EEEE18end_of_elaborationEv
60639038 T __ZN7sc_core8sc_inoutIN5sc_dt7sc_uintILi4EEEE18end_of_elaborationEv
60639168 t .text$_ZN7sc_core8sc_inoutIN5sc_dt7sc_uintILi4EEEE20mti_bind_sc_obj_nameEPc
60639168 T __ZN7sc_core8sc_inoutIN5sc_dt7sc_uintILi4EEEE20mti_bind_sc_obj_nameEPc
606392d0 t .text$_ZN7sc_core8sc_inoutIN5sc_dt7sc_uintILi4EEEE28mti_initialize_boundary_portEv
606392d0 T __ZN7sc_core8sc_inoutIN5sc_dt7sc_uintILi4EEEE28mti_initialize_boundary_portEv
606393b0 t .text$_ZN7sc_core8sc_inoutIN5sc_dt7sc_uintILi4EEEE5writeERKS3_
606393b0 T __ZN7sc_core8sc_inoutIN5sc_dt7sc_uintILi4EEEE5writeERKS3_
606393e0 t .text$_ZN7sc_core8sc_inoutIN5sc_dt7sc_uintILi4EEEEC2Ev
606393e0 T __ZN7sc_core8sc_inoutIN5sc_dt7sc_uintILi4EEEEC2Ev
6063947c t .text$_ZN7sc_core8sc_inoutIN5sc_dt7sc_uintILi4EEEED0Ev
6063947c T __ZN7sc_core8sc_inoutIN5sc_dt7sc_uintILi4EEEED0Ev
60639590 t .text$_ZN7sc_core8sc_inoutIN5sc_dt7sc_uintILi4EEEED1Ev
60639590 T __ZN7sc_core8sc_inoutIN5sc_dt7sc_uintILi4EEEED1Ev
606396a4 t .text$_ZN7sc_core8sc_inoutIN5sc_dt7sc_uintILi4EEEED2Ev
606396a4 T __ZN7sc_core8sc_inoutIN5sc_dt7sc_uintILi4EEEED2Ev
606397b8 t .text$_ZN7sc_core8sc_inoutIN5sc_dt8sc_logicEE20mti_bind_sc_obj_nameEPc
606397b8 T __ZN7sc_core8sc_inoutIN5sc_dt8sc_logicEE20mti_bind_sc_obj_nameEPc
60639958 t .text$_ZN7sc_core8sc_inoutIN5sc_dt8sc_logicEED0Ev
60639958 T __ZN7sc_core8sc_inoutIN5sc_dt8sc_logicEED0Ev
60639a28 t .text$_ZN7sc_core8sc_inoutIN5sc_dt8sc_logicEED1Ev
60639a28 T __ZN7sc_core8sc_inoutIN5sc_dt8sc_logicEED1Ev
60639af0 t .text$_ZN7sc_core8sc_inoutIbE20mti_bind_sc_obj_nameEPc
60639af0 T __ZN7sc_core8sc_inoutIbE20mti_bind_sc_obj_nameEPc
60639c90 t .text$_ZN7sc_core8sc_inoutIbED0Ev
60639c90 T __ZN7sc_core8sc_inoutIbED0Ev
60639d60 t .text$_ZN7sc_core8sc_inoutIbED1Ev
60639d60 T __ZN7sc_core8sc_inoutIbED1Ev
60639e28 t .text$_ZN7sc_core8sc_startEiNS_12sc_time_unitENS_20sc_starvation_policyE
60639e28 T __ZN7sc_core8sc_startEiNS_12sc_time_unitENS_20sc_starvation_policyE
60639e5c t .text$_ZN7sc_core8sc_traceEPNS_13sc_trace_fileERKbRKSs
60639e5c T __ZN7sc_core8sc_traceEPNS_13sc_trace_fileERKbRKSs
60639e84 t .text$_ZN7sc_core8sc_traceIN5sc_dt6sc_intILi16EEEEEvPNS_13sc_trace_fileERKNS_15sc_signal_in_ifIT_EEPKc
60639e84 T __ZN7sc_core8sc_traceIN5sc_dt6sc_intILi16EEEEEvPNS_13sc_trace_fileERKNS_15sc_signal_in_ifIT_EEPKc
60639f40 t .text$_ZN7sc_core8sc_traceIN5sc_dt7sc_uintILi4EEEEEvPNS_13sc_trace_fileERKNS_15sc_signal_in_ifIT_EEPKc
60639f40 T __ZN7sc_core8sc_traceIN5sc_dt7sc_uintILi4EEEEEvPNS_13sc_trace_fileERKNS_15sc_signal_in_ifIT_EEPKc
60639ffc t .text$_ZN7sc_core8sc_traceIbEEvPNS_13sc_trace_fileERKNS_15sc_signal_in_ifIT_EEPKc
60639ffc T __ZN7sc_core8sc_traceIbEEvPNS_13sc_trace_fileERKNS_15sc_signal_in_ifIT_EEPKc
6063a0b8 t .text$_ZN7sc_core9sc_cor_qt36sc_mti_get_qthread_top_stack_pointerEv
6063a0b8 T __ZN7sc_core9sc_cor_qt36sc_mti_get_qthread_top_stack_pointerEv
6063a0c4 t .text$_ZN7sc_core9sc_cor_qtD0Ev
6063a0c4 T __ZN7sc_core9sc_cor_qtD0Ev
6063a0fc t .text$_ZN7sc_core9sc_cor_qtD1Ev
6063a0fc T __ZN7sc_core9sc_cor_qtD1Ev
6063a12c t .text$_ZN7sc_core9sc_module13mti_is_regionEv
6063a12c T __ZN7sc_core9sc_module13mti_is_regionEv
6063a138 t .text$_ZN7sc_core9sc_module4waitEv
6063a138 T __ZN7sc_core9sc_module4waitEv
6063a158 t .text$_ZN7sc_core9sc_object13mti_is_regionEv
6063a158 T __ZN7sc_core9sc_object13mti_is_regionEv
6063a164 t .text$_ZN7sc_core9sc_object23mti_is_use_default_nameEv
6063a164 T __ZN7sc_core9sc_object23mti_is_use_default_nameEv
6063a174 t .text$_ZN7sc_core9sc_object24mti_set_use_default_nameEb
6063a174 T __ZN7sc_core9sc_object24mti_set_use_default_nameEb
6063a18c t .text$_ZN7sc_core9sc_port_bINS_15sc_signal_in_ifIN5sc_dt6sc_intILi16EEEEEE13add_interfaceEPNS_12sc_interfaceE
6063a18c T __ZN7sc_core9sc_port_bINS_15sc_signal_in_ifIN5sc_dt6sc_intILi16EEEEEE13add_interfaceEPNS_12sc_interfaceE
6063a270 t .text$_ZN7sc_core9sc_port_bINS_15sc_signal_in_ifIN5sc_dt6sc_intILi16EEEEEE13get_interfaceEv
6063a270 T __ZN7sc_core9sc_port_bINS_15sc_signal_in_ifIN5sc_dt6sc_intILi16EEEEEE13get_interfaceEv
6063a2a8 t .text$_ZN7sc_core9sc_port_bINS_15sc_signal_in_ifIN5sc_dt6sc_intILi16EEEEEE15interface_countEv
6063a2a8 T __ZN7sc_core9sc_port_bINS_15sc_signal_in_ifIN5sc_dt6sc_intILi16EEEEEE15interface_countEv
6063a2bc t .text$_ZN7sc_core9sc_port_bINS_15sc_signal_in_ifIN5sc_dt6sc_intILi16EEEEEE4bindERS5_
6063a2bc T __ZN7sc_core9sc_port_bINS_15sc_signal_in_ifIN5sc_dt6sc_intILi16EEEEEE4bindERS5_
6063a2e4 t .text$_ZN7sc_core9sc_port_bINS_15sc_signal_in_ifIN5sc_dt6sc_intILi16EEEEEE4bindERS6_
6063a2e4 T __ZN7sc_core9sc_port_bINS_15sc_signal_in_ifIN5sc_dt6sc_intILi16EEEEEE4bindERS6_
6063a300 t .text$_ZN7sc_core9sc_port_bINS_15sc_signal_in_ifIN5sc_dt6sc_intILi16EEEEEE5vbindERNS_12sc_interfaceE
6063a300 T __ZN7sc_core9sc_port_bINS_15sc_signal_in_ifIN5sc_dt6sc_intILi16EEEEEE5vbindERNS_12sc_interfaceE
6063a370 t .text$_ZN7sc_core9sc_port_bINS_15sc_signal_in_ifIN5sc_dt6sc_intILi16EEEEEE5vbindERNS_12sc_port_baseE
6063a370 T __ZN7sc_core9sc_port_bINS_15sc_signal_in_ifIN5sc_dt6sc_intILi16EEEEEE5vbindERNS_12sc_port_baseE
6063a3d4 t .text$_ZN7sc_core9sc_port_bINS_15sc_signal_in_ifIN5sc_dt6sc_intILi16EEEEEEC2EPKciNS_14sc_port_policyE
6063a3d4 T __ZN7sc_core9sc_port_bINS_15sc_signal_in_ifIN5sc_dt6sc_intILi16EEEEEEC2EPKciNS_14sc_port_policyE
6063a414 t .text$_ZN7sc_core9sc_port_bINS_15sc_signal_in_ifIN5sc_dt6sc_intILi16EEEEEEC2EiNS_14sc_port_policyE
6063a414 T __ZN7sc_core9sc_port_bINS_15sc_signal_in_ifIN5sc_dt6sc_intILi16EEEEEEC2EiNS_14sc_port_policyE
6063a454 t .text$_ZN7sc_core9sc_port_bINS_15sc_signal_in_ifIN5sc_dt6sc_intILi16EEEEEED0Ev
6063a454 T __ZN7sc_core9sc_port_bINS_15sc_signal_in_ifIN5sc_dt6sc_intILi16EEEEEED0Ev
6063a4a0 t .text$_ZN7sc_core9sc_port_bINS_15sc_signal_in_ifIN5sc_dt6sc_intILi16EEEEEED1Ev
6063a4a0 T __ZN7sc_core9sc_port_bINS_15sc_signal_in_ifIN5sc_dt6sc_intILi16EEEEEED1Ev
6063a4ec t .text$_ZN7sc_core9sc_port_bINS_15sc_signal_in_ifIN5sc_dt6sc_intILi16EEEEEED2Ev
6063a4ec T __ZN7sc_core9sc_port_bINS_15sc_signal_in_ifIN5sc_dt6sc_intILi16EEEEEED2Ev
6063a538 t .text$_ZN7sc_core9sc_port_bINS_15sc_signal_in_ifIN5sc_dt7sc_uintILi4EEEEEE13add_interfaceEPNS_12sc_interfaceE
6063a538 T __ZN7sc_core9sc_port_bINS_15sc_signal_in_ifIN5sc_dt7sc_uintILi4EEEEEE13add_interfaceEPNS_12sc_interfaceE
6063a61c t .text$_ZN7sc_core9sc_port_bINS_15sc_signal_in_ifIN5sc_dt7sc_uintILi4EEEEEE13get_interfaceEv
6063a61c T __ZN7sc_core9sc_port_bINS_15sc_signal_in_ifIN5sc_dt7sc_uintILi4EEEEEE13get_interfaceEv
6063a654 t .text$_ZN7sc_core9sc_port_bINS_15sc_signal_in_ifIN5sc_dt7sc_uintILi4EEEEEE15interface_countEv
6063a654 T __ZN7sc_core9sc_port_bINS_15sc_signal_in_ifIN5sc_dt7sc_uintILi4EEEEEE15interface_countEv
6063a668 t .text$_ZN7sc_core9sc_port_bINS_15sc_signal_in_ifIN5sc_dt7sc_uintILi4EEEEEE4bindERS5_
6063a668 T __ZN7sc_core9sc_port_bINS_15sc_signal_in_ifIN5sc_dt7sc_uintILi4EEEEEE4bindERS5_
6063a690 t .text$_ZN7sc_core9sc_port_bINS_15sc_signal_in_ifIN5sc_dt7sc_uintILi4EEEEEE4bindERS6_
6063a690 T __ZN7sc_core9sc_port_bINS_15sc_signal_in_ifIN5sc_dt7sc_uintILi4EEEEEE4bindERS6_
6063a6ac t .text$_ZN7sc_core9sc_port_bINS_15sc_signal_in_ifIN5sc_dt7sc_uintILi4EEEEEE5vbindERNS_12sc_interfaceE
6063a6ac T __ZN7sc_core9sc_port_bINS_15sc_signal_in_ifIN5sc_dt7sc_uintILi4EEEEEE5vbindERNS_12sc_interfaceE
6063a71c t .text$_ZN7sc_core9sc_port_bINS_15sc_signal_in_ifIN5sc_dt7sc_uintILi4EEEEEE5vbindERNS_12sc_port_baseE
6063a71c T __ZN7sc_core9sc_port_bINS_15sc_signal_in_ifIN5sc_dt7sc_uintILi4EEEEEE5vbindERNS_12sc_port_baseE
6063a780 t .text$_ZN7sc_core9sc_port_bINS_15sc_signal_in_ifIN5sc_dt7sc_uintILi4EEEEEEC2EPKciNS_14sc_port_policyE
6063a780 T __ZN7sc_core9sc_port_bINS_15sc_signal_in_ifIN5sc_dt7sc_uintILi4EEEEEEC2EPKciNS_14sc_port_policyE
6063a7c0 t .text$_ZN7sc_core9sc_port_bINS_15sc_signal_in_ifIN5sc_dt7sc_uintILi4EEEEEED0Ev
6063a7c0 T __ZN7sc_core9sc_port_bINS_15sc_signal_in_ifIN5sc_dt7sc_uintILi4EEEEEED0Ev
6063a80c t .text$_ZN7sc_core9sc_port_bINS_15sc_signal_in_ifIN5sc_dt7sc_uintILi4EEEEEED1Ev
6063a80c T __ZN7sc_core9sc_port_bINS_15sc_signal_in_ifIN5sc_dt7sc_uintILi4EEEEEED1Ev
6063a858 t .text$_ZN7sc_core9sc_port_bINS_15sc_signal_in_ifIN5sc_dt7sc_uintILi4EEEEEED2Ev
6063a858 T __ZN7sc_core9sc_port_bINS_15sc_signal_in_ifIN5sc_dt7sc_uintILi4EEEEEED2Ev
6063a8a4 t .text$_ZN7sc_core9sc_port_bINS_15sc_signal_in_ifIN5sc_dt8sc_logicEEEE13add_interfaceEPNS_12sc_interfaceE
6063a8a4 T __ZN7sc_core9sc_port_bINS_15sc_signal_in_ifIN5sc_dt8sc_logicEEEE13add_interfaceEPNS_12sc_interfaceE
6063a950 t .text$_ZN7sc_core9sc_port_bINS_15sc_signal_in_ifIN5sc_dt8sc_logicEEEE13get_interfaceEv
6063a950 T __ZN7sc_core9sc_port_bINS_15sc_signal_in_ifIN5sc_dt8sc_logicEEEE13get_interfaceEv
6063a96c t .text$_ZN7sc_core9sc_port_bINS_15sc_signal_in_ifIN5sc_dt8sc_logicEEEE15interface_countEv
6063a96c T __ZN7sc_core9sc_port_bINS_15sc_signal_in_ifIN5sc_dt8sc_logicEEEE15interface_countEv
6063a978 t .text$_ZN7sc_core9sc_port_bINS_15sc_signal_in_ifIN5sc_dt8sc_logicEEEE4bindERS4_
6063a978 T __ZN7sc_core9sc_port_bINS_15sc_signal_in_ifIN5sc_dt8sc_logicEEEE4bindERS4_
6063a98c t .text$_ZN7sc_core9sc_port_bINS_15sc_signal_in_ifIN5sc_dt8sc_logicEEEE4bindERS5_
6063a98c T __ZN7sc_core9sc_port_bINS_15sc_signal_in_ifIN5sc_dt8sc_logicEEEE4bindERS5_
6063a998 t .text$_ZN7sc_core9sc_port_bINS_15sc_signal_in_ifIN5sc_dt8sc_logicEEEE5vbindERNS_12sc_interfaceE
6063a998 T __ZN7sc_core9sc_port_bINS_15sc_signal_in_ifIN5sc_dt8sc_logicEEEE5vbindERNS_12sc_interfaceE
6063a9e0 t .text$_ZN7sc_core9sc_port_bINS_15sc_signal_in_ifIN5sc_dt8sc_logicEEEE5vbindERNS_12sc_port_baseE
6063a9e0 T __ZN7sc_core9sc_port_bINS_15sc_signal_in_ifIN5sc_dt8sc_logicEEEE5vbindERNS_12sc_port_baseE
6063aa24 t .text$_ZN7sc_core9sc_port_bINS_15sc_signal_in_ifIN5sc_dt8sc_logicEEEED0Ev
6063aa24 T __ZN7sc_core9sc_port_bINS_15sc_signal_in_ifIN5sc_dt8sc_logicEEEED0Ev
6063aa54 t .text$_ZN7sc_core9sc_port_bINS_15sc_signal_in_ifIN5sc_dt8sc_logicEEEED1Ev
6063aa54 T __ZN7sc_core9sc_port_bINS_15sc_signal_in_ifIN5sc_dt8sc_logicEEEED1Ev
6063aa7c t .text$_ZN7sc_core9sc_port_bINS_15sc_signal_in_ifIbEEE13add_interfaceEPNS_12sc_interfaceE
6063aa7c T __ZN7sc_core9sc_port_bINS_15sc_signal_in_ifIbEEE13add_interfaceEPNS_12sc_interfaceE
6063ab60 t .text$_ZN7sc_core9sc_port_bINS_15sc_signal_in_ifIbEEE13get_interfaceEv
6063ab60 T __ZN7sc_core9sc_port_bINS_15sc_signal_in_ifIbEEE13get_interfaceEv
6063ab98 t .text$_ZN7sc_core9sc_port_bINS_15sc_signal_in_ifIbEEE15interface_countEv
6063ab98 T __ZN7sc_core9sc_port_bINS_15sc_signal_in_ifIbEEE15interface_countEv
6063abac t .text$_ZN7sc_core9sc_port_bINS_15sc_signal_in_ifIbEEE4bindERS2_
6063abac T __ZN7sc_core9sc_port_bINS_15sc_signal_in_ifIbEEE4bindERS2_
6063abd4 t .text$_ZN7sc_core9sc_port_bINS_15sc_signal_in_ifIbEEE4bindERS3_
6063abd4 T __ZN7sc_core9sc_port_bINS_15sc_signal_in_ifIbEEE4bindERS3_
6063abf0 t .text$_ZN7sc_core9sc_port_bINS_15sc_signal_in_ifIbEEE5vbindERNS_12sc_interfaceE
6063abf0 T __ZN7sc_core9sc_port_bINS_15sc_signal_in_ifIbEEE5vbindERNS_12sc_interfaceE
6063ac60 t .text$_ZN7sc_core9sc_port_bINS_15sc_signal_in_ifIbEEE5vbindERNS_12sc_port_baseE
6063ac60 T __ZN7sc_core9sc_port_bINS_15sc_signal_in_ifIbEEE5vbindERNS_12sc_port_baseE
6063acc4 t .text$_ZN7sc_core9sc_port_bINS_15sc_signal_in_ifIbEEEC2EPKciNS_14sc_port_policyE
6063acc4 T __ZN7sc_core9sc_port_bINS_15sc_signal_in_ifIbEEEC2EPKciNS_14sc_port_policyE
6063ad04 t .text$_ZN7sc_core9sc_port_bINS_15sc_signal_in_ifIbEEEC2EiNS_14sc_port_policyE
6063ad04 T __ZN7sc_core9sc_port_bINS_15sc_signal_in_ifIbEEEC2EiNS_14sc_port_policyE
6063ad44 t .text$_ZN7sc_core9sc_port_bINS_15sc_signal_in_ifIbEEED0Ev
6063ad44 T __ZN7sc_core9sc_port_bINS_15sc_signal_in_ifIbEEED0Ev
6063ad90 t .text$_ZN7sc_core9sc_port_bINS_15sc_signal_in_ifIbEEED1Ev
6063ad90 T __ZN7sc_core9sc_port_bINS_15sc_signal_in_ifIbEEED1Ev
6063addc t .text$_ZN7sc_core9sc_port_bINS_15sc_signal_in_ifIbEEED2Ev
6063addc T __ZN7sc_core9sc_port_bINS_15sc_signal_in_ifIbEEED2Ev
6063ae28 t .text$_ZN7sc_core9sc_port_bINS_18sc_signal_inout_ifIN5sc_dt6sc_intILi16EEEEEE13add_interfaceEPNS_12sc_interfaceE
6063ae28 T __ZN7sc_core9sc_port_bINS_18sc_signal_inout_ifIN5sc_dt6sc_intILi16EEEEEE13add_interfaceEPNS_12sc_interfaceE
6063af0c t .text$_ZN7sc_core9sc_port_bINS_18sc_signal_inout_ifIN5sc_dt6sc_intILi16EEEEEE13get_interfaceEv
6063af0c T __ZN7sc_core9sc_port_bINS_18sc_signal_inout_ifIN5sc_dt6sc_intILi16EEEEEE13get_interfaceEv
6063af44 t .text$_ZN7sc_core9sc_port_bINS_18sc_signal_inout_ifIN5sc_dt6sc_intILi16EEEEEE15interface_countEv
6063af44 T __ZN7sc_core9sc_port_bINS_18sc_signal_inout_ifIN5sc_dt6sc_intILi16EEEEEE15interface_countEv
6063af58 t .text$_ZN7sc_core9sc_port_bINS_18sc_signal_inout_ifIN5sc_dt6sc_intILi16EEEEEE4bindERS5_
6063af58 T __ZN7sc_core9sc_port_bINS_18sc_signal_inout_ifIN5sc_dt6sc_intILi16EEEEEE4bindERS5_
6063af80 t .text$_ZN7sc_core9sc_port_bINS_18sc_signal_inout_ifIN5sc_dt6sc_intILi16EEEEEE4bindERS6_
6063af80 T __ZN7sc_core9sc_port_bINS_18sc_signal_inout_ifIN5sc_dt6sc_intILi16EEEEEE4bindERS6_
6063af9c t .text$_ZN7sc_core9sc_port_bINS_18sc_signal_inout_ifIN5sc_dt6sc_intILi16EEEEEE5vbindERNS_12sc_interfaceE
6063af9c T __ZN7sc_core9sc_port_bINS_18sc_signal_inout_ifIN5sc_dt6sc_intILi16EEEEEE5vbindERNS_12sc_interfaceE
6063b00c t .text$_ZN7sc_core9sc_port_bINS_18sc_signal_inout_ifIN5sc_dt6sc_intILi16EEEEEE5vbindERNS_12sc_port_baseE
6063b00c T __ZN7sc_core9sc_port_bINS_18sc_signal_inout_ifIN5sc_dt6sc_intILi16EEEEEE5vbindERNS_12sc_port_baseE
6063b070 t .text$_ZN7sc_core9sc_port_bINS_18sc_signal_inout_ifIN5sc_dt6sc_intILi16EEEEEEC2EPKciNS_14sc_port_policyE
6063b070 T __ZN7sc_core9sc_port_bINS_18sc_signal_inout_ifIN5sc_dt6sc_intILi16EEEEEEC2EPKciNS_14sc_port_policyE
6063b0b0 t .text$_ZN7sc_core9sc_port_bINS_18sc_signal_inout_ifIN5sc_dt6sc_intILi16EEEEEEC2EiNS_14sc_port_policyE
6063b0b0 T __ZN7sc_core9sc_port_bINS_18sc_signal_inout_ifIN5sc_dt6sc_intILi16EEEEEEC2EiNS_14sc_port_policyE
6063b0f0 t .text$_ZN7sc_core9sc_port_bINS_18sc_signal_inout_ifIN5sc_dt6sc_intILi16EEEEEED0Ev
6063b0f0 T __ZN7sc_core9sc_port_bINS_18sc_signal_inout_ifIN5sc_dt6sc_intILi16EEEEEED0Ev
6063b13c t .text$_ZN7sc_core9sc_port_bINS_18sc_signal_inout_ifIN5sc_dt6sc_intILi16EEEEEED1Ev
6063b13c T __ZN7sc_core9sc_port_bINS_18sc_signal_inout_ifIN5sc_dt6sc_intILi16EEEEEED1Ev
6063b188 t .text$_ZN7sc_core9sc_port_bINS_18sc_signal_inout_ifIN5sc_dt6sc_intILi16EEEEEED2Ev
6063b188 T __ZN7sc_core9sc_port_bINS_18sc_signal_inout_ifIN5sc_dt6sc_intILi16EEEEEED2Ev
6063b1d4 t .text$_ZN7sc_core9sc_port_bINS_18sc_signal_inout_ifIN5sc_dt6sc_intILi16EEEEEEclERS5_
6063b1d4 T __ZN7sc_core9sc_port_bINS_18sc_signal_inout_ifIN5sc_dt6sc_intILi16EEEEEEclERS5_
6063b1f4 t .text$_ZN7sc_core9sc_port_bINS_18sc_signal_inout_ifIN5sc_dt6sc_intILi16EEEEEEclERS6_
6063b1f4 T __ZN7sc_core9sc_port_bINS_18sc_signal_inout_ifIN5sc_dt6sc_intILi16EEEEEEclERS6_
6063b218 t .text$_ZN7sc_core9sc_port_bINS_18sc_signal_inout_ifIN5sc_dt6sc_intILi16EEEEEEptEv
6063b218 T __ZN7sc_core9sc_port_bINS_18sc_signal_inout_ifIN5sc_dt6sc_intILi16EEEEEEptEv
6063b24c t .text$_ZN7sc_core9sc_port_bINS_18sc_signal_inout_ifIN5sc_dt7sc_uintILi4EEEEEE13add_interfaceEPNS_12sc_interfaceE
6063b24c T __ZN7sc_core9sc_port_bINS_18sc_signal_inout_ifIN5sc_dt7sc_uintILi4EEEEEE13add_interfaceEPNS_12sc_interfaceE
6063b330 t .text$_ZN7sc_core9sc_port_bINS_18sc_signal_inout_ifIN5sc_dt7sc_uintILi4EEEEEE13get_interfaceEv
6063b330 T __ZN7sc_core9sc_port_bINS_18sc_signal_inout_ifIN5sc_dt7sc_uintILi4EEEEEE13get_interfaceEv
6063b368 t .text$_ZN7sc_core9sc_port_bINS_18sc_signal_inout_ifIN5sc_dt7sc_uintILi4EEEEEE15interface_countEv
6063b368 T __ZN7sc_core9sc_port_bINS_18sc_signal_inout_ifIN5sc_dt7sc_uintILi4EEEEEE15interface_countEv
6063b37c t .text$_ZN7sc_core9sc_port_bINS_18sc_signal_inout_ifIN5sc_dt7sc_uintILi4EEEEEE4bindERS5_
6063b37c T __ZN7sc_core9sc_port_bINS_18sc_signal_inout_ifIN5sc_dt7sc_uintILi4EEEEEE4bindERS5_
6063b3a4 t .text$_ZN7sc_core9sc_port_bINS_18sc_signal_inout_ifIN5sc_dt7sc_uintILi4EEEEEE4bindERS6_
6063b3a4 T __ZN7sc_core9sc_port_bINS_18sc_signal_inout_ifIN5sc_dt7sc_uintILi4EEEEEE4bindERS6_
6063b3c0 t .text$_ZN7sc_core9sc_port_bINS_18sc_signal_inout_ifIN5sc_dt7sc_uintILi4EEEEEE5vbindERNS_12sc_interfaceE
6063b3c0 T __ZN7sc_core9sc_port_bINS_18sc_signal_inout_ifIN5sc_dt7sc_uintILi4EEEEEE5vbindERNS_12sc_interfaceE
6063b430 t .text$_ZN7sc_core9sc_port_bINS_18sc_signal_inout_ifIN5sc_dt7sc_uintILi4EEEEEE5vbindERNS_12sc_port_baseE
6063b430 T __ZN7sc_core9sc_port_bINS_18sc_signal_inout_ifIN5sc_dt7sc_uintILi4EEEEEE5vbindERNS_12sc_port_baseE
6063b494 t .text$_ZN7sc_core9sc_port_bINS_18sc_signal_inout_ifIN5sc_dt7sc_uintILi4EEEEEEC2EiNS_14sc_port_policyE
6063b494 T __ZN7sc_core9sc_port_bINS_18sc_signal_inout_ifIN5sc_dt7sc_uintILi4EEEEEEC2EiNS_14sc_port_policyE
6063b4d4 t .text$_ZN7sc_core9sc_port_bINS_18sc_signal_inout_ifIN5sc_dt7sc_uintILi4EEEEEED0Ev
6063b4d4 T __ZN7sc_core9sc_port_bINS_18sc_signal_inout_ifIN5sc_dt7sc_uintILi4EEEEEED0Ev
6063b520 t .text$_ZN7sc_core9sc_port_bINS_18sc_signal_inout_ifIN5sc_dt7sc_uintILi4EEEEEED1Ev
6063b520 T __ZN7sc_core9sc_port_bINS_18sc_signal_inout_ifIN5sc_dt7sc_uintILi4EEEEEED1Ev
6063b56c t .text$_ZN7sc_core9sc_port_bINS_18sc_signal_inout_ifIN5sc_dt7sc_uintILi4EEEEEED2Ev
6063b56c T __ZN7sc_core9sc_port_bINS_18sc_signal_inout_ifIN5sc_dt7sc_uintILi4EEEEEED2Ev
6063b5b8 t .text$_ZN7sc_core9sc_port_bINS_18sc_signal_inout_ifIN5sc_dt7sc_uintILi4EEEEEEclERS5_
6063b5b8 T __ZN7sc_core9sc_port_bINS_18sc_signal_inout_ifIN5sc_dt7sc_uintILi4EEEEEEclERS5_
6063b5d8 t .text$_ZN7sc_core9sc_port_bINS_18sc_signal_inout_ifIN5sc_dt7sc_uintILi4EEEEEEptEv
6063b5d8 T __ZN7sc_core9sc_port_bINS_18sc_signal_inout_ifIN5sc_dt7sc_uintILi4EEEEEEptEv
6063b60c t .text$_ZN7sc_core9sc_port_bINS_18sc_signal_inout_ifIN5sc_dt8sc_logicEEEE13add_interfaceEPNS_12sc_interfaceE
6063b60c T __ZN7sc_core9sc_port_bINS_18sc_signal_inout_ifIN5sc_dt8sc_logicEEEE13add_interfaceEPNS_12sc_interfaceE
6063b6b8 t .text$_ZN7sc_core9sc_port_bINS_18sc_signal_inout_ifIN5sc_dt8sc_logicEEEE13get_interfaceEv
6063b6b8 T __ZN7sc_core9sc_port_bINS_18sc_signal_inout_ifIN5sc_dt8sc_logicEEEE13get_interfaceEv
6063b6d4 t .text$_ZN7sc_core9sc_port_bINS_18sc_signal_inout_ifIN5sc_dt8sc_logicEEEE15interface_countEv
6063b6d4 T __ZN7sc_core9sc_port_bINS_18sc_signal_inout_ifIN5sc_dt8sc_logicEEEE15interface_countEv
6063b6e0 t .text$_ZN7sc_core9sc_port_bINS_18sc_signal_inout_ifIN5sc_dt8sc_logicEEEE4bindERS4_
6063b6e0 T __ZN7sc_core9sc_port_bINS_18sc_signal_inout_ifIN5sc_dt8sc_logicEEEE4bindERS4_
6063b6f4 t .text$_ZN7sc_core9sc_port_bINS_18sc_signal_inout_ifIN5sc_dt8sc_logicEEEE4bindERS5_
6063b6f4 T __ZN7sc_core9sc_port_bINS_18sc_signal_inout_ifIN5sc_dt8sc_logicEEEE4bindERS5_
6063b700 t .text$_ZN7sc_core9sc_port_bINS_18sc_signal_inout_ifIN5sc_dt8sc_logicEEEE5vbindERNS_12sc_interfaceE
6063b700 T __ZN7sc_core9sc_port_bINS_18sc_signal_inout_ifIN5sc_dt8sc_logicEEEE5vbindERNS_12sc_interfaceE
6063b748 t .text$_ZN7sc_core9sc_port_bINS_18sc_signal_inout_ifIN5sc_dt8sc_logicEEEE5vbindERNS_12sc_port_baseE
6063b748 T __ZN7sc_core9sc_port_bINS_18sc_signal_inout_ifIN5sc_dt8sc_logicEEEE5vbindERNS_12sc_port_baseE
6063b78c t .text$_ZN7sc_core9sc_port_bINS_18sc_signal_inout_ifIN5sc_dt8sc_logicEEEED0Ev
6063b78c T __ZN7sc_core9sc_port_bINS_18sc_signal_inout_ifIN5sc_dt8sc_logicEEEED0Ev
6063b7bc t .text$_ZN7sc_core9sc_port_bINS_18sc_signal_inout_ifIN5sc_dt8sc_logicEEEED1Ev
6063b7bc T __ZN7sc_core9sc_port_bINS_18sc_signal_inout_ifIN5sc_dt8sc_logicEEEED1Ev
6063b7e4 t .text$_ZN7sc_core9sc_port_bINS_18sc_signal_inout_ifIbEEE13add_interfaceEPNS_12sc_interfaceE
6063b7e4 T __ZN7sc_core9sc_port_bINS_18sc_signal_inout_ifIbEEE13add_interfaceEPNS_12sc_interfaceE
6063b890 t .text$_ZN7sc_core9sc_port_bINS_18sc_signal_inout_ifIbEEE13get_interfaceEv
6063b890 T __ZN7sc_core9sc_port_bINS_18sc_signal_inout_ifIbEEE13get_interfaceEv
6063b8ac t .text$_ZN7sc_core9sc_port_bINS_18sc_signal_inout_ifIbEEE15interface_countEv
6063b8ac T __ZN7sc_core9sc_port_bINS_18sc_signal_inout_ifIbEEE15interface_countEv
6063b8b8 t .text$_ZN7sc_core9sc_port_bINS_18sc_signal_inout_ifIbEEE4bindERS2_
6063b8b8 T __ZN7sc_core9sc_port_bINS_18sc_signal_inout_ifIbEEE4bindERS2_
6063b8cc t .text$_ZN7sc_core9sc_port_bINS_18sc_signal_inout_ifIbEEE4bindERS3_
6063b8cc T __ZN7sc_core9sc_port_bINS_18sc_signal_inout_ifIbEEE4bindERS3_
6063b8d8 t .text$_ZN7sc_core9sc_port_bINS_18sc_signal_inout_ifIbEEE5vbindERNS_12sc_interfaceE
6063b8d8 T __ZN7sc_core9sc_port_bINS_18sc_signal_inout_ifIbEEE5vbindERNS_12sc_interfaceE
6063b920 t .text$_ZN7sc_core9sc_port_bINS_18sc_signal_inout_ifIbEEE5vbindERNS_12sc_port_baseE
6063b920 T __ZN7sc_core9sc_port_bINS_18sc_signal_inout_ifIbEEE5vbindERNS_12sc_port_baseE
6063b964 t .text$_ZN7sc_core9sc_port_bINS_18sc_signal_inout_ifIbEEED0Ev
6063b964 T __ZN7sc_core9sc_port_bINS_18sc_signal_inout_ifIbEEED0Ev
6063b994 t .text$_ZN7sc_core9sc_port_bINS_18sc_signal_inout_ifIbEEED1Ev
6063b994 T __ZN7sc_core9sc_port_bINS_18sc_signal_inout_ifIbEEED1Ev
6063b9bc t .text$_ZN7sc_core9sc_signalIN5sc_dt6sc_intILi16EEELNS_16sc_writer_policyE0EE13register_portERNS_12sc_port_baseEPKc
6063b9bc T __ZN7sc_core9sc_signalIN5sc_dt6sc_intILi16EEELNS_16sc_writer_policyE0EE13register_portERNS_12sc_port_baseEPKc
6063ba90 t .text$_ZN7sc_core9sc_signalIN5sc_dt6sc_intILi16EEELNS_16sc_writer_policyE0EE18mti_get_channel_idEPNS_9sc_objectE
6063ba90 T __ZN7sc_core9sc_signalIN5sc_dt6sc_intILi16EEELNS_16sc_writer_policyE0EE18mti_get_channel_idEPNS_9sc_objectE
6063baa4 t .text$_ZN7sc_core9sc_signalIN5sc_dt6sc_intILi16EEELNS_16sc_writer_policyE0EE20mti_get_channel_typeEv
6063baa4 T __ZN7sc_core9sc_signalIN5sc_dt6sc_intILi16EEELNS_16sc_writer_policyE0EE20mti_get_channel_typeEv
6063bac0 t .text$_ZN7sc_core9sc_signalIN5sc_dt6sc_intILi16EEELNS_16sc_writer_policyE0EE21mti_get_channel_valueEi
6063bac0 T __ZN7sc_core9sc_signalIN5sc_dt6sc_intILi16EEELNS_16sc_writer_policyE0EE21mti_get_channel_valueEi
6063bb00 t .text$_ZN7sc_core9sc_signalIN5sc_dt6sc_intILi16EEELNS_16sc_writer_policyE0EE21mti_set_channel_valueEPvi
6063bb00 T __ZN7sc_core9sc_signalIN5sc_dt6sc_intILi16EEELNS_16sc_writer_policyE0EE21mti_set_channel_valueEPvi
6063bb20 t .text$_ZN7sc_core9sc_signalIN5sc_dt6sc_intILi16EEELNS_16sc_writer_policyE0EE27mti_get_construction_paramsEPiS6_S6_S6_S6_
6063bb20 T __ZN7sc_core9sc_signalIN5sc_dt6sc_intILi16EEELNS_16sc_writer_policyE0EE27mti_get_construction_paramsEPiS6_S6_S6_S6_
6063bb54 t .text$_ZN7sc_core9sc_signalIN5sc_dt6sc_intILi16EEELNS_16sc_writer_policyE0EE5writeERKS3_
6063bb54 T __ZN7sc_core9sc_signalIN5sc_dt6sc_intILi16EEELNS_16sc_writer_policyE0EE5writeERKS3_
6063bbc0 t .text$_ZN7sc_core9sc_signalIN5sc_dt6sc_intILi16EEELNS_16sc_writer_policyE0EE6updateEv
6063bbc0 T __ZN7sc_core9sc_signalIN5sc_dt6sc_intILi16EEELNS_16sc_writer_policyE0EE6updateEv
6063bc90 t .text$_ZN7sc_core9sc_signalIN5sc_dt6sc_intILi16EEELNS_16sc_writer_policyE0EEC1EPKc
6063bc90 T __ZN7sc_core9sc_signalIN5sc_dt6sc_intILi16EEELNS_16sc_writer_policyE0EEC1EPKc
6063be7c t .text$_ZN7sc_core9sc_signalIN5sc_dt6sc_intILi16EEELNS_16sc_writer_policyE0EEC1Ev
6063be7c T __ZN7sc_core9sc_signalIN5sc_dt6sc_intILi16EEELNS_16sc_writer_policyE0EEC1Ev
6063c088 t .text$_ZN7sc_core9sc_signalIN5sc_dt6sc_intILi16EEELNS_16sc_writer_policyE0EED0Ev
6063c088 T __ZN7sc_core9sc_signalIN5sc_dt6sc_intILi16EEELNS_16sc_writer_policyE0EED0Ev
6063c338 t .text$_ZN7sc_core9sc_signalIN5sc_dt6sc_intILi16EEELNS_16sc_writer_policyE0EED1Ev
6063c338 T __ZN7sc_core9sc_signalIN5sc_dt6sc_intILi16EEELNS_16sc_writer_policyE0EED1Ev
6063c5e8 t .text$_ZN7sc_core9sc_signalIN5sc_dt7sc_uintILi4EEELNS_16sc_writer_policyE0EE13register_portERNS_12sc_port_baseEPKc
6063c5e8 T __ZN7sc_core9sc_signalIN5sc_dt7sc_uintILi4EEELNS_16sc_writer_policyE0EE13register_portERNS_12sc_port_baseEPKc
6063c6bc t .text$_ZN7sc_core9sc_signalIN5sc_dt7sc_uintILi4EEELNS_16sc_writer_policyE0EE18mti_get_channel_idEPNS_9sc_objectE
6063c6bc T __ZN7sc_core9sc_signalIN5sc_dt7sc_uintILi4EEELNS_16sc_writer_policyE0EE18mti_get_channel_idEPNS_9sc_objectE
6063c6d0 t .text$_ZN7sc_core9sc_signalIN5sc_dt7sc_uintILi4EEELNS_16sc_writer_policyE0EE20mti_get_channel_typeEv
6063c6d0 T __ZN7sc_core9sc_signalIN5sc_dt7sc_uintILi4EEELNS_16sc_writer_policyE0EE20mti_get_channel_typeEv
6063c6ec t .text$_ZN7sc_core9sc_signalIN5sc_dt7sc_uintILi4EEELNS_16sc_writer_policyE0EE21mti_get_channel_valueEi
6063c6ec T __ZN7sc_core9sc_signalIN5sc_dt7sc_uintILi4EEELNS_16sc_writer_policyE0EE21mti_get_channel_valueEi
6063c72c t .text$_ZN7sc_core9sc_signalIN5sc_dt7sc_uintILi4EEELNS_16sc_writer_policyE0EE21mti_set_channel_valueEPvi
6063c72c T __ZN7sc_core9sc_signalIN5sc_dt7sc_uintILi4EEELNS_16sc_writer_policyE0EE21mti_set_channel_valueEPvi
6063c74c t .text$_ZN7sc_core9sc_signalIN5sc_dt7sc_uintILi4EEELNS_16sc_writer_policyE0EE27mti_get_construction_paramsEPiS6_S6_S6_S6_
6063c74c T __ZN7sc_core9sc_signalIN5sc_dt7sc_uintILi4EEELNS_16sc_writer_policyE0EE27mti_get_construction_paramsEPiS6_S6_S6_S6_
6063c780 t .text$_ZN7sc_core9sc_signalIN5sc_dt7sc_uintILi4EEELNS_16sc_writer_policyE0EE5writeERKS3_
6063c780 T __ZN7sc_core9sc_signalIN5sc_dt7sc_uintILi4EEELNS_16sc_writer_policyE0EE5writeERKS3_
6063c7ec t .text$_ZN7sc_core9sc_signalIN5sc_dt7sc_uintILi4EEELNS_16sc_writer_policyE0EE6updateEv
6063c7ec T __ZN7sc_core9sc_signalIN5sc_dt7sc_uintILi4EEELNS_16sc_writer_policyE0EE6updateEv
6063c8bc t .text$_ZN7sc_core9sc_signalIN5sc_dt7sc_uintILi4EEELNS_16sc_writer_policyE0EEC1EPKc
6063c8bc T __ZN7sc_core9sc_signalIN5sc_dt7sc_uintILi4EEELNS_16sc_writer_policyE0EEC1EPKc
6063caa8 t .text$_ZN7sc_core9sc_signalIN5sc_dt7sc_uintILi4EEELNS_16sc_writer_policyE0EEC1Ev
6063caa8 T __ZN7sc_core9sc_signalIN5sc_dt7sc_uintILi4EEELNS_16sc_writer_policyE0EEC1Ev
6063ccb4 t .text$_ZN7sc_core9sc_signalIN5sc_dt7sc_uintILi4EEELNS_16sc_writer_policyE0EED0Ev
6063ccb4 T __ZN7sc_core9sc_signalIN5sc_dt7sc_uintILi4EEELNS_16sc_writer_policyE0EED0Ev
6063cf64 t .text$_ZN7sc_core9sc_signalIN5sc_dt7sc_uintILi4EEELNS_16sc_writer_policyE0EED1Ev
6063cf64 T __ZN7sc_core9sc_signalIN5sc_dt7sc_uintILi4EEELNS_16sc_writer_policyE0EED1Ev
6063d214 t .text$_ZN7sc_core9sc_signalIN5sc_dt8sc_logicELNS_16sc_writer_policyE0EE13register_portERNS_12sc_port_baseEPKc
6063d214 T __ZN7sc_core9sc_signalIN5sc_dt8sc_logicELNS_16sc_writer_policyE0EE13register_portERNS_12sc_port_baseEPKc
6063d30c t .text$_ZN7sc_core9sc_signalIN5sc_dt8sc_logicELNS_16sc_writer_policyE0EE18mti_get_channel_idEPNS_9sc_objectE
6063d30c T __ZN7sc_core9sc_signalIN5sc_dt8sc_logicELNS_16sc_writer_policyE0EE18mti_get_channel_idEPNS_9sc_objectE
6063d318 t .text$_ZN7sc_core9sc_signalIN5sc_dt8sc_logicELNS_16sc_writer_policyE0EE20mti_get_channel_typeEv
6063d318 T __ZN7sc_core9sc_signalIN5sc_dt8sc_logicELNS_16sc_writer_policyE0EE20mti_get_channel_typeEv
6063d328 t .text$_ZN7sc_core9sc_signalIN5sc_dt8sc_logicELNS_16sc_writer_policyE0EE21mti_get_channel_valueEi
6063d328 T __ZN7sc_core9sc_signalIN5sc_dt8sc_logicELNS_16sc_writer_policyE0EE21mti_get_channel_valueEi
6063d350 t .text$_ZN7sc_core9sc_signalIN5sc_dt8sc_logicELNS_16sc_writer_policyE0EE21mti_set_channel_valueEPvi
6063d350 T __ZN7sc_core9sc_signalIN5sc_dt8sc_logicELNS_16sc_writer_policyE0EE21mti_set_channel_valueEPvi
6063d364 t .text$_ZN7sc_core9sc_signalIN5sc_dt8sc_logicELNS_16sc_writer_policyE0EE22control_foreign_signalEPKc
6063d364 T __ZN7sc_core9sc_signalIN5sc_dt8sc_logicELNS_16sc_writer_policyE0EE22control_foreign_signalEPKc
6063d3cc t .text$_ZN7sc_core9sc_signalIN5sc_dt8sc_logicELNS_16sc_writer_policyE0EE22observe_foreign_signalEPKc
6063d3cc T __ZN7sc_core9sc_signalIN5sc_dt8sc_logicELNS_16sc_writer_policyE0EE22observe_foreign_signalEPKc
6063d434 t .text$_ZN7sc_core9sc_signalIN5sc_dt8sc_logicELNS_16sc_writer_policyE0EE27mti_get_construction_paramsEPiS5_S5_S5_S5_
6063d434 T __ZN7sc_core9sc_signalIN5sc_dt8sc_logicELNS_16sc_writer_policyE0EE27mti_get_construction_paramsEPiS5_S5_S5_S5_
6063d468 t .text$_ZN7sc_core9sc_signalIN5sc_dt8sc_logicELNS_16sc_writer_policyE0EE5writeERKS2_
6063d468 T __ZN7sc_core9sc_signalIN5sc_dt8sc_logicELNS_16sc_writer_policyE0EE5writeERKS2_
6063d548 t .text$_ZN7sc_core9sc_signalIN5sc_dt8sc_logicELNS_16sc_writer_policyE0EE6updateEv
6063d548 T __ZN7sc_core9sc_signalIN5sc_dt8sc_logicELNS_16sc_writer_policyE0EE6updateEv
6063d564 t .text$_ZN7sc_core9sc_signalIN5sc_dt8sc_logicELNS_16sc_writer_policyE0EE9do_updateEv
6063d564 T __ZN7sc_core9sc_signalIN5sc_dt8sc_logicELNS_16sc_writer_policyE0EE9do_updateEv
6063d6dc t .text$_ZN7sc_core9sc_signalIN5sc_dt8sc_logicELNS_16sc_writer_policyE0EEC1EPKc
6063d6dc T __ZN7sc_core9sc_signalIN5sc_dt8sc_logicELNS_16sc_writer_policyE0EEC1EPKc
6063d804 t .text$_ZN7sc_core9sc_signalIN5sc_dt8sc_logicELNS_16sc_writer_policyE0EEC1EPKcS2_
6063d804 T __ZN7sc_core9sc_signalIN5sc_dt8sc_logicELNS_16sc_writer_policyE0EEC1EPKcS2_
6063d930 t .text$_ZN7sc_core9sc_signalIN5sc_dt8sc_logicELNS_16sc_writer_policyE0EEC1Ev
6063d930 T __ZN7sc_core9sc_signalIN5sc_dt8sc_logicELNS_16sc_writer_policyE0EEC1Ev
6063da68 t .text$_ZN7sc_core9sc_signalIN5sc_dt8sc_logicELNS_16sc_writer_policyE0EEC2EPKc
6063da68 T __ZN7sc_core9sc_signalIN5sc_dt8sc_logicELNS_16sc_writer_policyE0EEC2EPKc
6063db78 t .text$_ZN7sc_core9sc_signalIN5sc_dt8sc_logicELNS_16sc_writer_policyE0EEC2EPKcS2_
6063db78 T __ZN7sc_core9sc_signalIN5sc_dt8sc_logicELNS_16sc_writer_policyE0EEC2EPKcS2_
6063dc8c t .text$_ZN7sc_core9sc_signalIN5sc_dt8sc_logicELNS_16sc_writer_policyE0EEC2Ev
6063dc8c T __ZN7sc_core9sc_signalIN5sc_dt8sc_logicELNS_16sc_writer_policyE0EEC2Ev
6063ddac t .text$_ZN7sc_core9sc_signalIN5sc_dt8sc_logicELNS_16sc_writer_policyE0EED0Ev
6063ddac T __ZN7sc_core9sc_signalIN5sc_dt8sc_logicELNS_16sc_writer_policyE0EED0Ev
6063df1c t .text$_ZN7sc_core9sc_signalIN5sc_dt8sc_logicELNS_16sc_writer_policyE0EED1Ev
6063df1c T __ZN7sc_core9sc_signalIN5sc_dt8sc_logicELNS_16sc_writer_policyE0EED1Ev
6063e084 t .text$_ZN7sc_core9sc_signalIN5sc_dt8sc_logicELNS_16sc_writer_policyE0EED2Ev
6063e084 T __ZN7sc_core9sc_signalIN5sc_dt8sc_logicELNS_16sc_writer_policyE0EED2Ev
6063e1c8 t .text$_ZN7sc_core9sc_signalIN5sc_dt8sc_logicELNS_16sc_writer_policyE0EEaSERKNS_15sc_signal_in_ifIS2_EE
6063e1c8 T __ZN7sc_core9sc_signalIN5sc_dt8sc_logicELNS_16sc_writer_policyE0EEaSERKNS_15sc_signal_in_ifIS2_EE
6063e1f4 t .text$_ZN7sc_core9sc_signalIN5sc_dt8sc_logicELNS_16sc_writer_policyE0EEaSERKS2_
6063e1f4 T __ZN7sc_core9sc_signalIN5sc_dt8sc_logicELNS_16sc_writer_policyE0EEaSERKS2_
6063e214 t .text$_ZN7sc_core9sc_signalIN5sc_dt8sc_logicELNS_16sc_writer_policyE0EEaSERKS4_
6063e214 T __ZN7sc_core9sc_signalIN5sc_dt8sc_logicELNS_16sc_writer_policyE0EEaSERKS4_
6063e244 t .text$_ZN7sc_core9sc_signalIN5sc_dt8sc_logicELNS_16sc_writer_policyE1EE13register_portERNS_12sc_port_baseEPKc
6063e244 T __ZN7sc_core9sc_signalIN5sc_dt8sc_logicELNS_16sc_writer_policyE1EE13register_portERNS_12sc_port_baseEPKc
6063e320 t .text$_ZN7sc_core9sc_signalIN5sc_dt8sc_logicELNS_16sc_writer_policyE1EE18mti_get_channel_idEPNS_9sc_objectE
6063e320 T __ZN7sc_core9sc_signalIN5sc_dt8sc_logicELNS_16sc_writer_policyE1EE18mti_get_channel_idEPNS_9sc_objectE
6063e32c t .text$_ZN7sc_core9sc_signalIN5sc_dt8sc_logicELNS_16sc_writer_policyE1EE20mti_get_channel_typeEv
6063e32c T __ZN7sc_core9sc_signalIN5sc_dt8sc_logicELNS_16sc_writer_policyE1EE20mti_get_channel_typeEv
6063e33c t .text$_ZN7sc_core9sc_signalIN5sc_dt8sc_logicELNS_16sc_writer_policyE1EE21mti_get_channel_valueEi
6063e33c T __ZN7sc_core9sc_signalIN5sc_dt8sc_logicELNS_16sc_writer_policyE1EE21mti_get_channel_valueEi
6063e364 t .text$_ZN7sc_core9sc_signalIN5sc_dt8sc_logicELNS_16sc_writer_policyE1EE21mti_set_channel_valueEPvi
6063e364 T __ZN7sc_core9sc_signalIN5sc_dt8sc_logicELNS_16sc_writer_policyE1EE21mti_set_channel_valueEPvi
6063e378 t .text$_ZN7sc_core9sc_signalIN5sc_dt8sc_logicELNS_16sc_writer_policyE1EE22control_foreign_signalEPKc
6063e378 T __ZN7sc_core9sc_signalIN5sc_dt8sc_logicELNS_16sc_writer_policyE1EE22control_foreign_signalEPKc
6063e3e0 t .text$_ZN7sc_core9sc_signalIN5sc_dt8sc_logicELNS_16sc_writer_policyE1EE22observe_foreign_signalEPKc
6063e3e0 T __ZN7sc_core9sc_signalIN5sc_dt8sc_logicELNS_16sc_writer_policyE1EE22observe_foreign_signalEPKc
6063e448 t .text$_ZN7sc_core9sc_signalIN5sc_dt8sc_logicELNS_16sc_writer_policyE1EE27mti_get_construction_paramsEPiS5_S5_S5_S5_
6063e448 T __ZN7sc_core9sc_signalIN5sc_dt8sc_logicELNS_16sc_writer_policyE1EE27mti_get_construction_paramsEPiS5_S5_S5_S5_
6063e47c t .text$_ZN7sc_core9sc_signalIN5sc_dt8sc_logicELNS_16sc_writer_policyE1EE5writeERKS2_
6063e47c T __ZN7sc_core9sc_signalIN5sc_dt8sc_logicELNS_16sc_writer_policyE1EE5writeERKS2_
6063e558 t .text$_ZN7sc_core9sc_signalIN5sc_dt8sc_logicELNS_16sc_writer_policyE1EE6updateEv
6063e558 T __ZN7sc_core9sc_signalIN5sc_dt8sc_logicELNS_16sc_writer_policyE1EE6updateEv
6063e57c t .text$_ZN7sc_core9sc_signalIN5sc_dt8sc_logicELNS_16sc_writer_policyE1EE9do_updateEv
6063e57c T __ZN7sc_core9sc_signalIN5sc_dt8sc_logicELNS_16sc_writer_policyE1EE9do_updateEv
6063e6f4 t .text$_ZN7sc_core9sc_signalIN5sc_dt8sc_logicELNS_16sc_writer_policyE1EEC1EPKc
6063e6f4 T __ZN7sc_core9sc_signalIN5sc_dt8sc_logicELNS_16sc_writer_policyE1EEC1EPKc
6063e810 t .text$_ZN7sc_core9sc_signalIN5sc_dt8sc_logicELNS_16sc_writer_policyE1EEC1EPKcS2_
6063e810 T __ZN7sc_core9sc_signalIN5sc_dt8sc_logicELNS_16sc_writer_policyE1EEC1EPKcS2_
6063e930 t .text$_ZN7sc_core9sc_signalIN5sc_dt8sc_logicELNS_16sc_writer_policyE1EEC1Ev
6063e930 T __ZN7sc_core9sc_signalIN5sc_dt8sc_logicELNS_16sc_writer_policyE1EEC1Ev
6063ea5c t .text$_ZN7sc_core9sc_signalIN5sc_dt8sc_logicELNS_16sc_writer_policyE1EEC2EPKc
6063ea5c T __ZN7sc_core9sc_signalIN5sc_dt8sc_logicELNS_16sc_writer_policyE1EEC2EPKc
6063eb60 t .text$_ZN7sc_core9sc_signalIN5sc_dt8sc_logicELNS_16sc_writer_policyE1EEC2EPKcS2_
6063eb60 T __ZN7sc_core9sc_signalIN5sc_dt8sc_logicELNS_16sc_writer_policyE1EEC2EPKcS2_
6063ec68 t .text$_ZN7sc_core9sc_signalIN5sc_dt8sc_logicELNS_16sc_writer_policyE1EEC2Ev
6063ec68 T __ZN7sc_core9sc_signalIN5sc_dt8sc_logicELNS_16sc_writer_policyE1EEC2Ev
6063ed7c t .text$_ZN7sc_core9sc_signalIN5sc_dt8sc_logicELNS_16sc_writer_policyE1EED0Ev
6063ed7c T __ZN7sc_core9sc_signalIN5sc_dt8sc_logicELNS_16sc_writer_policyE1EED0Ev
6063eee4 t .text$_ZN7sc_core9sc_signalIN5sc_dt8sc_logicELNS_16sc_writer_policyE1EED1Ev
6063eee4 T __ZN7sc_core9sc_signalIN5sc_dt8sc_logicELNS_16sc_writer_policyE1EED1Ev
6063f044 t .text$_ZN7sc_core9sc_signalIN5sc_dt8sc_logicELNS_16sc_writer_policyE1EED2Ev
6063f044 T __ZN7sc_core9sc_signalIN5sc_dt8sc_logicELNS_16sc_writer_policyE1EED2Ev
6063f17c t .text$_ZN7sc_core9sc_signalIN5sc_dt8sc_logicELNS_16sc_writer_policyE1EEaSERKNS_15sc_signal_in_ifIS2_EE
6063f17c T __ZN7sc_core9sc_signalIN5sc_dt8sc_logicELNS_16sc_writer_policyE1EEaSERKNS_15sc_signal_in_ifIS2_EE
6063f1a8 t .text$_ZN7sc_core9sc_signalIN5sc_dt8sc_logicELNS_16sc_writer_policyE1EEaSERKS2_
6063f1a8 T __ZN7sc_core9sc_signalIN5sc_dt8sc_logicELNS_16sc_writer_policyE1EEaSERKS2_
6063f1c8 t .text$_ZN7sc_core9sc_signalIN5sc_dt8sc_logicELNS_16sc_writer_policyE1EEaSERKS4_
6063f1c8 T __ZN7sc_core9sc_signalIN5sc_dt8sc_logicELNS_16sc_writer_policyE1EEaSERKS4_
6063f1f8 t .text$_ZN7sc_core9sc_signalIN5sc_dt8sc_logicELNS_16sc_writer_policyE3EE13register_portERNS_12sc_port_baseEPKc
6063f1f8 T __ZN7sc_core9sc_signalIN5sc_dt8sc_logicELNS_16sc_writer_policyE3EE13register_portERNS_12sc_port_baseEPKc
6063f2d4 t .text$_ZN7sc_core9sc_signalIN5sc_dt8sc_logicELNS_16sc_writer_policyE3EE18mti_get_channel_idEPNS_9sc_objectE
6063f2d4 T __ZN7sc_core9sc_signalIN5sc_dt8sc_logicELNS_16sc_writer_policyE3EE18mti_get_channel_idEPNS_9sc_objectE
6063f2e0 t .text$_ZN7sc_core9sc_signalIN5sc_dt8sc_logicELNS_16sc_writer_policyE3EE20mti_get_channel_typeEv
6063f2e0 T __ZN7sc_core9sc_signalIN5sc_dt8sc_logicELNS_16sc_writer_policyE3EE20mti_get_channel_typeEv
6063f2f0 t .text$_ZN7sc_core9sc_signalIN5sc_dt8sc_logicELNS_16sc_writer_policyE3EE21mti_get_channel_valueEi
6063f2f0 T __ZN7sc_core9sc_signalIN5sc_dt8sc_logicELNS_16sc_writer_policyE3EE21mti_get_channel_valueEi
6063f318 t .text$_ZN7sc_core9sc_signalIN5sc_dt8sc_logicELNS_16sc_writer_policyE3EE21mti_set_channel_valueEPvi
6063f318 T __ZN7sc_core9sc_signalIN5sc_dt8sc_logicELNS_16sc_writer_policyE3EE21mti_set_channel_valueEPvi
6063f32c t .text$_ZN7sc_core9sc_signalIN5sc_dt8sc_logicELNS_16sc_writer_policyE3EE22control_foreign_signalEPKc
6063f32c T __ZN7sc_core9sc_signalIN5sc_dt8sc_logicELNS_16sc_writer_policyE3EE22control_foreign_signalEPKc
6063f394 t .text$_ZN7sc_core9sc_signalIN5sc_dt8sc_logicELNS_16sc_writer_policyE3EE22observe_foreign_signalEPKc
6063f394 T __ZN7sc_core9sc_signalIN5sc_dt8sc_logicELNS_16sc_writer_policyE3EE22observe_foreign_signalEPKc
6063f3fc t .text$_ZN7sc_core9sc_signalIN5sc_dt8sc_logicELNS_16sc_writer_policyE3EE27mti_get_construction_paramsEPiS5_S5_S5_S5_
6063f3fc T __ZN7sc_core9sc_signalIN5sc_dt8sc_logicELNS_16sc_writer_policyE3EE27mti_get_construction_paramsEPiS5_S5_S5_S5_
6063f430 t .text$_ZN7sc_core9sc_signalIN5sc_dt8sc_logicELNS_16sc_writer_policyE3EE5writeERKS2_
6063f430 T __ZN7sc_core9sc_signalIN5sc_dt8sc_logicELNS_16sc_writer_policyE3EE5writeERKS2_
6063f480 t .text$_ZN7sc_core9sc_signalIN5sc_dt8sc_logicELNS_16sc_writer_policyE3EE6updateEv
6063f480 T __ZN7sc_core9sc_signalIN5sc_dt8sc_logicELNS_16sc_writer_policyE3EE6updateEv
6063f498 t .text$_ZN7sc_core9sc_signalIN5sc_dt8sc_logicELNS_16sc_writer_policyE3EE9do_updateEv
6063f498 T __ZN7sc_core9sc_signalIN5sc_dt8sc_logicELNS_16sc_writer_policyE3EE9do_updateEv
6063f60c t .text$_ZN7sc_core9sc_signalIN5sc_dt8sc_logicELNS_16sc_writer_policyE3EEC1EPKc
6063f60c T __ZN7sc_core9sc_signalIN5sc_dt8sc_logicELNS_16sc_writer_policyE3EEC1EPKc
6063f718 t .text$_ZN7sc_core9sc_signalIN5sc_dt8sc_logicELNS_16sc_writer_policyE3EEC1EPKcS2_
6063f718 T __ZN7sc_core9sc_signalIN5sc_dt8sc_logicELNS_16sc_writer_policyE3EEC1EPKcS2_
6063f824 t .text$_ZN7sc_core9sc_signalIN5sc_dt8sc_logicELNS_16sc_writer_policyE3EEC1Ev
6063f824 T __ZN7sc_core9sc_signalIN5sc_dt8sc_logicELNS_16sc_writer_policyE3EEC1Ev
6063f940 t .text$_ZN7sc_core9sc_signalIN5sc_dt8sc_logicELNS_16sc_writer_policyE3EEC2EPKc
6063f940 T __ZN7sc_core9sc_signalIN5sc_dt8sc_logicELNS_16sc_writer_policyE3EEC2EPKc
6063fa34 t .text$_ZN7sc_core9sc_signalIN5sc_dt8sc_logicELNS_16sc_writer_policyE3EEC2EPKcS2_
6063fa34 T __ZN7sc_core9sc_signalIN5sc_dt8sc_logicELNS_16sc_writer_policyE3EEC2EPKcS2_
6063fb2c t .text$_ZN7sc_core9sc_signalIN5sc_dt8sc_logicELNS_16sc_writer_policyE3EEC2Ev
6063fb2c T __ZN7sc_core9sc_signalIN5sc_dt8sc_logicELNS_16sc_writer_policyE3EEC2Ev
6063fc30 t .text$_ZN7sc_core9sc_signalIN5sc_dt8sc_logicELNS_16sc_writer_policyE3EED0Ev
6063fc30 T __ZN7sc_core9sc_signalIN5sc_dt8sc_logicELNS_16sc_writer_policyE3EED0Ev
6063fd98 t .text$_ZN7sc_core9sc_signalIN5sc_dt8sc_logicELNS_16sc_writer_policyE3EED1Ev
6063fd98 T __ZN7sc_core9sc_signalIN5sc_dt8sc_logicELNS_16sc_writer_policyE3EED1Ev
6063fef8 t .text$_ZN7sc_core9sc_signalIN5sc_dt8sc_logicELNS_16sc_writer_policyE3EED2Ev
6063fef8 T __ZN7sc_core9sc_signalIN5sc_dt8sc_logicELNS_16sc_writer_policyE3EED2Ev
60640030 t .text$_ZN7sc_core9sc_signalIN5sc_dt8sc_logicELNS_16sc_writer_policyE3EEaSERKNS_15sc_signal_in_ifIS2_EE
60640030 T __ZN7sc_core9sc_signalIN5sc_dt8sc_logicELNS_16sc_writer_policyE3EEaSERKNS_15sc_signal_in_ifIS2_EE
6064005c t .text$_ZN7sc_core9sc_signalIN5sc_dt8sc_logicELNS_16sc_writer_policyE3EEaSERKS2_
6064005c T __ZN7sc_core9sc_signalIN5sc_dt8sc_logicELNS_16sc_writer_policyE3EEaSERKS2_
6064007c t .text$_ZN7sc_core9sc_signalIN5sc_dt8sc_logicELNS_16sc_writer_policyE3EEaSERKS4_
6064007c T __ZN7sc_core9sc_signalIN5sc_dt8sc_logicELNS_16sc_writer_policyE3EEaSERKS4_
606400ac t .text$_ZN7sc_core9sc_signalIbLNS_16sc_writer_policyE0EE13register_portERNS_12sc_port_baseEPKc
606400ac T __ZN7sc_core9sc_signalIbLNS_16sc_writer_policyE0EE13register_portERNS_12sc_port_baseEPKc
606401a4 t .text$_ZN7sc_core9sc_signalIbLNS_16sc_writer_policyE0EE16mti_set_is_clockEb
606401a4 T __ZN7sc_core9sc_signalIbLNS_16sc_writer_policyE0EE16mti_set_is_clockEb
606401b8 t .text$_ZN7sc_core9sc_signalIbLNS_16sc_writer_policyE0EE18mti_get_channel_idEPNS_9sc_objectE
606401b8 T __ZN7sc_core9sc_signalIbLNS_16sc_writer_policyE0EE18mti_get_channel_idEPNS_9sc_objectE
606401cc t .text$_ZN7sc_core9sc_signalIbLNS_16sc_writer_policyE0EE20mti_get_channel_typeEv
606401cc T __ZN7sc_core9sc_signalIbLNS_16sc_writer_policyE0EE20mti_get_channel_typeEv
606401e4 t .text$_ZN7sc_core9sc_signalIbLNS_16sc_writer_policyE0EE21mti_get_channel_valueEi
606401e4 T __ZN7sc_core9sc_signalIbLNS_16sc_writer_policyE0EE21mti_get_channel_valueEi
60640218 t .text$_ZN7sc_core9sc_signalIbLNS_16sc_writer_policyE0EE21mti_set_channel_valueEPvi
60640218 T __ZN7sc_core9sc_signalIbLNS_16sc_writer_policyE0EE21mti_set_channel_valueEPvi
60640228 t .text$_ZN7sc_core9sc_signalIbLNS_16sc_writer_policyE0EE22control_foreign_signalEPKc
60640228 T __ZN7sc_core9sc_signalIbLNS_16sc_writer_policyE0EE22control_foreign_signalEPKc
60640290 t .text$_ZN7sc_core9sc_signalIbLNS_16sc_writer_policyE0EE22observe_foreign_signalEPKc
60640290 T __ZN7sc_core9sc_signalIbLNS_16sc_writer_policyE0EE22observe_foreign_signalEPKc
606402f8 t .text$_ZN7sc_core9sc_signalIbLNS_16sc_writer_policyE0EE27mti_get_construction_paramsEPiS3_S3_S3_S3_
606402f8 T __ZN7sc_core9sc_signalIbLNS_16sc_writer_policyE0EE27mti_get_construction_paramsEPiS3_S3_S3_S3_
6064032c t .text$_ZN7sc_core9sc_signalIbLNS_16sc_writer_policyE0EE5writeERKb
6064032c T __ZN7sc_core9sc_signalIbLNS_16sc_writer_policyE0EE5writeERKb
60640498 t .text$_ZN7sc_core9sc_signalIbLNS_16sc_writer_policyE0EE6updateEv
60640498 T __ZN7sc_core9sc_signalIbLNS_16sc_writer_policyE0EE6updateEv
606404b0 t .text$_ZN7sc_core9sc_signalIbLNS_16sc_writer_policyE0EE9do_updateEv
606404b0 T __ZN7sc_core9sc_signalIbLNS_16sc_writer_policyE0EE9do_updateEv
60640620 t .text$_ZN7sc_core9sc_signalIbLNS_16sc_writer_policyE0EEC1EPKc
60640620 T __ZN7sc_core9sc_signalIbLNS_16sc_writer_policyE0EEC1EPKc
6064077c t .text$_ZN7sc_core9sc_signalIbLNS_16sc_writer_policyE0EEC1EPKcb
6064077c T __ZN7sc_core9sc_signalIbLNS_16sc_writer_policyE0EEC1EPKcb
60640880 t .text$_ZN7sc_core9sc_signalIbLNS_16sc_writer_policyE0EEC1Ev
60640880 T __ZN7sc_core9sc_signalIbLNS_16sc_writer_policyE0EEC1Ev
6064098c t .text$_ZN7sc_core9sc_signalIbLNS_16sc_writer_policyE0EEC2EPKc
6064098c T __ZN7sc_core9sc_signalIbLNS_16sc_writer_policyE0EEC2EPKc
60640a74 t .text$_ZN7sc_core9sc_signalIbLNS_16sc_writer_policyE0EEC2EPKcb
60640a74 T __ZN7sc_core9sc_signalIbLNS_16sc_writer_policyE0EEC2EPKcb
60640b60 t .text$_ZN7sc_core9sc_signalIbLNS_16sc_writer_policyE0EEC2Ev
60640b60 T __ZN7sc_core9sc_signalIbLNS_16sc_writer_policyE0EEC2Ev
60640c58 t .text$_ZN7sc_core9sc_signalIbLNS_16sc_writer_policyE0EED0Ev
60640c58 T __ZN7sc_core9sc_signalIbLNS_16sc_writer_policyE0EED0Ev
60640d54 t .text$_ZN7sc_core9sc_signalIbLNS_16sc_writer_policyE0EED1Ev
60640d54 T __ZN7sc_core9sc_signalIbLNS_16sc_writer_policyE0EED1Ev
60640e7c t .text$_ZN7sc_core9sc_signalIbLNS_16sc_writer_policyE0EED2Ev
60640e7c T __ZN7sc_core9sc_signalIbLNS_16sc_writer_policyE0EED2Ev
60640fb0 t .text$_ZN7sc_core9sc_signalIbLNS_16sc_writer_policyE0EEaSERKNS_15sc_signal_in_ifIbEE
60640fb0 T __ZN7sc_core9sc_signalIbLNS_16sc_writer_policyE0EEaSERKNS_15sc_signal_in_ifIbEE
60640fdc t .text$_ZN7sc_core9sc_signalIbLNS_16sc_writer_policyE0EEaSERKS2_
60640fdc T __ZN7sc_core9sc_signalIbLNS_16sc_writer_policyE0EEaSERKS2_
6064100c t .text$_ZN7sc_core9sc_signalIbLNS_16sc_writer_policyE0EEaSERKb
6064100c T __ZN7sc_core9sc_signalIbLNS_16sc_writer_policyE0EEaSERKb
6064102c t .text$_ZN7sc_core9sc_signalIbLNS_16sc_writer_policyE1EE13register_portERNS_12sc_port_baseEPKc
6064102c T __ZN7sc_core9sc_signalIbLNS_16sc_writer_policyE1EE13register_portERNS_12sc_port_baseEPKc
60641108 t .text$_ZN7sc_core9sc_signalIbLNS_16sc_writer_policyE1EE16mti_set_is_clockEb
60641108 T __ZN7sc_core9sc_signalIbLNS_16sc_writer_policyE1EE16mti_set_is_clockEb
6064111c t .text$_ZN7sc_core9sc_signalIbLNS_16sc_writer_policyE1EE18mti_get_channel_idEPNS_9sc_objectE
6064111c T __ZN7sc_core9sc_signalIbLNS_16sc_writer_policyE1EE18mti_get_channel_idEPNS_9sc_objectE
60641128 t .text$_ZN7sc_core9sc_signalIbLNS_16sc_writer_policyE1EE20mti_get_channel_typeEv
60641128 T __ZN7sc_core9sc_signalIbLNS_16sc_writer_policyE1EE20mti_get_channel_typeEv
60641138 t .text$_ZN7sc_core9sc_signalIbLNS_16sc_writer_policyE1EE21mti_get_channel_valueEi
60641138 T __ZN7sc_core9sc_signalIbLNS_16sc_writer_policyE1EE21mti_get_channel_valueEi
6064116c t .text$_ZN7sc_core9sc_signalIbLNS_16sc_writer_policyE1EE21mti_set_channel_valueEPvi
6064116c T __ZN7sc_core9sc_signalIbLNS_16sc_writer_policyE1EE21mti_set_channel_valueEPvi
6064117c t .text$_ZN7sc_core9sc_signalIbLNS_16sc_writer_policyE1EE22control_foreign_signalEPKc
6064117c T __ZN7sc_core9sc_signalIbLNS_16sc_writer_policyE1EE22control_foreign_signalEPKc
606411e4 t .text$_ZN7sc_core9sc_signalIbLNS_16sc_writer_policyE1EE22observe_foreign_signalEPKc
606411e4 T __ZN7sc_core9sc_signalIbLNS_16sc_writer_policyE1EE22observe_foreign_signalEPKc
6064124c t .text$_ZN7sc_core9sc_signalIbLNS_16sc_writer_policyE1EE27mti_get_construction_paramsEPiS3_S3_S3_S3_
6064124c T __ZN7sc_core9sc_signalIbLNS_16sc_writer_policyE1EE27mti_get_construction_paramsEPiS3_S3_S3_S3_
60641280 t .text$_ZN7sc_core9sc_signalIbLNS_16sc_writer_policyE1EE5writeERKb
60641280 T __ZN7sc_core9sc_signalIbLNS_16sc_writer_policyE1EE5writeERKb
606413f0 t .text$_ZN7sc_core9sc_signalIbLNS_16sc_writer_policyE1EE6updateEv
606413f0 T __ZN7sc_core9sc_signalIbLNS_16sc_writer_policyE1EE6updateEv
60641410 t .text$_ZN7sc_core9sc_signalIbLNS_16sc_writer_policyE1EE9do_updateEv
60641410 T __ZN7sc_core9sc_signalIbLNS_16sc_writer_policyE1EE9do_updateEv
60641578 t .text$_ZN7sc_core9sc_signalIbLNS_16sc_writer_policyE1EEC1EPKc
60641578 T __ZN7sc_core9sc_signalIbLNS_16sc_writer_policyE1EEC1EPKc
60641668 t .text$_ZN7sc_core9sc_signalIbLNS_16sc_writer_policyE1EEC1EPKcb
60641668 T __ZN7sc_core9sc_signalIbLNS_16sc_writer_policyE1EEC1EPKcb
60641760 t .text$_ZN7sc_core9sc_signalIbLNS_16sc_writer_policyE1EEC1Ev
60641760 T __ZN7sc_core9sc_signalIbLNS_16sc_writer_policyE1EEC1Ev
60641860 t .text$_ZN7sc_core9sc_signalIbLNS_16sc_writer_policyE1EEC2EPKc
60641860 T __ZN7sc_core9sc_signalIbLNS_16sc_writer_policyE1EEC2EPKc
60641938 t .text$_ZN7sc_core9sc_signalIbLNS_16sc_writer_policyE1EEC2EPKcb
60641938 T __ZN7sc_core9sc_signalIbLNS_16sc_writer_policyE1EEC2EPKcb
60641a18 t .text$_ZN7sc_core9sc_signalIbLNS_16sc_writer_policyE1EEC2Ev
60641a18 T __ZN7sc_core9sc_signalIbLNS_16sc_writer_policyE1EEC2Ev
60641b00 t .text$_ZN7sc_core9sc_signalIbLNS_16sc_writer_policyE1EED0Ev
60641b00 T __ZN7sc_core9sc_signalIbLNS_16sc_writer_policyE1EED0Ev
60641c5c t .text$_ZN7sc_core9sc_signalIbLNS_16sc_writer_policyE1EED1Ev
60641c5c T __ZN7sc_core9sc_signalIbLNS_16sc_writer_policyE1EED1Ev
60641d4c t .text$_ZN7sc_core9sc_signalIbLNS_16sc_writer_policyE1EED2Ev
60641d4c T __ZN7sc_core9sc_signalIbLNS_16sc_writer_policyE1EED2Ev
60641e30 t .text$_ZN7sc_core9sc_signalIbLNS_16sc_writer_policyE1EEaSERKNS_15sc_signal_in_ifIbEE
60641e30 T __ZN7sc_core9sc_signalIbLNS_16sc_writer_policyE1EEaSERKNS_15sc_signal_in_ifIbEE
60641e5c t .text$_ZN7sc_core9sc_signalIbLNS_16sc_writer_policyE1EEaSERKS2_
60641e5c T __ZN7sc_core9sc_signalIbLNS_16sc_writer_policyE1EEaSERKS2_
60641e8c t .text$_ZN7sc_core9sc_signalIbLNS_16sc_writer_policyE1EEaSERKb
60641e8c T __ZN7sc_core9sc_signalIbLNS_16sc_writer_policyE1EEaSERKb
60641eac t .text$_ZN7sc_core9sc_signalIbLNS_16sc_writer_policyE3EE13register_portERNS_12sc_port_baseEPKc
60641eac T __ZN7sc_core9sc_signalIbLNS_16sc_writer_policyE3EE13register_portERNS_12sc_port_baseEPKc
60641f88 t .text$_ZN7sc_core9sc_signalIbLNS_16sc_writer_policyE3EE16mti_set_is_clockEb
60641f88 T __ZN7sc_core9sc_signalIbLNS_16sc_writer_policyE3EE16mti_set_is_clockEb
60641f9c t .text$_ZN7sc_core9sc_signalIbLNS_16sc_writer_policyE3EE18mti_get_channel_idEPNS_9sc_objectE
60641f9c T __ZN7sc_core9sc_signalIbLNS_16sc_writer_policyE3EE18mti_get_channel_idEPNS_9sc_objectE
60641fa8 t .text$_ZN7sc_core9sc_signalIbLNS_16sc_writer_policyE3EE20mti_get_channel_typeEv
60641fa8 T __ZN7sc_core9sc_signalIbLNS_16sc_writer_policyE3EE20mti_get_channel_typeEv
60641fb8 t .text$_ZN7sc_core9sc_signalIbLNS_16sc_writer_policyE3EE21mti_get_channel_valueEi
60641fb8 T __ZN7sc_core9sc_signalIbLNS_16sc_writer_policyE3EE21mti_get_channel_valueEi
60641fec t .text$_ZN7sc_core9sc_signalIbLNS_16sc_writer_policyE3EE21mti_set_channel_valueEPvi
60641fec T __ZN7sc_core9sc_signalIbLNS_16sc_writer_policyE3EE21mti_set_channel_valueEPvi
60641ffc t .text$_ZN7sc_core9sc_signalIbLNS_16sc_writer_policyE3EE22control_foreign_signalEPKc
60641ffc T __ZN7sc_core9sc_signalIbLNS_16sc_writer_policyE3EE22control_foreign_signalEPKc
60642064 t .text$_ZN7sc_core9sc_signalIbLNS_16sc_writer_policyE3EE22observe_foreign_signalEPKc
60642064 T __ZN7sc_core9sc_signalIbLNS_16sc_writer_policyE3EE22observe_foreign_signalEPKc
606420cc t .text$_ZN7sc_core9sc_signalIbLNS_16sc_writer_policyE3EE27mti_get_construction_paramsEPiS3_S3_S3_S3_
606420cc T __ZN7sc_core9sc_signalIbLNS_16sc_writer_policyE3EE27mti_get_construction_paramsEPiS3_S3_S3_S3_
60642100 t .text$_ZN7sc_core9sc_signalIbLNS_16sc_writer_policyE3EE5writeERKb
60642100 T __ZN7sc_core9sc_signalIbLNS_16sc_writer_policyE3EE5writeERKb
60642154 t .text$_ZN7sc_core9sc_signalIbLNS_16sc_writer_policyE3EE6updateEv
60642154 T __ZN7sc_core9sc_signalIbLNS_16sc_writer_policyE3EE6updateEv
6064216c t .text$_ZN7sc_core9sc_signalIbLNS_16sc_writer_policyE3EE9do_updateEv
6064216c T __ZN7sc_core9sc_signalIbLNS_16sc_writer_policyE3EE9do_updateEv
606422d0 t .text$_ZN7sc_core9sc_signalIbLNS_16sc_writer_policyE3EEC1EPKc
606422d0 T __ZN7sc_core9sc_signalIbLNS_16sc_writer_policyE3EEC1EPKc
606423b0 t .text$_ZN7sc_core9sc_signalIbLNS_16sc_writer_policyE3EEC1EPKcb
606423b0 T __ZN7sc_core9sc_signalIbLNS_16sc_writer_policyE3EEC1EPKcb
60642494 t .text$_ZN7sc_core9sc_signalIbLNS_16sc_writer_policyE3EEC1Ev
60642494 T __ZN7sc_core9sc_signalIbLNS_16sc_writer_policyE3EEC1Ev
60642584 t .text$_ZN7sc_core9sc_signalIbLNS_16sc_writer_policyE3EEC2EPKc
60642584 T __ZN7sc_core9sc_signalIbLNS_16sc_writer_policyE3EEC2EPKc
6064264c t .text$_ZN7sc_core9sc_signalIbLNS_16sc_writer_policyE3EEC2EPKcb
6064264c T __ZN7sc_core9sc_signalIbLNS_16sc_writer_policyE3EEC2EPKcb
6064271c t .text$_ZN7sc_core9sc_signalIbLNS_16sc_writer_policyE3EEC2Ev
6064271c T __ZN7sc_core9sc_signalIbLNS_16sc_writer_policyE3EEC2Ev
606427f4 t .text$_ZN7sc_core9sc_signalIbLNS_16sc_writer_policyE3EED0Ev
606427f4 T __ZN7sc_core9sc_signalIbLNS_16sc_writer_policyE3EED0Ev
60642950 t .text$_ZN7sc_core9sc_signalIbLNS_16sc_writer_policyE3EED1Ev
60642950 T __ZN7sc_core9sc_signalIbLNS_16sc_writer_policyE3EED1Ev
60642aa4 t .text$_ZN7sc_core9sc_signalIbLNS_16sc_writer_policyE3EED2Ev
60642aa4 T __ZN7sc_core9sc_signalIbLNS_16sc_writer_policyE3EED2Ev
60642bd0 t .text$_ZN7sc_core9sc_signalIbLNS_16sc_writer_policyE3EEaSERKNS_15sc_signal_in_ifIbEE
60642bd0 T __ZN7sc_core9sc_signalIbLNS_16sc_writer_policyE3EEaSERKNS_15sc_signal_in_ifIbEE
60642bfc t .text$_ZN7sc_core9sc_signalIbLNS_16sc_writer_policyE3EEaSERKS2_
60642bfc T __ZN7sc_core9sc_signalIbLNS_16sc_writer_policyE3EEaSERKS2_
60642c2c t .text$_ZN7sc_core9sc_signalIbLNS_16sc_writer_policyE3EEaSERKb
60642c2c T __ZN7sc_core9sc_signalIbLNS_16sc_writer_policyE3EEaSERKb
60642c4c t .text$_ZN7sc_corelsERSoRKNS_7sc_timeE
60642c4c T __ZN7sc_corelsERSoRKNS_7sc_timeE
60642c68 t .text$_ZN8ptrarrayIPKN7sc_core8sc_eventEE15resize_physicalEi
60642c68 T __ZN8ptrarrayIPKN7sc_core8sc_eventEE15resize_physicalEi
60642cfc t .text$_ZN8ptrarrayIPKN7sc_core8sc_eventEE7reserveEi
60642cfc T __ZN8ptrarrayIPKN7sc_core8sc_eventEE7reserveEi
60642d30 t .text$_ZN8ptrarrayIPKN7sc_core8sc_eventEE9push_backES3_
60642d30 T __ZN8ptrarrayIPKN7sc_core8sc_eventEE9push_backES3_
60642d74 t .text$_ZN8ptrarrayIPKN7sc_core8sc_eventEEC1Ev
60642d74 T __ZN8ptrarrayIPKN7sc_core8sc_eventEEC1Ev
60642d90 t .text$_ZN8ptrarrayIPKN7sc_core8sc_eventEED1Ev
60642d90 T __ZN8ptrarrayIPKN7sc_core8sc_eventEED1Ev
60642dc8 t .text$_ZN8ptrarrayIPKN7sc_core8sc_eventEEixEi
60642dc8 T __ZN8ptrarrayIPKN7sc_core8sc_eventEEixEi
60642de4 t .text$_ZN8ptrarrayIPN7sc_core12sc_interfaceEEC1Ev
60642de4 T __ZN8ptrarrayIPN7sc_core12sc_interfaceEEC1Ev
60642e00 t .text$_ZN8ptrarrayIPN7sc_core12sc_interfaceEED1Ev
60642e00 T __ZN8ptrarrayIPN7sc_core12sc_interfaceEED1Ev
60642e38 t .text$_ZN8ptrarrayIPN7sc_core12sc_port_baseEE10removeFastES2_
60642e38 T __ZN8ptrarrayIPN7sc_core12sc_port_baseEE10removeFastES2_
60642e9c t .text$_ZN8ptrarrayIPN7sc_core12sc_port_baseEE15resize_physicalEi
60642e9c T __ZN8ptrarrayIPN7sc_core12sc_port_baseEE15resize_physicalEi
60642f30 t .text$_ZN8ptrarrayIPN7sc_core12sc_port_baseEE9push_backES2_
60642f30 T __ZN8ptrarrayIPN7sc_core12sc_port_baseEE9push_backES2_
60642f74 t .text$_ZN8ptrarrayIPN7sc_core12sc_port_baseEEC1Ev
60642f74 T __ZN8ptrarrayIPN7sc_core12sc_port_baseEEC1Ev
60642f90 t .text$_ZN8ptrarrayIPN7sc_core12sc_port_baseEED1Ev
60642f90 T __ZN8ptrarrayIPN7sc_core12sc_port_baseEED1Ev
60642fc8 t .text$_ZN8ptrarrayIPN7sc_core12sc_port_baseEEixEi
60642fc8 T __ZN8ptrarrayIPN7sc_core12sc_port_baseEEixEi
60642fe4 t .text$_ZN8ptrarrayIPN7sc_core13sc_trace_fileEE15resize_physicalEi
60642fe4 T __ZN8ptrarrayIPN7sc_core13sc_trace_fileEE15resize_physicalEi
60643078 t .text$_ZN8ptrarrayIPN7sc_core13sc_trace_fileEE6removeES2_
60643078 T __ZN8ptrarrayIPN7sc_core13sc_trace_fileEE6removeES2_
606430f8 t .text$_ZN8ptrarrayIPN7sc_core13sc_trace_fileEE9push_backES2_
606430f8 T __ZN8ptrarrayIPN7sc_core13sc_trace_fileEE9push_backES2_
6064313c t .text$_ZN8ptrarrayIPN7sc_core13sc_trace_fileEEC1Ev
6064313c T __ZN8ptrarrayIPN7sc_core13sc_trace_fileEEC1Ev
60643158 t .text$_ZN8ptrarrayIPN7sc_core13sc_trace_fileEED1Ev
60643158 T __ZN8ptrarrayIPN7sc_core13sc_trace_fileEED1Ev
60643190 t .text$_ZN8ptrarrayIPN7sc_core13sc_trace_fileEEixEi
60643190 T __ZN8ptrarrayIPN7sc_core13sc_trace_fileEEixEi
606431ac t .text$_ZN8ptrarrayIPN7sc_core14sc_export_baseEE10removeFastES2_
606431ac T __ZN8ptrarrayIPN7sc_core14sc_export_baseEE10removeFastES2_
60643210 t .text$_ZN8ptrarrayIPN7sc_core14sc_export_baseEE15resize_physicalEi
60643210 T __ZN8ptrarrayIPN7sc_core14sc_export_baseEE15resize_physicalEi
606432a4 t .text$_ZN8ptrarrayIPN7sc_core14sc_export_baseEE9push_backES2_
606432a4 T __ZN8ptrarrayIPN7sc_core14sc_export_baseEE9push_backES2_
606432e8 t .text$_ZN8ptrarrayIPN7sc_core14sc_export_baseEEC1Ev
606432e8 T __ZN8ptrarrayIPN7sc_core14sc_export_baseEEC1Ev
60643304 t .text$_ZN8ptrarrayIPN7sc_core14sc_export_baseEED1Ev
60643304 T __ZN8ptrarrayIPN7sc_core14sc_export_baseEED1Ev
6064333c t .text$_ZN8ptrarrayIPN7sc_core14sc_export_baseEEixEi
6064333c T __ZN8ptrarrayIPN7sc_core14sc_export_baseEEixEi
60643358 t .text$_ZN8ptrarrayIPN7sc_core15sc_event_finderEEC1Ev
60643358 T __ZN8ptrarrayIPN7sc_core15sc_event_finderEEC1Ev
60643374 t .text$_ZN8ptrarrayIPN7sc_core15sc_event_finderEED1Ev
60643374 T __ZN8ptrarrayIPN7sc_core15sc_event_finderEED1Ev
606433ac t .text$_ZN8ptrarrayIPN7sc_core15sc_prim_channelEE10removeFastES2_
606433ac T __ZN8ptrarrayIPN7sc_core15sc_prim_channelEE10removeFastES2_
60643410 t .text$_ZN8ptrarrayIPN7sc_core15sc_prim_channelEE15resize_physicalEi
60643410 T __ZN8ptrarrayIPN7sc_core15sc_prim_channelEE15resize_physicalEi
606434a4 t .text$_ZN8ptrarrayIPN7sc_core15sc_prim_channelEE9push_backES2_
606434a4 T __ZN8ptrarrayIPN7sc_core15sc_prim_channelEE9push_backES2_
606434e8 t .text$_ZN8ptrarrayIPN7sc_core15sc_prim_channelEEC1Ev
606434e8 T __ZN8ptrarrayIPN7sc_core15sc_prim_channelEEC1Ev
60643504 t .text$_ZN8ptrarrayIPN7sc_core15sc_prim_channelEED1Ev
60643504 T __ZN8ptrarrayIPN7sc_core15sc_prim_channelEED1Ev
6064353c t .text$_ZN8ptrarrayIPN7sc_core15sc_prim_channelEEixEi
6064353c T __ZN8ptrarrayIPN7sc_core15sc_prim_channelEEixEi
60643558 t .text$_ZN8ptrarrayIPN7sc_core15sc_signal_in_ifIN5sc_dt6sc_intILi16EEEEEE15resize_physicalEi
60643558 T __ZN8ptrarrayIPN7sc_core15sc_signal_in_ifIN5sc_dt6sc_intILi16EEEEEE15resize_physicalEi
60643620 t .text$_ZN8ptrarrayIPN7sc_core15sc_signal_in_ifIN5sc_dt6sc_intILi16EEEEEE9push_backES6_
60643620 T __ZN8ptrarrayIPN7sc_core15sc_signal_in_ifIN5sc_dt6sc_intILi16EEEEEE9push_backES6_
60643694 t .text$_ZN8ptrarrayIPN7sc_core15sc_signal_in_ifIN5sc_dt6sc_intILi16EEEEEEC1Ev
60643694 T __ZN8ptrarrayIPN7sc_core15sc_signal_in_ifIN5sc_dt6sc_intILi16EEEEEEC1Ev
606436b8 t .text$_ZN8ptrarrayIPN7sc_core15sc_signal_in_ifIN5sc_dt6sc_intILi16EEEEEED1Ev
606436b8 T __ZN8ptrarrayIPN7sc_core15sc_signal_in_ifIN5sc_dt6sc_intILi16EEEEEED1Ev
606436f8 t .text$_ZN8ptrarrayIPN7sc_core15sc_signal_in_ifIN5sc_dt6sc_intILi16EEEEEEixEi
606436f8 T __ZN8ptrarrayIPN7sc_core15sc_signal_in_ifIN5sc_dt6sc_intILi16EEEEEEixEi
6064372c t .text$_ZN8ptrarrayIPN7sc_core15sc_signal_in_ifIN5sc_dt7sc_uintILi4EEEEEE15resize_physicalEi
6064372c T __ZN8ptrarrayIPN7sc_core15sc_signal_in_ifIN5sc_dt7sc_uintILi4EEEEEE15resize_physicalEi
606437f4 t .text$_ZN8ptrarrayIPN7sc_core15sc_signal_in_ifIN5sc_dt7sc_uintILi4EEEEEE9push_backES6_
606437f4 T __ZN8ptrarrayIPN7sc_core15sc_signal_in_ifIN5sc_dt7sc_uintILi4EEEEEE9push_backES6_
60643868 t .text$_ZN8ptrarrayIPN7sc_core15sc_signal_in_ifIN5sc_dt7sc_uintILi4EEEEEEC1Ev
60643868 T __ZN8ptrarrayIPN7sc_core15sc_signal_in_ifIN5sc_dt7sc_uintILi4EEEEEEC1Ev
6064388c t .text$_ZN8ptrarrayIPN7sc_core15sc_signal_in_ifIN5sc_dt7sc_uintILi4EEEEEED1Ev
6064388c T __ZN8ptrarrayIPN7sc_core15sc_signal_in_ifIN5sc_dt7sc_uintILi4EEEEEED1Ev
606438cc t .text$_ZN8ptrarrayIPN7sc_core15sc_signal_in_ifIN5sc_dt7sc_uintILi4EEEEEEixEi
606438cc T __ZN8ptrarrayIPN7sc_core15sc_signal_in_ifIN5sc_dt7sc_uintILi4EEEEEEixEi
60643900 t .text$_ZN8ptrarrayIPN7sc_core15sc_signal_in_ifIN5sc_dt8sc_logicEEEE15resize_physicalEi
60643900 T __ZN8ptrarrayIPN7sc_core15sc_signal_in_ifIN5sc_dt8sc_logicEEEE15resize_physicalEi
60643994 t .text$_ZN8ptrarrayIPN7sc_core15sc_signal_in_ifIN5sc_dt8sc_logicEEEE9push_backES5_
60643994 T __ZN8ptrarrayIPN7sc_core15sc_signal_in_ifIN5sc_dt8sc_logicEEEE9push_backES5_
606439d8 t .text$_ZN8ptrarrayIPN7sc_core15sc_signal_in_ifIN5sc_dt8sc_logicEEEED1Ev
606439d8 T __ZN8ptrarrayIPN7sc_core15sc_signal_in_ifIN5sc_dt8sc_logicEEEED1Ev
60643a10 t .text$_ZN8ptrarrayIPN7sc_core15sc_signal_in_ifIN5sc_dt8sc_logicEEEEixEi
60643a10 T __ZN8ptrarrayIPN7sc_core15sc_signal_in_ifIN5sc_dt8sc_logicEEEEixEi
60643a2c t .text$_ZN8ptrarrayIPN7sc_core15sc_signal_in_ifIbEEE15resize_physicalEi
60643a2c T __ZN8ptrarrayIPN7sc_core15sc_signal_in_ifIbEEE15resize_physicalEi
60643af4 t .text$_ZN8ptrarrayIPN7sc_core15sc_signal_in_ifIbEEE9push_backES3_
60643af4 T __ZN8ptrarrayIPN7sc_core15sc_signal_in_ifIbEEE9push_backES3_
60643b68 t .text$_ZN8ptrarrayIPN7sc_core15sc_signal_in_ifIbEEEC1Ev
60643b68 T __ZN8ptrarrayIPN7sc_core15sc_signal_in_ifIbEEEC1Ev
60643b8c t .text$_ZN8ptrarrayIPN7sc_core15sc_signal_in_ifIbEEED1Ev
60643b8c T __ZN8ptrarrayIPN7sc_core15sc_signal_in_ifIbEEED1Ev
60643bcc t .text$_ZN8ptrarrayIPN7sc_core15sc_signal_in_ifIbEEEixEi
60643bcc T __ZN8ptrarrayIPN7sc_core15sc_signal_in_ifIbEEEixEi
60643c00 t .text$_ZN8ptrarrayIPN7sc_core15sc_trace_paramsEE15resize_physicalEi
60643c00 T __ZN8ptrarrayIPN7sc_core15sc_trace_paramsEE15resize_physicalEi
60643c94 t .text$_ZN8ptrarrayIPN7sc_core15sc_trace_paramsEE9push_backES2_
60643c94 T __ZN8ptrarrayIPN7sc_core15sc_trace_paramsEE9push_backES2_
60643cd8 t .text$_ZN8ptrarrayIPN7sc_core15sc_trace_paramsEEC1Ev
60643cd8 T __ZN8ptrarrayIPN7sc_core15sc_trace_paramsEEC1Ev
60643cf4 t .text$_ZN8ptrarrayIPN7sc_core15sc_trace_paramsEED1Ev
60643cf4 T __ZN8ptrarrayIPN7sc_core15sc_trace_paramsEED1Ev
60643d34 t .text$_ZN8ptrarrayIPN7sc_core15sc_trace_paramsEEixEi
60643d34 T __ZN8ptrarrayIPN7sc_core15sc_trace_paramsEEixEi
60643d68 t .text$_ZN8ptrarrayIPN7sc_core17sc_method_processEE10removeFastES2_
60643d68 T __ZN8ptrarrayIPN7sc_core17sc_method_processEE10removeFastES2_
60643dcc t .text$_ZN8ptrarrayIPN7sc_core17sc_method_processEE15resize_physicalEi
60643dcc T __ZN8ptrarrayIPN7sc_core17sc_method_processEE15resize_physicalEi
60643e60 t .text$_ZN8ptrarrayIPN7sc_core17sc_method_processEE9push_backES2_
60643e60 T __ZN8ptrarrayIPN7sc_core17sc_method_processEE9push_backES2_
60643ea0 t .text$_ZN8ptrarrayIPN7sc_core17sc_method_processEEC1Ev
60643ea0 T __ZN8ptrarrayIPN7sc_core17sc_method_processEEC1Ev
60643ebc t .text$_ZN8ptrarrayIPN7sc_core17sc_method_processEED1Ev
60643ebc T __ZN8ptrarrayIPN7sc_core17sc_method_processEED1Ev
60643ef4 t .text$_ZN8ptrarrayIPN7sc_core17sc_thread_processEE10removeFastES2_
60643ef4 T __ZN8ptrarrayIPN7sc_core17sc_thread_processEE10removeFastES2_
60643f58 t .text$_ZN8ptrarrayIPN7sc_core17sc_thread_processEE15resize_physicalEi
60643f58 T __ZN8ptrarrayIPN7sc_core17sc_thread_processEE15resize_physicalEi
60643fec t .text$_ZN8ptrarrayIPN7sc_core17sc_thread_processEE9push_backES2_
60643fec T __ZN8ptrarrayIPN7sc_core17sc_thread_processEE9push_backES2_
6064402c t .text$_ZN8ptrarrayIPN7sc_core17sc_thread_processEEC1Ev
6064402c T __ZN8ptrarrayIPN7sc_core17sc_thread_processEEC1Ev
60644048 t .text$_ZN8ptrarrayIPN7sc_core17sc_thread_processEED1Ev
60644048 T __ZN8ptrarrayIPN7sc_core17sc_thread_processEED1Ev
60644080 t .text$_ZN8ptrarrayIPN7sc_core18sc_process_monitorEEC1Ev
60644080 T __ZN8ptrarrayIPN7sc_core18sc_process_monitorEEC1Ev
6064409c t .text$_ZN8ptrarrayIPN7sc_core18sc_process_monitorEED1Ev
6064409c T __ZN8ptrarrayIPN7sc_core18sc_process_monitorEED1Ev
606440d4 t .text$_ZN8ptrarrayIPN7sc_core18sc_process_monitorEEixEi
606440d4 T __ZN8ptrarrayIPN7sc_core18sc_process_monitorEEixEi
606440f0 t .text$_ZN8ptrarrayIPN7sc_core18sc_signal_inout_ifIN5sc_dt6sc_intILi16EEEEEE15resize_physicalEi
606440f0 T __ZN8ptrarrayIPN7sc_core18sc_signal_inout_ifIN5sc_dt6sc_intILi16EEEEEE15resize_physicalEi
606441b8 t .text$_ZN8ptrarrayIPN7sc_core18sc_signal_inout_ifIN5sc_dt6sc_intILi16EEEEEE9push_backES6_
606441b8 T __ZN8ptrarrayIPN7sc_core18sc_signal_inout_ifIN5sc_dt6sc_intILi16EEEEEE9push_backES6_
6064422c t .text$_ZN8ptrarrayIPN7sc_core18sc_signal_inout_ifIN5sc_dt6sc_intILi16EEEEEEC1Ev
6064422c T __ZN8ptrarrayIPN7sc_core18sc_signal_inout_ifIN5sc_dt6sc_intILi16EEEEEEC1Ev
60644250 t .text$_ZN8ptrarrayIPN7sc_core18sc_signal_inout_ifIN5sc_dt6sc_intILi16EEEEEED1Ev
60644250 T __ZN8ptrarrayIPN7sc_core18sc_signal_inout_ifIN5sc_dt6sc_intILi16EEEEEED1Ev
60644290 t .text$_ZN8ptrarrayIPN7sc_core18sc_signal_inout_ifIN5sc_dt6sc_intILi16EEEEEEixEi
60644290 T __ZN8ptrarrayIPN7sc_core18sc_signal_inout_ifIN5sc_dt6sc_intILi16EEEEEEixEi
606442c4 t .text$_ZN8ptrarrayIPN7sc_core18sc_signal_inout_ifIN5sc_dt7sc_uintILi4EEEEEE15resize_physicalEi
606442c4 T __ZN8ptrarrayIPN7sc_core18sc_signal_inout_ifIN5sc_dt7sc_uintILi4EEEEEE15resize_physicalEi
6064438c t .text$_ZN8ptrarrayIPN7sc_core18sc_signal_inout_ifIN5sc_dt7sc_uintILi4EEEEEE9push_backES6_
6064438c T __ZN8ptrarrayIPN7sc_core18sc_signal_inout_ifIN5sc_dt7sc_uintILi4EEEEEE9push_backES6_
60644400 t .text$_ZN8ptrarrayIPN7sc_core18sc_signal_inout_ifIN5sc_dt7sc_uintILi4EEEEEEC1Ev
60644400 T __ZN8ptrarrayIPN7sc_core18sc_signal_inout_ifIN5sc_dt7sc_uintILi4EEEEEEC1Ev
60644424 t .text$_ZN8ptrarrayIPN7sc_core18sc_signal_inout_ifIN5sc_dt7sc_uintILi4EEEEEED1Ev
60644424 T __ZN8ptrarrayIPN7sc_core18sc_signal_inout_ifIN5sc_dt7sc_uintILi4EEEEEED1Ev
60644464 t .text$_ZN8ptrarrayIPN7sc_core18sc_signal_inout_ifIN5sc_dt7sc_uintILi4EEEEEEixEi
60644464 T __ZN8ptrarrayIPN7sc_core18sc_signal_inout_ifIN5sc_dt7sc_uintILi4EEEEEEixEi
60644498 t .text$_ZN8ptrarrayIPN7sc_core18sc_signal_inout_ifIN5sc_dt8sc_logicEEEE15resize_physicalEi
60644498 T __ZN8ptrarrayIPN7sc_core18sc_signal_inout_ifIN5sc_dt8sc_logicEEEE15resize_physicalEi
6064452c t .text$_ZN8ptrarrayIPN7sc_core18sc_signal_inout_ifIN5sc_dt8sc_logicEEEE9push_backES5_
6064452c T __ZN8ptrarrayIPN7sc_core18sc_signal_inout_ifIN5sc_dt8sc_logicEEEE9push_backES5_
60644570 t .text$_ZN8ptrarrayIPN7sc_core18sc_signal_inout_ifIN5sc_dt8sc_logicEEEED1Ev
60644570 T __ZN8ptrarrayIPN7sc_core18sc_signal_inout_ifIN5sc_dt8sc_logicEEEED1Ev
606445a8 t .text$_ZN8ptrarrayIPN7sc_core18sc_signal_inout_ifIN5sc_dt8sc_logicEEEEixEi
606445a8 T __ZN8ptrarrayIPN7sc_core18sc_signal_inout_ifIN5sc_dt8sc_logicEEEEixEi
606445c4 t .text$_ZN8ptrarrayIPN7sc_core18sc_signal_inout_ifIbEEE15resize_physicalEi
606445c4 T __ZN8ptrarrayIPN7sc_core18sc_signal_inout_ifIbEEE15resize_physicalEi
60644658 t .text$_ZN8ptrarrayIPN7sc_core18sc_signal_inout_ifIbEEE9push_backES3_
60644658 T __ZN8ptrarrayIPN7sc_core18sc_signal_inout_ifIbEEE9push_backES3_
6064469c t .text$_ZN8ptrarrayIPN7sc_core18sc_signal_inout_ifIbEEED1Ev
6064469c T __ZN8ptrarrayIPN7sc_core18sc_signal_inout_ifIbEEED1Ev
606446d4 t .text$_ZN8ptrarrayIPN7sc_core18sc_signal_inout_ifIbEEEixEi
606446d4 T __ZN8ptrarrayIPN7sc_core18sc_signal_inout_ifIbEEEixEi
606446f0 t .text$_ZN8ptrarrayIPN7sc_core19sc_spawn_reset_baseEE15resize_physicalEi
606446f0 T __ZN8ptrarrayIPN7sc_core19sc_spawn_reset_baseEE15resize_physicalEi
60644784 t .text$_ZN8ptrarrayIPN7sc_core19sc_spawn_reset_baseEE9push_backES2_
60644784 T __ZN8ptrarrayIPN7sc_core19sc_spawn_reset_baseEE9push_backES2_
606447c8 t .text$_ZN8ptrarrayIPN7sc_core19sc_spawn_reset_baseEEC1Ev
606447c8 T __ZN8ptrarrayIPN7sc_core19sc_spawn_reset_baseEEC1Ev
606447e4 t .text$_ZN8ptrarrayIPN7sc_core19sc_spawn_reset_baseEED1Ev
606447e4 T __ZN8ptrarrayIPN7sc_core19sc_spawn_reset_baseEED1Ev
6064481c t .text$_ZN8ptrarrayIPN7sc_core19sc_spawn_reset_baseEEixEi
6064481c T __ZN8ptrarrayIPN7sc_core19sc_spawn_reset_baseEEixEi
60644838 t .text$_ZN8ptrarrayIPN7sc_core8sc_eventEEC1Ev
60644838 T __ZN8ptrarrayIPN7sc_core8sc_eventEEC1Ev
60644854 t .text$_ZN8ptrarrayIPN7sc_core8sc_eventEED1Ev
60644854 T __ZN8ptrarrayIPN7sc_core8sc_eventEED1Ev
6064488c t .text$_ZN8ptrarrayIPN7sc_core9sc_moduleEE10removeFastES2_
6064488c T __ZN8ptrarrayIPN7sc_core9sc_moduleEE10removeFastES2_
606448f0 t .text$_ZN8ptrarrayIPN7sc_core9sc_moduleEE15resize_physicalEi
606448f0 T __ZN8ptrarrayIPN7sc_core9sc_moduleEE15resize_physicalEi
60644984 t .text$_ZN8ptrarrayIPN7sc_core9sc_moduleEE9push_backES2_
60644984 T __ZN8ptrarrayIPN7sc_core9sc_moduleEE9push_backES2_
606449c4 t .text$_ZN8ptrarrayIPN7sc_core9sc_moduleEEC1Ev
606449c4 T __ZN8ptrarrayIPN7sc_core9sc_moduleEEC1Ev
606449e0 t .text$_ZN8ptrarrayIPN7sc_core9sc_moduleEED1Ev
606449e0 T __ZN8ptrarrayIPN7sc_core9sc_moduleEED1Ev
60644a18 t .text$_ZN8ptrarrayIPN7sc_core9sc_moduleEEixEi
60644a18 T __ZN8ptrarrayIPN7sc_core9sc_moduleEEixEi
60644a34 t .text$_ZN8ptrarrayIPcE15resize_physicalEi
60644a34 T __ZN8ptrarrayIPcE15resize_physicalEi
60644ac8 t .text$_ZN8ptrarrayIPcE9push_backES0_
60644ac8 T __ZN8ptrarrayIPcE9push_backES0_
60644b08 t .text$_ZN8ptrarrayIPcEC1Ev
60644b08 T __ZN8ptrarrayIPcEC1Ev
60644b24 t .text$_ZN8ptrarrayIPcED1Ev
60644b24 T __ZN8ptrarrayIPcED1Ev
60644b64 t .text$_ZN8ptrarrayIPcEixEi
60644b64 T __ZN8ptrarrayIPcEixEi
60644b80 t .text$_ZN8sc_boost4bindIiPFiiPPcES4_EENS_3_bi6bind_tIT_PFS7_T0_ENS5_9list_av_1IT1_E4typeEEESA_SC_
60644b80 T __ZN8sc_boost4bindIiPFiiPPcES4_EENS_3_bi6bind_tIT_PFS7_T0_ENS5_9list_av_1IT1_E4typeEEESA_SC_
60644b8c t .text$_ZN8sc_boost4bindIvN7sc_core16sc_invoke_methodEPS2_EENS_3_bi6bind_tIT_NS_4_mfi3mf0IS6_T0_EENS4_9list_av_1IT1_E4typeEEEMS9_FS6_vESC_
60644b8c T __ZN8sc_boost4bindIvN7sc_core16sc_invoke_methodEPS2_EENS_3_bi6bind_tIT_NS_4_mfi3mf0IS6_T0_EENS4_9list_av_1IT1_E4typeEEEMS9_FS6_vESC_
60644ba8 t .text$_ZN9__gnu_cxx13stdio_filebufIcSt11char_traitsIcEE2fdEv
60644ba8 T __ZN9__gnu_cxx13stdio_filebufIcSt11char_traitsIcEE2fdEv
60644bb8 t .text$_ZN9__gnu_cxx13stdio_filebufIcSt11char_traitsIcEE4fileEv
60644bb8 T __ZN9__gnu_cxx13stdio_filebufIcSt11char_traitsIcEE4fileEv
60644bc8 t .text$_ZN9__gnu_cxx13stdio_filebufIcSt11char_traitsIcEEC1EP6_iobufSt13_Ios_Openmodej
60644bc8 T __ZN9__gnu_cxx13stdio_filebufIcSt11char_traitsIcEEC1EP6_iobufSt13_Ios_Openmodej
60644cb4 t .text$_ZN9__gnu_cxx13stdio_filebufIcSt11char_traitsIcEEC1EiSt13_Ios_Openmodej
60644cb4 T __ZN9__gnu_cxx13stdio_filebufIcSt11char_traitsIcEEC1EiSt13_Ios_Openmodej
60644da0 t .text$_ZN9__gnu_cxx13stdio_filebufIcSt11char_traitsIcEEC1Ev
60644da0 T __ZN9__gnu_cxx13stdio_filebufIcSt11char_traitsIcEEC1Ev
60644dc0 t .text$_ZN9__gnu_cxx13stdio_filebufIcSt11char_traitsIcEEC2EP6_iobufSt13_Ios_Openmodej
60644dc0 T __ZN9__gnu_cxx13stdio_filebufIcSt11char_traitsIcEEC2EP6_iobufSt13_Ios_Openmodej
60644eac t .text$_ZN9__gnu_cxx13stdio_filebufIcSt11char_traitsIcEEC2EiSt13_Ios_Openmodej
60644eac T __ZN9__gnu_cxx13stdio_filebufIcSt11char_traitsIcEEC2EiSt13_Ios_Openmodej
60644f98 t .text$_ZN9__gnu_cxx13stdio_filebufIcSt11char_traitsIcEEC2Ev
60644f98 T __ZN9__gnu_cxx13stdio_filebufIcSt11char_traitsIcEEC2Ev
60644fb8 t .text$_ZN9__gnu_cxx13stdio_filebufIcSt11char_traitsIcEED0Ev
60644fb8 T __ZN9__gnu_cxx13stdio_filebufIcSt11char_traitsIcEED0Ev
60645018 t .text$_ZN9__gnu_cxx13stdio_filebufIcSt11char_traitsIcEED1Ev
60645018 T __ZN9__gnu_cxx13stdio_filebufIcSt11char_traitsIcEED1Ev
60645070 t .text$_ZN9__gnu_cxx13stdio_filebufIcSt11char_traitsIcEED2Ev
60645070 T __ZN9__gnu_cxx13stdio_filebufIcSt11char_traitsIcEED2Ev
606450c8 t .text$_ZN9__gnu_cxx13stdio_filebufIwSt11char_traitsIwEE2fdEv
606450c8 T __ZN9__gnu_cxx13stdio_filebufIwSt11char_traitsIwEE2fdEv
606450d8 t .text$_ZN9__gnu_cxx13stdio_filebufIwSt11char_traitsIwEE4fileEv
606450d8 T __ZN9__gnu_cxx13stdio_filebufIwSt11char_traitsIwEE4fileEv
606450e8 t .text$_ZN9__gnu_cxx13stdio_filebufIwSt11char_traitsIwEEC1EP6_iobufSt13_Ios_Openmodej
606450e8 T __ZN9__gnu_cxx13stdio_filebufIwSt11char_traitsIwEEC1EP6_iobufSt13_Ios_Openmodej
606451d4 t .text$_ZN9__gnu_cxx13stdio_filebufIwSt11char_traitsIwEEC1EiSt13_Ios_Openmodej
606451d4 T __ZN9__gnu_cxx13stdio_filebufIwSt11char_traitsIwEEC1EiSt13_Ios_Openmodej
606452c0 t .text$_ZN9__gnu_cxx13stdio_filebufIwSt11char_traitsIwEEC1Ev
606452c0 T __ZN9__gnu_cxx13stdio_filebufIwSt11char_traitsIwEEC1Ev
606452e0 t .text$_ZN9__gnu_cxx13stdio_filebufIwSt11char_traitsIwEEC2EP6_iobufSt13_Ios_Openmodej
606452e0 T __ZN9__gnu_cxx13stdio_filebufIwSt11char_traitsIwEEC2EP6_iobufSt13_Ios_Openmodej
606453cc t .text$_ZN9__gnu_cxx13stdio_filebufIwSt11char_traitsIwEEC2EiSt13_Ios_Openmodej
606453cc T __ZN9__gnu_cxx13stdio_filebufIwSt11char_traitsIwEEC2EiSt13_Ios_Openmodej
606454b8 t .text$_ZN9__gnu_cxx13stdio_filebufIwSt11char_traitsIwEEC2Ev
606454b8 T __ZN9__gnu_cxx13stdio_filebufIwSt11char_traitsIwEEC2Ev
606454d8 t .text$_ZN9__gnu_cxx13stdio_filebufIwSt11char_traitsIwEED0Ev
606454d8 T __ZN9__gnu_cxx13stdio_filebufIwSt11char_traitsIwEED0Ev
60645538 t .text$_ZN9__gnu_cxx13stdio_filebufIwSt11char_traitsIwEED1Ev
60645538 T __ZN9__gnu_cxx13stdio_filebufIwSt11char_traitsIwEED1Ev
60645590 t .text$_ZN9__gnu_cxx13stdio_filebufIwSt11char_traitsIwEED2Ev
60645590 T __ZN9__gnu_cxx13stdio_filebufIwSt11char_traitsIwEED2Ev
606455e8 t .text$_ZN9__gnu_cxx18stdio_sync_filebufIcSt11char_traitsIcEE4fileEv
606455e8 T __ZN9__gnu_cxx18stdio_sync_filebufIcSt11char_traitsIcEE4fileEv
606455f4 t .text$_ZN9__gnu_cxx18stdio_sync_filebufIcSt11char_traitsIcEE4syncEv
606455f4 T __ZN9__gnu_cxx18stdio_sync_filebufIcSt11char_traitsIcEE4syncEv
60645608 t .text$_ZN9__gnu_cxx18stdio_sync_filebufIcSt11char_traitsIcEE5uflowEv
60645608 T __ZN9__gnu_cxx18stdio_sync_filebufIcSt11char_traitsIcEE5uflowEv
6064564c t .text$_ZN9__gnu_cxx18stdio_sync_filebufIcSt11char_traitsIcEE6xsgetnEPci
6064564c T __ZN9__gnu_cxx18stdio_sync_filebufIcSt11char_traitsIcEE6xsgetnEPci
60645690 t .text$_ZN9__gnu_cxx18stdio_sync_filebufIcSt11char_traitsIcEE6xsputnEPKci
60645690 T __ZN9__gnu_cxx18stdio_sync_filebufIcSt11char_traitsIcEE6xsputnEPKci
606456ac t .text$_ZN9__gnu_cxx18stdio_sync_filebufIcSt11char_traitsIcEE7seekoffExSt12_Ios_SeekdirSt13_Ios_Openmode
606456ac T __ZN9__gnu_cxx18stdio_sync_filebufIcSt11char_traitsIcEE7seekoffExSt12_Ios_SeekdirSt13_Ios_Openmode
6064575c t .text$_ZN9__gnu_cxx18stdio_sync_filebufIcSt11char_traitsIcEE7seekposESt4fposIiESt13_Ios_Openmode
6064575c T __ZN9__gnu_cxx18stdio_sync_filebufIcSt11char_traitsIcEE7seekposESt4fposIiESt13_Ios_Openmode
60645794 t .text$_ZN9__gnu_cxx18stdio_sync_filebufIcSt11char_traitsIcEE8overflowEi
60645794 T __ZN9__gnu_cxx18stdio_sync_filebufIcSt11char_traitsIcEE8overflowEi
606457e8 t .text$_ZN9__gnu_cxx18stdio_sync_filebufIcSt11char_traitsIcEE9pbackfailEi
606457e8 T __ZN9__gnu_cxx18stdio_sync_filebufIcSt11char_traitsIcEE9pbackfailEi
60645820 t .text$_ZN9__gnu_cxx18stdio_sync_filebufIcSt11char_traitsIcEE9underflowEv
60645820 T __ZN9__gnu_cxx18stdio_sync_filebufIcSt11char_traitsIcEE9underflowEv
60645864 t .text$_ZN9__gnu_cxx18stdio_sync_filebufIcSt11char_traitsIcEEC1EP6_iobuf
60645864 T __ZN9__gnu_cxx18stdio_sync_filebufIcSt11char_traitsIcEEC1EP6_iobuf
606458c4 t .text$_ZN9__gnu_cxx18stdio_sync_filebufIcSt11char_traitsIcEEC2EP6_iobuf
606458c4 T __ZN9__gnu_cxx18stdio_sync_filebufIcSt11char_traitsIcEEC2EP6_iobuf
60645924 t .text$_ZN9__gnu_cxx18stdio_sync_filebufIcSt11char_traitsIcEED0Ev
60645924 T __ZN9__gnu_cxx18stdio_sync_filebufIcSt11char_traitsIcEED0Ev
6064594c t .text$_ZN9__gnu_cxx18stdio_sync_filebufIcSt11char_traitsIcEED1Ev
6064594c T __ZN9__gnu_cxx18stdio_sync_filebufIcSt11char_traitsIcEED1Ev
60645964 t .text$_ZN9__gnu_cxx18stdio_sync_filebufIwSt11char_traitsIwEE4fileEv
60645964 T __ZN9__gnu_cxx18stdio_sync_filebufIwSt11char_traitsIwEE4fileEv
60645970 t .text$_ZN9__gnu_cxx18stdio_sync_filebufIwSt11char_traitsIwEE4syncEv
60645970 T __ZN9__gnu_cxx18stdio_sync_filebufIwSt11char_traitsIwEE4syncEv
60645984 t .text$_ZN9__gnu_cxx18stdio_sync_filebufIwSt11char_traitsIwEE5uflowEv
60645984 T __ZN9__gnu_cxx18stdio_sync_filebufIwSt11char_traitsIwEE5uflowEv
606459a4 t .text$_ZN9__gnu_cxx18stdio_sync_filebufIwSt11char_traitsIwEE6xsgetnEPwi
606459a4 T __ZN9__gnu_cxx18stdio_sync_filebufIwSt11char_traitsIwEE6xsgetnEPwi
60645a08 t .text$_ZN9__gnu_cxx18stdio_sync_filebufIwSt11char_traitsIwEE6xsputnEPKwi
60645a08 T __ZN9__gnu_cxx18stdio_sync_filebufIwSt11char_traitsIwEE6xsputnEPKwi
60645a50 t .text$_ZN9__gnu_cxx18stdio_sync_filebufIwSt11char_traitsIwEE7seekoffExSt12_Ios_SeekdirSt13_Ios_Openmode
60645a50 T __ZN9__gnu_cxx18stdio_sync_filebufIwSt11char_traitsIwEE7seekoffExSt12_Ios_SeekdirSt13_Ios_Openmode
60645b00 t .text$_ZN9__gnu_cxx18stdio_sync_filebufIwSt11char_traitsIwEE7seekposESt4fposIiESt13_Ios_Openmode
60645b00 T __ZN9__gnu_cxx18stdio_sync_filebufIwSt11char_traitsIwEE7seekposESt4fposIiESt13_Ios_Openmode
60645b38 t .text$_ZN9__gnu_cxx18stdio_sync_filebufIwSt11char_traitsIwEE8overflowEt
60645b38 T __ZN9__gnu_cxx18stdio_sync_filebufIwSt11char_traitsIwEE8overflowEt
60645b80 t .text$_ZN9__gnu_cxx18stdio_sync_filebufIwSt11char_traitsIwEE9pbackfailEt
60645b80 T __ZN9__gnu_cxx18stdio_sync_filebufIwSt11char_traitsIwEE9pbackfailEt
60645bcc t .text$_ZN9__gnu_cxx18stdio_sync_filebufIwSt11char_traitsIwEE9underflowEv
60645bcc T __ZN9__gnu_cxx18stdio_sync_filebufIwSt11char_traitsIwEE9underflowEv
60645bf4 t .text$_ZN9__gnu_cxx18stdio_sync_filebufIwSt11char_traitsIwEEC1EP6_iobuf
60645bf4 T __ZN9__gnu_cxx18stdio_sync_filebufIwSt11char_traitsIwEEC1EP6_iobuf
60645c54 t .text$_ZN9__gnu_cxx18stdio_sync_filebufIwSt11char_traitsIwEEC2EP6_iobuf
60645c54 T __ZN9__gnu_cxx18stdio_sync_filebufIwSt11char_traitsIwEEC2EP6_iobuf
60645cb4 t .text$_ZN9__gnu_cxx18stdio_sync_filebufIwSt11char_traitsIwEED0Ev
60645cb4 T __ZN9__gnu_cxx18stdio_sync_filebufIwSt11char_traitsIwEED0Ev
60645cdc t .text$_ZN9__gnu_cxx18stdio_sync_filebufIwSt11char_traitsIwEED1Ev
60645cdc T __ZN9__gnu_cxx18stdio_sync_filebufIwSt11char_traitsIwEED1Ev
60645cf4 t .text$_ZN9__gnu_cxx24__concurrence_lock_errorD0Ev
60645cf4 T __ZN9__gnu_cxx24__concurrence_lock_errorD0Ev
60645d1c t .text$_ZN9__gnu_cxx24__concurrence_lock_errorD1Ev
60645d1c T __ZN9__gnu_cxx24__concurrence_lock_errorD1Ev
60645d30 t .text$_ZN9__gnu_cxx26__concurrence_unlock_errorD0Ev
60645d30 T __ZN9__gnu_cxx26__concurrence_unlock_errorD0Ev
60645d58 t .text$_ZN9__gnu_cxx26__concurrence_unlock_errorD1Ev
60645d58 T __ZN9__gnu_cxx26__concurrence_unlock_errorD1Ev
60645d6c t .text$_ZN9__gnu_cxx4ropeIcSaIcEE8_S_fetchEPNS_13_Rope_RopeRepIcS1_EEj
60645d6c T __ZN9__gnu_cxx4ropeIcSaIcEE8_S_fetchEPNS_13_Rope_RopeRepIcS1_EEj
60645dd0 t .text$_ZN9__gnu_cxx4ropeIwSaIwEE8_S_fetchEPNS_13_Rope_RopeRepIwS1_EEj
60645dd0 T __ZN9__gnu_cxx4ropeIwSaIwEE8_S_fetchEPNS_13_Rope_RopeRepIwS1_EEj
60645e34 t .text$_ZN9__gnu_cxxeqIPKcSsEEbRKNS_17__normal_iteratorIT_T0_EES8_
60645e34 T __ZN9__gnu_cxxeqIPKcSsEEbRKNS_17__normal_iteratorIT_T0_EES8_
60645e4c t .text$_ZN9__gnu_cxxeqIPKwSbIwSt11char_traitsIwESaIwEEEEbRKNS_17__normal_iteratorIT_T0_EESC_
60645e4c T __ZN9__gnu_cxxeqIPKwSbIwSt11char_traitsIwESaIwEEEEbRKNS_17__normal_iteratorIT_T0_EESC_
60645e64 t .text$_ZN9__gnu_cxxeqIPcSsEEbRKNS_17__normal_iteratorIT_T0_EES7_
60645e64 T __ZN9__gnu_cxxeqIPcSsEEbRKNS_17__normal_iteratorIT_T0_EES7_
60645e7c t .text$_ZN9__gnu_cxxeqIPwSbIwSt11char_traitsIwESaIwEEEEbRKNS_17__normal_iteratorIT_T0_EESB_
60645e7c T __ZN9__gnu_cxxeqIPwSbIwSt11char_traitsIwESaIwEEEEbRKNS_17__normal_iteratorIT_T0_EESB_
60645e94 t .text$_ZNK10__cxxabiv117__pbase_type_info15__pointer_catchEPKS0_PPvj
60645e94 T __ZNK10__cxxabiv117__pbase_type_info15__pointer_catchEPKS0_PPvj
60645ebc t .text$_ZNK13sc_mti_access17mti_get_dpi_valueEPv
60645ebc T __ZNK13sc_mti_access17mti_get_dpi_valueEPv
60645ec4 t .text$_ZNK5sc_dt11sc_int_base12check_lengthEv
60645ec4 T __ZNK5sc_dt11sc_int_base12check_lengthEv
60645ef0 t .text$_ZNK5sc_dt11sc_int_base13concat_lengthEPb
60645ef0 T __ZNK5sc_dt11sc_int_base13concat_lengthEPb
60645f0c t .text$_ZNK5sc_dt11sc_int_base17concat_get_uint64Ev
60645f0c T __ZNK5sc_dt11sc_int_base17concat_get_uint64Ev
60645f9c t .text$_ZNK5sc_dt11sc_int_base5printERSo
60645f9c T __ZNK5sc_dt11sc_int_base5printERSo
6064601c t .text$_ZNK5sc_dt11sc_int_base6lengthEv
6064601c T __ZNK5sc_dt11sc_int_base6lengthEv
60646028 t .text$_ZNK5sc_dt11sc_unsigned13concat_lengthEPb
60646028 T __ZNK5sc_dt11sc_unsigned13concat_lengthEPb
60646040 t .text$_ZNK5sc_dt12sc_uint_base12check_lengthEv
60646040 T __ZNK5sc_dt12sc_uint_base12check_lengthEv
6064606c t .text$_ZNK5sc_dt12sc_uint_base13concat_lengthEPb
6064606c T __ZNK5sc_dt12sc_uint_base13concat_lengthEPb
60646088 t .text$_ZNK5sc_dt12sc_uint_base17concat_get_uint64Ev
60646088 T __ZNK5sc_dt12sc_uint_base17concat_get_uint64Ev
60646098 t .text$_ZNK5sc_dt12sc_uint_base5printERSo
60646098 T __ZNK5sc_dt12sc_uint_base5printERSo
60646118 t .text$_ZNK5sc_dt12sc_uint_base6lengthEv
60646118 T __ZNK5sc_dt12sc_uint_base6lengthEv
60646124 t .text$_ZNK5sc_dt12sc_uint_basecvyEv
60646124 T __ZNK5sc_dt12sc_uint_basecvyEv
60646134 t .text$_ZNK5sc_dt15sc_int_bitref_r13concat_lengthEPb
60646134 T __ZNK5sc_dt15sc_int_bitref_r13concat_lengthEPb
60646148 t .text$_ZNK5sc_dt15sc_int_bitref_r15concat_get_ctrlEPji
60646148 T __ZNK5sc_dt15sc_int_bitref_r15concat_get_ctrlEPji
60646184 t .text$_ZNK5sc_dt15sc_int_bitref_r15concat_get_dataEPji
60646184 T __ZNK5sc_dt15sc_int_bitref_r15concat_get_dataEPji
6064620c t .text$_ZNK5sc_dt15sc_int_bitref_r17concat_get_uint64Ev
6064620c T __ZNK5sc_dt15sc_int_bitref_r17concat_get_uint64Ev
60646248 t .text$_ZNK5sc_dt15sc_int_subref_r13concat_lengthEPb
60646248 T __ZNK5sc_dt15sc_int_subref_r13concat_lengthEPb
60646264 t .text$_ZNK5sc_dt15sc_int_subref_r17concat_get_uint64Ev
60646264 T __ZNK5sc_dt15sc_int_subref_r17concat_get_uint64Ev
606462e4 t .text$_ZNK5sc_dt16sc_uint_bitref_r13concat_lengthEPb
606462e4 T __ZNK5sc_dt16sc_uint_bitref_r13concat_lengthEPb
606462f8 t .text$_ZNK5sc_dt16sc_uint_bitref_r15concat_get_ctrlEPji
606462f8 T __ZNK5sc_dt16sc_uint_bitref_r15concat_get_ctrlEPji
60646334 t .text$_ZNK5sc_dt16sc_uint_bitref_r15concat_get_dataEPji
60646334 T __ZNK5sc_dt16sc_uint_bitref_r15concat_get_dataEPji
606463bc t .text$_ZNK5sc_dt16sc_uint_bitref_r17concat_get_uint64Ev
606463bc T __ZNK5sc_dt16sc_uint_bitref_r17concat_get_uint64Ev
606463f8 t .text$_ZNK5sc_dt16sc_uint_subref_r13concat_lengthEPb
606463f8 T __ZNK5sc_dt16sc_uint_subref_r13concat_lengthEPb
60646414 t .text$_ZNK5sc_dt16sc_uint_subref_r17concat_get_uint64Ev
60646414 T __ZNK5sc_dt16sc_uint_subref_r17concat_get_uint64Ev
60646464 t .text$_ZNK5sc_dt18sc_signed_bitref_r13concat_lengthEPb
60646464 T __ZNK5sc_dt18sc_signed_bitref_r13concat_lengthEPb
60646478 t .text$_ZNK5sc_dt18sc_signed_bitref_r15concat_get_ctrlEPji
60646478 T __ZNK5sc_dt18sc_signed_bitref_r15concat_get_ctrlEPji
606464b4 t .text$_ZNK5sc_dt18sc_signed_bitref_r15concat_get_dataEPji
606464b4 T __ZNK5sc_dt18sc_signed_bitref_r15concat_get_dataEPji
60646520 t .text$_ZNK5sc_dt18sc_signed_bitref_r17concat_get_uint64Ev
60646520 T __ZNK5sc_dt18sc_signed_bitref_r17concat_get_uint64Ev
6064652c t .text$_ZNK5sc_dt18sc_signed_subref_r13concat_lengthEPb
6064652c T __ZNK5sc_dt18sc_signed_subref_r13concat_lengthEPb
60646548 t .text$_ZNK5sc_dt20sc_unsigned_bitref_r13concat_lengthEPb
60646548 T __ZNK5sc_dt20sc_unsigned_bitref_r13concat_lengthEPb
6064655c t .text$_ZNK5sc_dt20sc_unsigned_bitref_r15concat_get_ctrlEPji
6064655c T __ZNK5sc_dt20sc_unsigned_bitref_r15concat_get_ctrlEPji
60646598 t .text$_ZNK5sc_dt20sc_unsigned_bitref_r15concat_get_dataEPji
60646598 T __ZNK5sc_dt20sc_unsigned_bitref_r15concat_get_dataEPji
60646604 t .text$_ZNK5sc_dt20sc_unsigned_bitref_r17concat_get_uint64Ev
60646604 T __ZNK5sc_dt20sc_unsigned_bitref_r17concat_get_uint64Ev
60646610 t .text$_ZNK5sc_dt20sc_unsigned_subref_r13concat_lengthEPb
60646610 T __ZNK5sc_dt20sc_unsigned_subref_r13concat_lengthEPb
6064662c t .text$_ZNK5sc_dt8sc_proxyINS_10sc_bv_baseEE5printERSo
6064662c T __ZNK5sc_dt8sc_proxyINS_10sc_bv_baseEE5printERSo
60646b10 t .text$_ZNK5sc_dt9sc_signed13concat_lengthEPb
60646b10 T __ZNK5sc_dt9sc_signed13concat_lengthEPb
60646b28 t .text$_ZNK7sc_core12sc_port_base4kindEv
60646b28 T __ZNK7sc_core12sc_port_base4kindEv
60646b34 t .text$_ZNK7sc_core12sc_process_b10terminatedEv
60646b34 T __ZNK7sc_core12sc_process_b10terminatedEv
60646b48 t .text$_ZNK7sc_core12sc_process_b17get_child_objectsEv
60646b48 T __ZNK7sc_core12sc_process_b17get_child_objectsEv
60646b54 t .text$_ZNK7sc_core13sc_simcontext10time_stampEv
60646b54 T __ZNK7sc_core13sc_simcontext10time_stampEv
60646bd0 t .text$_ZNK7sc_core13sc_simcontext12change_stampEv
60646bd0 T __ZNK7sc_core13sc_simcontext12change_stampEv
60646be4 t .text$_ZNK7sc_core13sc_simcontext14event_occurredEyy
60646be4 T __ZNK7sc_core13sc_simcontext14event_occurredEyy
60646c24 t .text$_ZNK7sc_core13sc_simcontext18get_current_writerEv
60646c24 T __ZNK7sc_core13sc_simcontext18get_current_writerEv
60646c30 t .text$_ZNK7sc_core13sc_simcontext7mti_nowEv
60646c30 T __ZNK7sc_core13sc_simcontext7mti_nowEv
60646c44 t .text$_ZNK7sc_core15sc_event_finder4portEv
60646c44 T __ZNK7sc_core15sc_event_finder4portEv
60646c50 t .text$_ZNK7sc_core15sc_prim_channel4kindEv
60646c50 T __ZNK7sc_core15sc_prim_channel4kindEv
60646c5c t .text$_ZNK7sc_core15sc_signal_in_ifIbE8is_resetEv
60646c5c T __ZNK7sc_core15sc_signal_in_ifIbE8is_resetEv
60646c68 t .text$_ZNK7sc_core17sc_event_finder_tINS_15sc_signal_in_ifIN5sc_dt8sc_logicEEEE10find_eventEPNS_12sc_interfaceE
60646c68 T __ZNK7sc_core17sc_event_finder_tINS_15sc_signal_in_ifIN5sc_dt8sc_logicEEEE10find_eventEPNS_12sc_interfaceE
60646cf8 t .text$_ZNK7sc_core17sc_event_finder_tINS_15sc_signal_in_ifIbEEE10find_eventEPNS_12sc_interfaceE
60646cf8 T __ZNK7sc_core17sc_event_finder_tINS_15sc_signal_in_ifIbEEE10find_eventEPNS_12sc_interfaceE
60646df8 t .text$_ZNK7sc_core17sc_method_process4kindEv
60646df8 T __ZNK7sc_core17sc_method_process4kindEv
60646e04 t .text$_ZNK7sc_core17sc_thread_process4kindEv
60646e04 T __ZNK7sc_core17sc_thread_process4kindEv
60646e10 t .text$_ZNK7sc_core18sc_cthread_process4kindEv
60646e10 T __ZNK7sc_core18sc_cthread_process4kindEv
60646e1c t .text$_ZNK7sc_core18sc_signal_write_ifIN5sc_dt6sc_intILi16EEEE17get_writer_policyEv
60646e1c T __ZNK7sc_core18sc_signal_write_ifIN5sc_dt6sc_intILi16EEEE17get_writer_policyEv
60646e28 t .text$_ZNK7sc_core18sc_signal_write_ifIN5sc_dt7sc_uintILi4EEEE17get_writer_policyEv
60646e28 T __ZNK7sc_core18sc_signal_write_ifIN5sc_dt7sc_uintILi4EEEE17get_writer_policyEv
60646e34 t .text$_ZNK7sc_core18sc_signal_write_ifIN5sc_dt8sc_logicEE17get_writer_policyEv
60646e34 T __ZNK7sc_core18sc_signal_write_ifIN5sc_dt8sc_logicEE17get_writer_policyEv
60646e3c t .text$_ZNK7sc_core18sc_signal_write_ifIbE17get_writer_policyEv
60646e3c T __ZNK7sc_core18sc_signal_write_ifIbE17get_writer_policyEv
60646e48 t .text$_ZNK7sc_core19sc_unwind_exception8is_resetEv
60646e48 T __ZNK7sc_core19sc_unwind_exception8is_resetEv
60646e54 t .text$_ZNK7sc_core23sc_method_debug_process4kindEv
60646e54 T __ZNK7sc_core23sc_method_debug_process4kindEv
60646e60 t .text$_ZNK7sc_core5sc_inIN5sc_dt6sc_intILi16EEEE13remove_tracesEv
60646e60 T __ZNK7sc_core5sc_inIN5sc_dt6sc_intILi16EEEE13remove_tracesEv
60646f00 t .text$_ZNK7sc_core5sc_inIN5sc_dt6sc_intILi16EEEE4kindEv
60646f00 T __ZNK7sc_core5sc_inIN5sc_dt6sc_intILi16EEEE4kindEv
60646f0c t .text$_ZNK7sc_core5sc_inIN5sc_dt6sc_intILi16EEEE4readEv
60646f0c T __ZNK7sc_core5sc_inIN5sc_dt6sc_intILi16EEEE4readEv
60646f38 t .text$_ZNK7sc_core5sc_inIN5sc_dt7sc_uintILi4EEEE13remove_tracesEv
60646f38 T __ZNK7sc_core5sc_inIN5sc_dt7sc_uintILi4EEEE13remove_tracesEv
60646fd8 t .text$_ZNK7sc_core5sc_inIN5sc_dt7sc_uintILi4EEEE4kindEv
60646fd8 T __ZNK7sc_core5sc_inIN5sc_dt7sc_uintILi4EEEE4kindEv
60646fe4 t .text$_ZNK7sc_core5sc_inIN5sc_dt8sc_logicEE4kindEv
60646fe4 T __ZNK7sc_core5sc_inIN5sc_dt8sc_logicEE4kindEv
60646ff0 t .text$_ZNK7sc_core5sc_inIbE3negEv
60646ff0 T __ZNK7sc_core5sc_inIbE3negEv
6064706c t .text$_ZNK7sc_core5sc_inIbE4kindEv
6064706c T __ZNK7sc_core5sc_inIbE4kindEv
60647078 t .text$_ZNK7sc_core6sc_outIN5sc_dt6sc_intILi16EEEE4kindEv
60647078 T __ZNK7sc_core6sc_outIN5sc_dt6sc_intILi16EEEE4kindEv
60647084 t .text$_ZNK7sc_core6sc_outIN5sc_dt6sc_intILi16EEEE4readEv
60647084 T __ZNK7sc_core6sc_outIN5sc_dt6sc_intILi16EEEE4readEv
606470d8 t .text$_ZNK7sc_core6sc_outIN5sc_dt7sc_uintILi4EEEE4kindEv
606470d8 T __ZNK7sc_core6sc_outIN5sc_dt7sc_uintILi4EEEE4kindEv
606470e4 t .text$_ZNK7sc_core6sc_outIN5sc_dt7sc_uintILi4EEEE4readEv
606470e4 T __ZNK7sc_core6sc_outIN5sc_dt7sc_uintILi4EEEE4readEv
60647138 t .text$_ZNK7sc_core7sc_portINS_15sc_signal_in_ifIN5sc_dt6sc_intILi16EEEEELi1ELNS_14sc_port_policyE0EE4kindEv
60647138 T __ZNK7sc_core7sc_portINS_15sc_signal_in_ifIN5sc_dt6sc_intILi16EEEEELi1ELNS_14sc_port_policyE0EE4kindEv
60647144 t .text$_ZNK7sc_core7sc_portINS_15sc_signal_in_ifIN5sc_dt7sc_uintILi4EEEEELi1ELNS_14sc_port_policyE0EE4kindEv
60647144 T __ZNK7sc_core7sc_portINS_15sc_signal_in_ifIN5sc_dt7sc_uintILi4EEEEELi1ELNS_14sc_port_policyE0EE4kindEv
60647150 t .text$_ZNK7sc_core7sc_portINS_15sc_signal_in_ifIN5sc_dt8sc_logicEEELi1ELNS_14sc_port_policyE0EE4kindEv
60647150 T __ZNK7sc_core7sc_portINS_15sc_signal_in_ifIN5sc_dt8sc_logicEEELi1ELNS_14sc_port_policyE0EE4kindEv
6064715c t .text$_ZNK7sc_core7sc_portINS_15sc_signal_in_ifIbEELi1ELNS_14sc_port_policyE0EE4kindEv
6064715c T __ZNK7sc_core7sc_portINS_15sc_signal_in_ifIbEELi1ELNS_14sc_port_policyE0EE4kindEv
60647168 t .text$_ZNK7sc_core7sc_portINS_18sc_signal_inout_ifIN5sc_dt6sc_intILi16EEEEELi1ELNS_14sc_port_policyE0EE4kindEv
60647168 T __ZNK7sc_core7sc_portINS_18sc_signal_inout_ifIN5sc_dt6sc_intILi16EEEEELi1ELNS_14sc_port_policyE0EE4kindEv
60647174 t .text$_ZNK7sc_core7sc_portINS_18sc_signal_inout_ifIN5sc_dt7sc_uintILi4EEEEELi1ELNS_14sc_port_policyE0EE4kindEv
60647174 T __ZNK7sc_core7sc_portINS_18sc_signal_inout_ifIN5sc_dt7sc_uintILi4EEEEELi1ELNS_14sc_port_policyE0EE4kindEv
60647180 t .text$_ZNK7sc_core7sc_portINS_18sc_signal_inout_ifIN5sc_dt8sc_logicEEELi1ELNS_14sc_port_policyE0EE4kindEv
60647180 T __ZNK7sc_core7sc_portINS_18sc_signal_inout_ifIN5sc_dt8sc_logicEEELi1ELNS_14sc_port_policyE0EE4kindEv
6064718c t .text$_ZNK7sc_core7sc_portINS_18sc_signal_inout_ifIbEELi1ELNS_14sc_port_policyE0EE4kindEv
6064718c T __ZNK7sc_core7sc_portINS_18sc_signal_inout_ifIbEELi1ELNS_14sc_port_policyE0EE4kindEv
60647198 t .text$_ZNK7sc_core8sc_clock4kindEv
60647198 T __ZNK7sc_core8sc_clock4kindEv
606471a4 t .text$_ZNK7sc_core8sc_clock5eventEv
606471a4 T __ZNK7sc_core8sc_clock5eventEv
606471e0 t .text$_ZNK7sc_core8sc_clock5traceEPNS_13sc_trace_fileE
606471e0 T __ZNK7sc_core8sc_clock5traceEPNS_13sc_trace_fileE
606471e8 t .text$_ZNK7sc_core8sc_inoutIN5sc_dt6sc_intILi16EEEE13remove_tracesEv
606471e8 T __ZNK7sc_core8sc_inoutIN5sc_dt6sc_intILi16EEEE13remove_tracesEv
60647288 t .text$_ZNK7sc_core8sc_inoutIN5sc_dt6sc_intILi16EEEE4kindEv
60647288 T __ZNK7sc_core8sc_inoutIN5sc_dt6sc_intILi16EEEE4kindEv
60647294 t .text$_ZNK7sc_core8sc_inoutIN5sc_dt6sc_intILi16EEEE4readEv
60647294 T __ZNK7sc_core8sc_inoutIN5sc_dt6sc_intILi16EEEE4readEv
606472c0 t .text$_ZNK7sc_core8sc_inoutIN5sc_dt7sc_uintILi4EEEE13remove_tracesEv
606472c0 T __ZNK7sc_core8sc_inoutIN5sc_dt7sc_uintILi4EEEE13remove_tracesEv
60647360 t .text$_ZNK7sc_core8sc_inoutIN5sc_dt7sc_uintILi4EEEE4kindEv
60647360 T __ZNK7sc_core8sc_inoutIN5sc_dt7sc_uintILi4EEEE4kindEv
6064736c t .text$_ZNK7sc_core8sc_inoutIN5sc_dt7sc_uintILi4EEEE4readEv
6064736c T __ZNK7sc_core8sc_inoutIN5sc_dt7sc_uintILi4EEEE4readEv
60647398 t .text$_ZNK7sc_core8sc_inoutIN5sc_dt8sc_logicEE4kindEv
60647398 T __ZNK7sc_core8sc_inoutIN5sc_dt8sc_logicEE4kindEv
606473a4 t .text$_ZNK7sc_core8sc_inoutIbE4kindEv
606473a4 T __ZNK7sc_core8sc_inoutIbE4kindEv
606473b0 t .text$_ZNK7sc_core9sc_module4kindEv
606473b0 T __ZNK7sc_core9sc_module4kindEv
606473bc t .text$_ZNK7sc_core9sc_object10simcontextEv
606473bc T __ZNK7sc_core9sc_object10simcontextEv
606473c8 t .text$_ZNK7sc_core9sc_object16get_child_eventsEv
606473c8 T __ZNK7sc_core9sc_object16get_child_eventsEv
606473d4 t .text$_ZNK7sc_core9sc_object17get_child_objectsEv
606473d4 T __ZNK7sc_core9sc_object17get_child_objectsEv
606473e0 t .text$_ZNK7sc_core9sc_object4kindEv
606473e0 T __ZNK7sc_core9sc_object4kindEv
606473ec t .text$_ZNK7sc_core9sc_object8mti_nameEv
606473ec T __ZNK7sc_core9sc_object8mti_nameEv
606473f8 t .text$_ZNK7sc_core9sc_port_bINS_15sc_signal_in_ifIN5sc_dt6sc_intILi16EEEEEE11if_typenameEv
606473f8 T __ZNK7sc_core9sc_port_bINS_15sc_signal_in_ifIN5sc_dt6sc_intILi16EEEEEE11if_typenameEv
6064740c t .text$_ZNK7sc_core9sc_port_bINS_15sc_signal_in_ifIN5sc_dt6sc_intILi16EEEEEE13get_interfaceEv
6064740c T __ZNK7sc_core9sc_port_bINS_15sc_signal_in_ifIN5sc_dt6sc_intILi16EEEEEE13get_interfaceEv
60647444 t .text$_ZNK7sc_core9sc_port_bINS_15sc_signal_in_ifIN5sc_dt6sc_intILi16EEEEEE14make_sensitiveEPNS_17sc_method_processEPNS_15sc_event_finderE
60647444 T __ZNK7sc_core9sc_port_bINS_15sc_signal_in_ifIN5sc_dt6sc_intILi16EEEEEE14make_sensitiveEPNS_17sc_method_processEPNS_15sc_event_finderE
6064750c t .text$_ZNK7sc_core9sc_port_bINS_15sc_signal_in_ifIN5sc_dt6sc_intILi16EEEEEE14make_sensitiveEPNS_17sc_thread_processEPNS_15sc_event_finderE
6064750c T __ZNK7sc_core9sc_port_bINS_15sc_signal_in_ifIN5sc_dt6sc_intILi16EEEEEE14make_sensitiveEPNS_17sc_thread_processEPNS_15sc_event_finderE
606475d4 t .text$_ZNK7sc_core9sc_port_bINS_15sc_signal_in_ifIN5sc_dt6sc_intILi16EEEEEEptEv
606475d4 T __ZNK7sc_core9sc_port_bINS_15sc_signal_in_ifIN5sc_dt6sc_intILi16EEEEEEptEv
60647608 t .text$_ZNK7sc_core9sc_port_bINS_15sc_signal_in_ifIN5sc_dt7sc_uintILi4EEEEEE11if_typenameEv
60647608 T __ZNK7sc_core9sc_port_bINS_15sc_signal_in_ifIN5sc_dt7sc_uintILi4EEEEEE11if_typenameEv
6064761c t .text$_ZNK7sc_core9sc_port_bINS_15sc_signal_in_ifIN5sc_dt7sc_uintILi4EEEEEE13get_interfaceEv
6064761c T __ZNK7sc_core9sc_port_bINS_15sc_signal_in_ifIN5sc_dt7sc_uintILi4EEEEEE13get_interfaceEv
60647654 t .text$_ZNK7sc_core9sc_port_bINS_15sc_signal_in_ifIN5sc_dt7sc_uintILi4EEEEEE14make_sensitiveEPNS_17sc_method_processEPNS_15sc_event_finderE
60647654 T __ZNK7sc_core9sc_port_bINS_15sc_signal_in_ifIN5sc_dt7sc_uintILi4EEEEEE14make_sensitiveEPNS_17sc_method_processEPNS_15sc_event_finderE
6064771c t .text$_ZNK7sc_core9sc_port_bINS_15sc_signal_in_ifIN5sc_dt7sc_uintILi4EEEEEE14make_sensitiveEPNS_17sc_thread_processEPNS_15sc_event_finderE
6064771c T __ZNK7sc_core9sc_port_bINS_15sc_signal_in_ifIN5sc_dt7sc_uintILi4EEEEEE14make_sensitiveEPNS_17sc_thread_processEPNS_15sc_event_finderE
606477e4 t .text$_ZNK7sc_core9sc_port_bINS_15sc_signal_in_ifIN5sc_dt8sc_logicEEEE11if_typenameEv
606477e4 T __ZNK7sc_core9sc_port_bINS_15sc_signal_in_ifIN5sc_dt8sc_logicEEEE11if_typenameEv
606477f0 t .text$_ZNK7sc_core9sc_port_bINS_15sc_signal_in_ifIN5sc_dt8sc_logicEEEE13get_interfaceEv
606477f0 T __ZNK7sc_core9sc_port_bINS_15sc_signal_in_ifIN5sc_dt8sc_logicEEEE13get_interfaceEv
6064780c t .text$_ZNK7sc_core9sc_port_bINS_15sc_signal_in_ifIN5sc_dt8sc_logicEEEE14make_sensitiveEPNS_17sc_method_processEPNS_15sc_event_finderE
6064780c T __ZNK7sc_core9sc_port_bINS_15sc_signal_in_ifIN5sc_dt8sc_logicEEEE14make_sensitiveEPNS_17sc_method_processEPNS_15sc_event_finderE
606478a4 t .text$_ZNK7sc_core9sc_port_bINS_15sc_signal_in_ifIN5sc_dt8sc_logicEEEE14make_sensitiveEPNS_17sc_thread_processEPNS_15sc_event_finderE
606478a4 T __ZNK7sc_core9sc_port_bINS_15sc_signal_in_ifIN5sc_dt8sc_logicEEEE14make_sensitiveEPNS_17sc_thread_processEPNS_15sc_event_finderE
6064793c t .text$_ZNK7sc_core9sc_port_bINS_15sc_signal_in_ifIbEEE11if_typenameEv
6064793c T __ZNK7sc_core9sc_port_bINS_15sc_signal_in_ifIbEEE11if_typenameEv
60647950 t .text$_ZNK7sc_core9sc_port_bINS_15sc_signal_in_ifIbEEE13get_interfaceEv
60647950 T __ZNK7sc_core9sc_port_bINS_15sc_signal_in_ifIbEEE13get_interfaceEv
60647988 t .text$_ZNK7sc_core9sc_port_bINS_15sc_signal_in_ifIbEEE14make_sensitiveEPNS_17sc_method_processEPNS_15sc_event_finderE
60647988 T __ZNK7sc_core9sc_port_bINS_15sc_signal_in_ifIbEEE14make_sensitiveEPNS_17sc_method_processEPNS_15sc_event_finderE
60647a50 t .text$_ZNK7sc_core9sc_port_bINS_15sc_signal_in_ifIbEEE14make_sensitiveEPNS_17sc_thread_processEPNS_15sc_event_finderE
60647a50 T __ZNK7sc_core9sc_port_bINS_15sc_signal_in_ifIbEEE14make_sensitiveEPNS_17sc_thread_processEPNS_15sc_event_finderE
60647b18 t .text$_ZNK7sc_core9sc_port_bINS_18sc_signal_inout_ifIN5sc_dt6sc_intILi16EEEEEE11if_typenameEv
60647b18 T __ZNK7sc_core9sc_port_bINS_18sc_signal_inout_ifIN5sc_dt6sc_intILi16EEEEEE11if_typenameEv
60647b2c t .text$_ZNK7sc_core9sc_port_bINS_18sc_signal_inout_ifIN5sc_dt6sc_intILi16EEEEEE13get_interfaceEv
60647b2c T __ZNK7sc_core9sc_port_bINS_18sc_signal_inout_ifIN5sc_dt6sc_intILi16EEEEEE13get_interfaceEv
60647b64 t .text$_ZNK7sc_core9sc_port_bINS_18sc_signal_inout_ifIN5sc_dt6sc_intILi16EEEEEE14make_sensitiveEPNS_17sc_method_processEPNS_15sc_event_finderE
60647b64 T __ZNK7sc_core9sc_port_bINS_18sc_signal_inout_ifIN5sc_dt6sc_intILi16EEEEEE14make_sensitiveEPNS_17sc_method_processEPNS_15sc_event_finderE
60647c2c t .text$_ZNK7sc_core9sc_port_bINS_18sc_signal_inout_ifIN5sc_dt6sc_intILi16EEEEEE14make_sensitiveEPNS_17sc_thread_processEPNS_15sc_event_finderE
60647c2c T __ZNK7sc_core9sc_port_bINS_18sc_signal_inout_ifIN5sc_dt6sc_intILi16EEEEEE14make_sensitiveEPNS_17sc_thread_processEPNS_15sc_event_finderE
60647cf4 t .text$_ZNK7sc_core9sc_port_bINS_18sc_signal_inout_ifIN5sc_dt6sc_intILi16EEEEEEptEv
60647cf4 T __ZNK7sc_core9sc_port_bINS_18sc_signal_inout_ifIN5sc_dt6sc_intILi16EEEEEEptEv
60647d28 t .text$_ZNK7sc_core9sc_port_bINS_18sc_signal_inout_ifIN5sc_dt7sc_uintILi4EEEEEE11if_typenameEv
60647d28 T __ZNK7sc_core9sc_port_bINS_18sc_signal_inout_ifIN5sc_dt7sc_uintILi4EEEEEE11if_typenameEv
60647d3c t .text$_ZNK7sc_core9sc_port_bINS_18sc_signal_inout_ifIN5sc_dt7sc_uintILi4EEEEEE13get_interfaceEv
60647d3c T __ZNK7sc_core9sc_port_bINS_18sc_signal_inout_ifIN5sc_dt7sc_uintILi4EEEEEE13get_interfaceEv
60647d74 t .text$_ZNK7sc_core9sc_port_bINS_18sc_signal_inout_ifIN5sc_dt7sc_uintILi4EEEEEE14make_sensitiveEPNS_17sc_method_processEPNS_15sc_event_finderE
60647d74 T __ZNK7sc_core9sc_port_bINS_18sc_signal_inout_ifIN5sc_dt7sc_uintILi4EEEEEE14make_sensitiveEPNS_17sc_method_processEPNS_15sc_event_finderE
60647e3c t .text$_ZNK7sc_core9sc_port_bINS_18sc_signal_inout_ifIN5sc_dt7sc_uintILi4EEEEEE14make_sensitiveEPNS_17sc_thread_processEPNS_15sc_event_finderE
60647e3c T __ZNK7sc_core9sc_port_bINS_18sc_signal_inout_ifIN5sc_dt7sc_uintILi4EEEEEE14make_sensitiveEPNS_17sc_thread_processEPNS_15sc_event_finderE
60647f04 t .text$_ZNK7sc_core9sc_port_bINS_18sc_signal_inout_ifIN5sc_dt7sc_uintILi4EEEEEEptEv
60647f04 T __ZNK7sc_core9sc_port_bINS_18sc_signal_inout_ifIN5sc_dt7sc_uintILi4EEEEEEptEv
60647f38 t .text$_ZNK7sc_core9sc_port_bINS_18sc_signal_inout_ifIN5sc_dt8sc_logicEEEE11if_typenameEv
60647f38 T __ZNK7sc_core9sc_port_bINS_18sc_signal_inout_ifIN5sc_dt8sc_logicEEEE11if_typenameEv
60647f44 t .text$_ZNK7sc_core9sc_port_bINS_18sc_signal_inout_ifIN5sc_dt8sc_logicEEEE13get_interfaceEv
60647f44 T __ZNK7sc_core9sc_port_bINS_18sc_signal_inout_ifIN5sc_dt8sc_logicEEEE13get_interfaceEv
60647f60 t .text$_ZNK7sc_core9sc_port_bINS_18sc_signal_inout_ifIN5sc_dt8sc_logicEEEE14make_sensitiveEPNS_17sc_method_processEPNS_15sc_event_finderE
60647f60 T __ZNK7sc_core9sc_port_bINS_18sc_signal_inout_ifIN5sc_dt8sc_logicEEEE14make_sensitiveEPNS_17sc_method_processEPNS_15sc_event_finderE
60647ff8 t .text$_ZNK7sc_core9sc_port_bINS_18sc_signal_inout_ifIN5sc_dt8sc_logicEEEE14make_sensitiveEPNS_17sc_thread_processEPNS_15sc_event_finderE
60647ff8 T __ZNK7sc_core9sc_port_bINS_18sc_signal_inout_ifIN5sc_dt8sc_logicEEEE14make_sensitiveEPNS_17sc_thread_processEPNS_15sc_event_finderE
60648090 t .text$_ZNK7sc_core9sc_port_bINS_18sc_signal_inout_ifIbEEE11if_typenameEv
60648090 T __ZNK7sc_core9sc_port_bINS_18sc_signal_inout_ifIbEEE11if_typenameEv
6064809c t .text$_ZNK7sc_core9sc_port_bINS_18sc_signal_inout_ifIbEEE13get_interfaceEv
6064809c T __ZNK7sc_core9sc_port_bINS_18sc_signal_inout_ifIbEEE13get_interfaceEv
606480b8 t .text$_ZNK7sc_core9sc_port_bINS_18sc_signal_inout_ifIbEEE14make_sensitiveEPNS_17sc_method_processEPNS_15sc_event_finderE
606480b8 T __ZNK7sc_core9sc_port_bINS_18sc_signal_inout_ifIbEEE14make_sensitiveEPNS_17sc_method_processEPNS_15sc_event_finderE
60648150 t .text$_ZNK7sc_core9sc_port_bINS_18sc_signal_inout_ifIbEEE14make_sensitiveEPNS_17sc_thread_processEPNS_15sc_event_finderE
60648150 T __ZNK7sc_core9sc_port_bINS_18sc_signal_inout_ifIbEEE14make_sensitiveEPNS_17sc_thread_processEPNS_15sc_event_finderE
606481e8 t .text$_ZNK7sc_core9sc_report4kindEv
606481e8 T __ZNK7sc_core9sc_report4kindEv
606481f4 t .text$_ZNK7sc_core9sc_report4whatEv
606481f4 T __ZNK7sc_core9sc_report4whatEv
60648200 t .text$_ZNK7sc_core9sc_signalIN5sc_dt6sc_intILi16EEELNS_16sc_writer_policyE0EE12get_data_refEv
60648200 T __ZNK7sc_core9sc_signalIN5sc_dt6sc_intILi16EEELNS_16sc_writer_policyE0EE12get_data_refEv
60648214 t .text$_ZNK7sc_core9sc_signalIN5sc_dt6sc_intILi16EEELNS_16sc_writer_policyE0EE13default_eventEv
60648214 T __ZNK7sc_core9sc_signalIN5sc_dt6sc_intILi16EEELNS_16sc_writer_policyE0EE13default_eventEv
60648368 t .text$_ZNK7sc_core9sc_signalIN5sc_dt6sc_intILi16EEELNS_16sc_writer_policyE0EE13negedge_eventEv
60648368 T __ZNK7sc_core9sc_signalIN5sc_dt6sc_intILi16EEELNS_16sc_writer_policyE0EE13negedge_eventEv
606484c8 t .text$_ZNK7sc_core9sc_signalIN5sc_dt6sc_intILi16EEELNS_16sc_writer_policyE0EE13posedge_eventEv
606484c8 T __ZNK7sc_core9sc_signalIN5sc_dt6sc_intILi16EEELNS_16sc_writer_policyE0EE13posedge_eventEv
60648628 t .text$_ZNK7sc_core9sc_signalIN5sc_dt6sc_intILi16EEELNS_16sc_writer_policyE0EE17get_writer_policyEv
60648628 T __ZNK7sc_core9sc_signalIN5sc_dt6sc_intILi16EEELNS_16sc_writer_policyE0EE17get_writer_policyEv
60648634 t .text$_ZNK7sc_core9sc_signalIN5sc_dt6sc_intILi16EEELNS_16sc_writer_policyE0EE19value_changed_eventEv
60648634 T __ZNK7sc_core9sc_signalIN5sc_dt6sc_intILi16EEELNS_16sc_writer_policyE0EE19value_changed_eventEv
60648788 t .text$_ZNK7sc_core9sc_signalIN5sc_dt6sc_intILi16EEELNS_16sc_writer_policyE0EE4dumpERSo
60648788 T __ZNK7sc_core9sc_signalIN5sc_dt6sc_intILi16EEELNS_16sc_writer_policyE0EE4dumpERSo
60648848 t .text$_ZNK7sc_core9sc_signalIN5sc_dt6sc_intILi16EEELNS_16sc_writer_policyE0EE4kindEv
60648848 T __ZNK7sc_core9sc_signalIN5sc_dt6sc_intILi16EEELNS_16sc_writer_policyE0EE4kindEv
60648854 t .text$_ZNK7sc_core9sc_signalIN5sc_dt6sc_intILi16EEELNS_16sc_writer_policyE0EE4readEv
60648854 T __ZNK7sc_core9sc_signalIN5sc_dt6sc_intILi16EEELNS_16sc_writer_policyE0EE4readEv
60648860 t .text$_ZNK7sc_core9sc_signalIN5sc_dt6sc_intILi16EEELNS_16sc_writer_policyE0EE5eventEv
60648860 T __ZNK7sc_core9sc_signalIN5sc_dt6sc_intILi16EEELNS_16sc_writer_policyE0EE5eventEv
606488c0 t .text$_ZNK7sc_core9sc_signalIN5sc_dt6sc_intILi16EEELNS_16sc_writer_policyE0EE5printERSo
606488c0 T __ZNK7sc_core9sc_signalIN5sc_dt6sc_intILi16EEELNS_16sc_writer_policyE0EE5printERSo
606488e0 t .text$_ZNK7sc_core9sc_signalIN5sc_dt6sc_intILi16EEELNS_16sc_writer_policyE0EE5traceEPNS_13sc_trace_fileE
606488e0 T __ZNK7sc_core9sc_signalIN5sc_dt6sc_intILi16EEELNS_16sc_writer_policyE0EE5traceEPNS_13sc_trace_fileE
606488f0 t .text$_ZNK7sc_core9sc_signalIN5sc_dt7sc_uintILi4EEELNS_16sc_writer_policyE0EE12get_data_refEv
606488f0 T __ZNK7sc_core9sc_signalIN5sc_dt7sc_uintILi4EEELNS_16sc_writer_policyE0EE12get_data_refEv
60648904 t .text$_ZNK7sc_core9sc_signalIN5sc_dt7sc_uintILi4EEELNS_16sc_writer_policyE0EE13default_eventEv
60648904 T __ZNK7sc_core9sc_signalIN5sc_dt7sc_uintILi4EEELNS_16sc_writer_policyE0EE13default_eventEv
60648a58 t .text$_ZNK7sc_core9sc_signalIN5sc_dt7sc_uintILi4EEELNS_16sc_writer_policyE0EE13negedge_eventEv
60648a58 T __ZNK7sc_core9sc_signalIN5sc_dt7sc_uintILi4EEELNS_16sc_writer_policyE0EE13negedge_eventEv
60648bb8 t .text$_ZNK7sc_core9sc_signalIN5sc_dt7sc_uintILi4EEELNS_16sc_writer_policyE0EE13posedge_eventEv
60648bb8 T __ZNK7sc_core9sc_signalIN5sc_dt7sc_uintILi4EEELNS_16sc_writer_policyE0EE13posedge_eventEv
60648d18 t .text$_ZNK7sc_core9sc_signalIN5sc_dt7sc_uintILi4EEELNS_16sc_writer_policyE0EE17get_writer_policyEv
60648d18 T __ZNK7sc_core9sc_signalIN5sc_dt7sc_uintILi4EEELNS_16sc_writer_policyE0EE17get_writer_policyEv
60648d24 t .text$_ZNK7sc_core9sc_signalIN5sc_dt7sc_uintILi4EEELNS_16sc_writer_policyE0EE19value_changed_eventEv
60648d24 T __ZNK7sc_core9sc_signalIN5sc_dt7sc_uintILi4EEELNS_16sc_writer_policyE0EE19value_changed_eventEv
60648e78 t .text$_ZNK7sc_core9sc_signalIN5sc_dt7sc_uintILi4EEELNS_16sc_writer_policyE0EE4dumpERSo
60648e78 T __ZNK7sc_core9sc_signalIN5sc_dt7sc_uintILi4EEELNS_16sc_writer_policyE0EE4dumpERSo
60648f38 t .text$_ZNK7sc_core9sc_signalIN5sc_dt7sc_uintILi4EEELNS_16sc_writer_policyE0EE4kindEv
60648f38 T __ZNK7sc_core9sc_signalIN5sc_dt7sc_uintILi4EEELNS_16sc_writer_policyE0EE4kindEv
60648f44 t .text$_ZNK7sc_core9sc_signalIN5sc_dt7sc_uintILi4EEELNS_16sc_writer_policyE0EE4readEv
60648f44 T __ZNK7sc_core9sc_signalIN5sc_dt7sc_uintILi4EEELNS_16sc_writer_policyE0EE4readEv
60648f50 t .text$_ZNK7sc_core9sc_signalIN5sc_dt7sc_uintILi4EEELNS_16sc_writer_policyE0EE5eventEv
60648f50 T __ZNK7sc_core9sc_signalIN5sc_dt7sc_uintILi4EEELNS_16sc_writer_policyE0EE5eventEv
60648fb0 t .text$_ZNK7sc_core9sc_signalIN5sc_dt7sc_uintILi4EEELNS_16sc_writer_policyE0EE5printERSo
60648fb0 T __ZNK7sc_core9sc_signalIN5sc_dt7sc_uintILi4EEELNS_16sc_writer_policyE0EE5printERSo
60648fd0 t .text$_ZNK7sc_core9sc_signalIN5sc_dt7sc_uintILi4EEELNS_16sc_writer_policyE0EE5traceEPNS_13sc_trace_fileE
60648fd0 T __ZNK7sc_core9sc_signalIN5sc_dt7sc_uintILi4EEELNS_16sc_writer_policyE0EE5traceEPNS_13sc_trace_fileE
60648fe0 t .text$_ZNK7sc_core9sc_signalIN5sc_dt8sc_logicELNS_16sc_writer_policyE0EE12get_data_refEv
60648fe0 T __ZNK7sc_core9sc_signalIN5sc_dt8sc_logicELNS_16sc_writer_policyE0EE12get_data_refEv
60648ff4 t .text$_ZNK7sc_core9sc_signalIN5sc_dt8sc_logicELNS_16sc_writer_policyE0EE13default_eventEv
60648ff4 T __ZNK7sc_core9sc_signalIN5sc_dt8sc_logicELNS_16sc_writer_policyE0EE13default_eventEv
60649004 t .text$_ZNK7sc_core9sc_signalIN5sc_dt8sc_logicELNS_16sc_writer_policyE0EE13get_new_valueEv
60649004 T __ZNK7sc_core9sc_signalIN5sc_dt8sc_logicELNS_16sc_writer_policyE0EE13get_new_valueEv
6064901c t .text$_ZNK7sc_core9sc_signalIN5sc_dt8sc_logicELNS_16sc_writer_policyE0EE13negedge_eventEv
6064901c T __ZNK7sc_core9sc_signalIN5sc_dt8sc_logicELNS_16sc_writer_policyE0EE13negedge_eventEv
60649038 t .text$_ZNK7sc_core9sc_signalIN5sc_dt8sc_logicELNS_16sc_writer_policyE0EE13posedge_eventEv
60649038 T __ZNK7sc_core9sc_signalIN5sc_dt8sc_logicELNS_16sc_writer_policyE0EE13posedge_eventEv
60649054 t .text$_ZNK7sc_core9sc_signalIN5sc_dt8sc_logicELNS_16sc_writer_policyE0EE17get_writer_policyEv
60649054 T __ZNK7sc_core9sc_signalIN5sc_dt8sc_logicELNS_16sc_writer_policyE0EE17get_writer_policyEv
6064905c t .text$_ZNK7sc_core9sc_signalIN5sc_dt8sc_logicELNS_16sc_writer_policyE0EE19value_changed_eventEv
6064905c T __ZNK7sc_core9sc_signalIN5sc_dt8sc_logicELNS_16sc_writer_policyE0EE19value_changed_eventEv
60649078 t .text$_ZNK7sc_core9sc_signalIN5sc_dt8sc_logicELNS_16sc_writer_policyE0EE4dumpERSo
60649078 T __ZNK7sc_core9sc_signalIN5sc_dt8sc_logicELNS_16sc_writer_policyE0EE4dumpERSo
60649168 t .text$_ZNK7sc_core9sc_signalIN5sc_dt8sc_logicELNS_16sc_writer_policyE0EE4kindEv
60649168 T __ZNK7sc_core9sc_signalIN5sc_dt8sc_logicELNS_16sc_writer_policyE0EE4kindEv
60649174 t .text$_ZNK7sc_core9sc_signalIN5sc_dt8sc_logicELNS_16sc_writer_policyE0EE4readEv
60649174 T __ZNK7sc_core9sc_signalIN5sc_dt8sc_logicELNS_16sc_writer_policyE0EE4readEv
60649180 t .text$_ZNK7sc_core9sc_signalIN5sc_dt8sc_logicELNS_16sc_writer_policyE0EE5eventEv
60649180 T __ZNK7sc_core9sc_signalIN5sc_dt8sc_logicELNS_16sc_writer_policyE0EE5eventEv
606491b8 t .text$_ZNK7sc_core9sc_signalIN5sc_dt8sc_logicELNS_16sc_writer_policyE0EE5printERSo
606491b8 T __ZNK7sc_core9sc_signalIN5sc_dt8sc_logicELNS_16sc_writer_policyE0EE5printERSo
606491e4 t .text$_ZNK7sc_core9sc_signalIN5sc_dt8sc_logicELNS_16sc_writer_policyE0EE5traceEPNS_13sc_trace_fileE
606491e4 T __ZNK7sc_core9sc_signalIN5sc_dt8sc_logicELNS_16sc_writer_policyE0EE5traceEPNS_13sc_trace_fileE
606491f0 t .text$_ZNK7sc_core9sc_signalIN5sc_dt8sc_logicELNS_16sc_writer_policyE0EE7negedgeEv
606491f0 T __ZNK7sc_core9sc_signalIN5sc_dt8sc_logicELNS_16sc_writer_policyE0EE7negedgeEv
60649228 t .text$_ZNK7sc_core9sc_signalIN5sc_dt8sc_logicELNS_16sc_writer_policyE0EE7posedgeEv
60649228 T __ZNK7sc_core9sc_signalIN5sc_dt8sc_logicELNS_16sc_writer_policyE0EE7posedgeEv
60649260 t .text$_ZNK7sc_core9sc_signalIN5sc_dt8sc_logicELNS_16sc_writer_policyE0EEcvRKS2_Ev
60649260 T __ZNK7sc_core9sc_signalIN5sc_dt8sc_logicELNS_16sc_writer_policyE0EEcvRKS2_Ev
60649274 t .text$_ZNK7sc_core9sc_signalIN5sc_dt8sc_logicELNS_16sc_writer_policyE1EE12get_data_refEv
60649274 T __ZNK7sc_core9sc_signalIN5sc_dt8sc_logicELNS_16sc_writer_policyE1EE12get_data_refEv
60649288 t .text$_ZNK7sc_core9sc_signalIN5sc_dt8sc_logicELNS_16sc_writer_policyE1EE13default_eventEv
60649288 T __ZNK7sc_core9sc_signalIN5sc_dt8sc_logicELNS_16sc_writer_policyE1EE13default_eventEv
60649298 t .text$_ZNK7sc_core9sc_signalIN5sc_dt8sc_logicELNS_16sc_writer_policyE1EE13get_new_valueEv
60649298 T __ZNK7sc_core9sc_signalIN5sc_dt8sc_logicELNS_16sc_writer_policyE1EE13get_new_valueEv
606492ac t .text$_ZNK7sc_core9sc_signalIN5sc_dt8sc_logicELNS_16sc_writer_policyE1EE13negedge_eventEv
606492ac T __ZNK7sc_core9sc_signalIN5sc_dt8sc_logicELNS_16sc_writer_policyE1EE13negedge_eventEv
606492c8 t .text$_ZNK7sc_core9sc_signalIN5sc_dt8sc_logicELNS_16sc_writer_policyE1EE13posedge_eventEv
606492c8 T __ZNK7sc_core9sc_signalIN5sc_dt8sc_logicELNS_16sc_writer_policyE1EE13posedge_eventEv
606492e4 t .text$_ZNK7sc_core9sc_signalIN5sc_dt8sc_logicELNS_16sc_writer_policyE1EE17get_writer_policyEv
606492e4 T __ZNK7sc_core9sc_signalIN5sc_dt8sc_logicELNS_16sc_writer_policyE1EE17get_writer_policyEv
606492f0 t .text$_ZNK7sc_core9sc_signalIN5sc_dt8sc_logicELNS_16sc_writer_policyE1EE19value_changed_eventEv
606492f0 T __ZNK7sc_core9sc_signalIN5sc_dt8sc_logicELNS_16sc_writer_policyE1EE19value_changed_eventEv
6064930c t .text$_ZNK7sc_core9sc_signalIN5sc_dt8sc_logicELNS_16sc_writer_policyE1EE4dumpERSo
6064930c T __ZNK7sc_core9sc_signalIN5sc_dt8sc_logicELNS_16sc_writer_policyE1EE4dumpERSo
606493fc t .text$_ZNK7sc_core9sc_signalIN5sc_dt8sc_logicELNS_16sc_writer_policyE1EE4kindEv
606493fc T __ZNK7sc_core9sc_signalIN5sc_dt8sc_logicELNS_16sc_writer_policyE1EE4kindEv
60649408 t .text$_ZNK7sc_core9sc_signalIN5sc_dt8sc_logicELNS_16sc_writer_policyE1EE4readEv
60649408 T __ZNK7sc_core9sc_signalIN5sc_dt8sc_logicELNS_16sc_writer_policyE1EE4readEv
60649414 t .text$_ZNK7sc_core9sc_signalIN5sc_dt8sc_logicELNS_16sc_writer_policyE1EE5eventEv
60649414 T __ZNK7sc_core9sc_signalIN5sc_dt8sc_logicELNS_16sc_writer_policyE1EE5eventEv
6064944c t .text$_ZNK7sc_core9sc_signalIN5sc_dt8sc_logicELNS_16sc_writer_policyE1EE5printERSo
6064944c T __ZNK7sc_core9sc_signalIN5sc_dt8sc_logicELNS_16sc_writer_policyE1EE5printERSo
60649478 t .text$_ZNK7sc_core9sc_signalIN5sc_dt8sc_logicELNS_16sc_writer_policyE1EE5traceEPNS_13sc_trace_fileE
60649478 T __ZNK7sc_core9sc_signalIN5sc_dt8sc_logicELNS_16sc_writer_policyE1EE5traceEPNS_13sc_trace_fileE
60649484 t .text$_ZNK7sc_core9sc_signalIN5sc_dt8sc_logicELNS_16sc_writer_policyE1EE7negedgeEv
60649484 T __ZNK7sc_core9sc_signalIN5sc_dt8sc_logicELNS_16sc_writer_policyE1EE7negedgeEv
606494bc t .text$_ZNK7sc_core9sc_signalIN5sc_dt8sc_logicELNS_16sc_writer_policyE1EE7posedgeEv
606494bc T __ZNK7sc_core9sc_signalIN5sc_dt8sc_logicELNS_16sc_writer_policyE1EE7posedgeEv
606494f4 t .text$_ZNK7sc_core9sc_signalIN5sc_dt8sc_logicELNS_16sc_writer_policyE1EEcvRKS2_Ev
606494f4 T __ZNK7sc_core9sc_signalIN5sc_dt8sc_logicELNS_16sc_writer_policyE1EEcvRKS2_Ev
60649508 t .text$_ZNK7sc_core9sc_signalIN5sc_dt8sc_logicELNS_16sc_writer_policyE3EE12get_data_refEv
60649508 T __ZNK7sc_core9sc_signalIN5sc_dt8sc_logicELNS_16sc_writer_policyE3EE12get_data_refEv
6064951c t .text$_ZNK7sc_core9sc_signalIN5sc_dt8sc_logicELNS_16sc_writer_policyE3EE13default_eventEv
6064951c T __ZNK7sc_core9sc_signalIN5sc_dt8sc_logicELNS_16sc_writer_policyE3EE13default_eventEv
6064952c t .text$_ZNK7sc_core9sc_signalIN5sc_dt8sc_logicELNS_16sc_writer_policyE3EE13get_new_valueEv
6064952c T __ZNK7sc_core9sc_signalIN5sc_dt8sc_logicELNS_16sc_writer_policyE3EE13get_new_valueEv
60649540 t .text$_ZNK7sc_core9sc_signalIN5sc_dt8sc_logicELNS_16sc_writer_policyE3EE13negedge_eventEv
60649540 T __ZNK7sc_core9sc_signalIN5sc_dt8sc_logicELNS_16sc_writer_policyE3EE13negedge_eventEv
6064955c t .text$_ZNK7sc_core9sc_signalIN5sc_dt8sc_logicELNS_16sc_writer_policyE3EE13posedge_eventEv
6064955c T __ZNK7sc_core9sc_signalIN5sc_dt8sc_logicELNS_16sc_writer_policyE3EE13posedge_eventEv
60649578 t .text$_ZNK7sc_core9sc_signalIN5sc_dt8sc_logicELNS_16sc_writer_policyE3EE17get_writer_policyEv
60649578 T __ZNK7sc_core9sc_signalIN5sc_dt8sc_logicELNS_16sc_writer_policyE3EE17get_writer_policyEv
60649584 t .text$_ZNK7sc_core9sc_signalIN5sc_dt8sc_logicELNS_16sc_writer_policyE3EE19value_changed_eventEv
60649584 T __ZNK7sc_core9sc_signalIN5sc_dt8sc_logicELNS_16sc_writer_policyE3EE19value_changed_eventEv
606495a0 t .text$_ZNK7sc_core9sc_signalIN5sc_dt8sc_logicELNS_16sc_writer_policyE3EE4dumpERSo
606495a0 T __ZNK7sc_core9sc_signalIN5sc_dt8sc_logicELNS_16sc_writer_policyE3EE4dumpERSo
6064968c t .text$_ZNK7sc_core9sc_signalIN5sc_dt8sc_logicELNS_16sc_writer_policyE3EE4kindEv
6064968c T __ZNK7sc_core9sc_signalIN5sc_dt8sc_logicELNS_16sc_writer_policyE3EE4kindEv
60649698 t .text$_ZNK7sc_core9sc_signalIN5sc_dt8sc_logicELNS_16sc_writer_policyE3EE4readEv
60649698 T __ZNK7sc_core9sc_signalIN5sc_dt8sc_logicELNS_16sc_writer_policyE3EE4readEv
606496a4 t .text$_ZNK7sc_core9sc_signalIN5sc_dt8sc_logicELNS_16sc_writer_policyE3EE5eventEv
606496a4 T __ZNK7sc_core9sc_signalIN5sc_dt8sc_logicELNS_16sc_writer_policyE3EE5eventEv
606496dc t .text$_ZNK7sc_core9sc_signalIN5sc_dt8sc_logicELNS_16sc_writer_policyE3EE5printERSo
606496dc T __ZNK7sc_core9sc_signalIN5sc_dt8sc_logicELNS_16sc_writer_policyE3EE5printERSo
60649708 t .text$_ZNK7sc_core9sc_signalIN5sc_dt8sc_logicELNS_16sc_writer_policyE3EE5traceEPNS_13sc_trace_fileE
60649708 T __ZNK7sc_core9sc_signalIN5sc_dt8sc_logicELNS_16sc_writer_policyE3EE5traceEPNS_13sc_trace_fileE
60649714 t .text$_ZNK7sc_core9sc_signalIN5sc_dt8sc_logicELNS_16sc_writer_policyE3EE7negedgeEv
60649714 T __ZNK7sc_core9sc_signalIN5sc_dt8sc_logicELNS_16sc_writer_policyE3EE7negedgeEv
6064974c t .text$_ZNK7sc_core9sc_signalIN5sc_dt8sc_logicELNS_16sc_writer_policyE3EE7posedgeEv
6064974c T __ZNK7sc_core9sc_signalIN5sc_dt8sc_logicELNS_16sc_writer_policyE3EE7posedgeEv
60649784 t .text$_ZNK7sc_core9sc_signalIN5sc_dt8sc_logicELNS_16sc_writer_policyE3EEcvRKS2_Ev
60649784 T __ZNK7sc_core9sc_signalIN5sc_dt8sc_logicELNS_16sc_writer_policyE3EEcvRKS2_Ev
60649798 t .text$_ZNK7sc_core9sc_signalIbLNS_16sc_writer_policyE0EE12get_data_refEv
60649798 T __ZNK7sc_core9sc_signalIbLNS_16sc_writer_policyE0EE12get_data_refEv
606497ac t .text$_ZNK7sc_core9sc_signalIbLNS_16sc_writer_policyE0EE13default_eventEv
606497ac T __ZNK7sc_core9sc_signalIbLNS_16sc_writer_policyE0EE13default_eventEv
606497cc t .text$_ZNK7sc_core9sc_signalIbLNS_16sc_writer_policyE0EE13get_new_valueEv
606497cc T __ZNK7sc_core9sc_signalIbLNS_16sc_writer_policyE0EE13get_new_valueEv
606497e0 t .text$_ZNK7sc_core9sc_signalIbLNS_16sc_writer_policyE0EE13negedge_eventEv
606497e0 T __ZNK7sc_core9sc_signalIbLNS_16sc_writer_policyE0EE13negedge_eventEv
606497fc t .text$_ZNK7sc_core9sc_signalIbLNS_16sc_writer_policyE0EE13posedge_eventEv
606497fc T __ZNK7sc_core9sc_signalIbLNS_16sc_writer_policyE0EE13posedge_eventEv
60649818 t .text$_ZNK7sc_core9sc_signalIbLNS_16sc_writer_policyE0EE17get_writer_policyEv
60649818 T __ZNK7sc_core9sc_signalIbLNS_16sc_writer_policyE0EE17get_writer_policyEv
60649824 t .text$_ZNK7sc_core9sc_signalIbLNS_16sc_writer_policyE0EE19value_changed_eventEv
60649824 T __ZNK7sc_core9sc_signalIbLNS_16sc_writer_policyE0EE19value_changed_eventEv
60649840 t .text$_ZNK7sc_core9sc_signalIbLNS_16sc_writer_policyE0EE4dumpERSo
60649840 T __ZNK7sc_core9sc_signalIbLNS_16sc_writer_policyE0EE4dumpERSo
6064990c t .text$_ZNK7sc_core9sc_signalIbLNS_16sc_writer_policyE0EE4kindEv
6064990c T __ZNK7sc_core9sc_signalIbLNS_16sc_writer_policyE0EE4kindEv
60649918 t .text$_ZNK7sc_core9sc_signalIbLNS_16sc_writer_policyE0EE4readEv
60649918 T __ZNK7sc_core9sc_signalIbLNS_16sc_writer_policyE0EE4readEv
60649924 t .text$_ZNK7sc_core9sc_signalIbLNS_16sc_writer_policyE0EE5eventEv
60649924 T __ZNK7sc_core9sc_signalIbLNS_16sc_writer_policyE0EE5eventEv
60649984 t .text$_ZNK7sc_core9sc_signalIbLNS_16sc_writer_policyE0EE5printERSo
60649984 T __ZNK7sc_core9sc_signalIbLNS_16sc_writer_policyE0EE5printERSo
606499a0 t .text$_ZNK7sc_core9sc_signalIbLNS_16sc_writer_policyE0EE5traceEPNS_13sc_trace_fileE
606499a0 T __ZNK7sc_core9sc_signalIbLNS_16sc_writer_policyE0EE5traceEPNS_13sc_trace_fileE
606499b0 t .text$_ZNK7sc_core9sc_signalIbLNS_16sc_writer_policyE0EE7negedgeEv
606499b0 T __ZNK7sc_core9sc_signalIbLNS_16sc_writer_policyE0EE7negedgeEv
606499f4 t .text$_ZNK7sc_core9sc_signalIbLNS_16sc_writer_policyE0EE7posedgeEv
606499f4 T __ZNK7sc_core9sc_signalIbLNS_16sc_writer_policyE0EE7posedgeEv
60649a38 t .text$_ZNK7sc_core9sc_signalIbLNS_16sc_writer_policyE0EE8is_clockEv
60649a38 T __ZNK7sc_core9sc_signalIbLNS_16sc_writer_policyE0EE8is_clockEv
60649a48 t .text$_ZNK7sc_core9sc_signalIbLNS_16sc_writer_policyE0EE8is_resetEv
60649a48 T __ZNK7sc_core9sc_signalIbLNS_16sc_writer_policyE0EE8is_resetEv
60649a9c t .text$_ZNK7sc_core9sc_signalIbLNS_16sc_writer_policyE0EEcvRKbEv
60649a9c T __ZNK7sc_core9sc_signalIbLNS_16sc_writer_policyE0EEcvRKbEv
60649ab0 t .text$_ZNK7sc_core9sc_signalIbLNS_16sc_writer_policyE1EE12get_data_refEv
60649ab0 T __ZNK7sc_core9sc_signalIbLNS_16sc_writer_policyE1EE12get_data_refEv
60649ac4 t .text$_ZNK7sc_core9sc_signalIbLNS_16sc_writer_policyE1EE13default_eventEv
60649ac4 T __ZNK7sc_core9sc_signalIbLNS_16sc_writer_policyE1EE13default_eventEv
60649ad4 t .text$_ZNK7sc_core9sc_signalIbLNS_16sc_writer_policyE1EE13get_new_valueEv
60649ad4 T __ZNK7sc_core9sc_signalIbLNS_16sc_writer_policyE1EE13get_new_valueEv
60649ae8 t .text$_ZNK7sc_core9sc_signalIbLNS_16sc_writer_policyE1EE13negedge_eventEv
60649ae8 T __ZNK7sc_core9sc_signalIbLNS_16sc_writer_policyE1EE13negedge_eventEv
60649b04 t .text$_ZNK7sc_core9sc_signalIbLNS_16sc_writer_policyE1EE13posedge_eventEv
60649b04 T __ZNK7sc_core9sc_signalIbLNS_16sc_writer_policyE1EE13posedge_eventEv
60649b20 t .text$_ZNK7sc_core9sc_signalIbLNS_16sc_writer_policyE1EE17get_writer_policyEv
60649b20 T __ZNK7sc_core9sc_signalIbLNS_16sc_writer_policyE1EE17get_writer_policyEv
60649b2c t .text$_ZNK7sc_core9sc_signalIbLNS_16sc_writer_policyE1EE19value_changed_eventEv
60649b2c T __ZNK7sc_core9sc_signalIbLNS_16sc_writer_policyE1EE19value_changed_eventEv
60649b48 t .text$_ZNK7sc_core9sc_signalIbLNS_16sc_writer_policyE1EE4dumpERSo
60649b48 T __ZNK7sc_core9sc_signalIbLNS_16sc_writer_policyE1EE4dumpERSo
60649c14 t .text$_ZNK7sc_core9sc_signalIbLNS_16sc_writer_policyE1EE4kindEv
60649c14 T __ZNK7sc_core9sc_signalIbLNS_16sc_writer_policyE1EE4kindEv
60649c20 t .text$_ZNK7sc_core9sc_signalIbLNS_16sc_writer_policyE1EE4readEv
60649c20 T __ZNK7sc_core9sc_signalIbLNS_16sc_writer_policyE1EE4readEv
60649c2c t .text$_ZNK7sc_core9sc_signalIbLNS_16sc_writer_policyE1EE5eventEv
60649c2c T __ZNK7sc_core9sc_signalIbLNS_16sc_writer_policyE1EE5eventEv
60649c64 t .text$_ZNK7sc_core9sc_signalIbLNS_16sc_writer_policyE1EE5printERSo
60649c64 T __ZNK7sc_core9sc_signalIbLNS_16sc_writer_policyE1EE5printERSo
60649c80 t .text$_ZNK7sc_core9sc_signalIbLNS_16sc_writer_policyE1EE5traceEPNS_13sc_trace_fileE
60649c80 T __ZNK7sc_core9sc_signalIbLNS_16sc_writer_policyE1EE5traceEPNS_13sc_trace_fileE
60649c8c t .text$_ZNK7sc_core9sc_signalIbLNS_16sc_writer_policyE1EE7negedgeEv
60649c8c T __ZNK7sc_core9sc_signalIbLNS_16sc_writer_policyE1EE7negedgeEv
60649cbc t .text$_ZNK7sc_core9sc_signalIbLNS_16sc_writer_policyE1EE7posedgeEv
60649cbc T __ZNK7sc_core9sc_signalIbLNS_16sc_writer_policyE1EE7posedgeEv
60649cec t .text$_ZNK7sc_core9sc_signalIbLNS_16sc_writer_policyE1EE8is_clockEv
60649cec T __ZNK7sc_core9sc_signalIbLNS_16sc_writer_policyE1EE8is_clockEv
60649cfc t .text$_ZNK7sc_core9sc_signalIbLNS_16sc_writer_policyE1EE8is_resetEv
60649cfc T __ZNK7sc_core9sc_signalIbLNS_16sc_writer_policyE1EE8is_resetEv
60649d48 t .text$_ZNK7sc_core9sc_signalIbLNS_16sc_writer_policyE1EEcvRKbEv
60649d48 T __ZNK7sc_core9sc_signalIbLNS_16sc_writer_policyE1EEcvRKbEv
60649d5c t .text$_ZNK7sc_core9sc_signalIbLNS_16sc_writer_policyE3EE12get_data_refEv
60649d5c T __ZNK7sc_core9sc_signalIbLNS_16sc_writer_policyE3EE12get_data_refEv
60649d70 t .text$_ZNK7sc_core9sc_signalIbLNS_16sc_writer_policyE3EE13default_eventEv
60649d70 T __ZNK7sc_core9sc_signalIbLNS_16sc_writer_policyE3EE13default_eventEv
60649d80 t .text$_ZNK7sc_core9sc_signalIbLNS_16sc_writer_policyE3EE13get_new_valueEv
60649d80 T __ZNK7sc_core9sc_signalIbLNS_16sc_writer_policyE3EE13get_new_valueEv
60649d94 t .text$_ZNK7sc_core9sc_signalIbLNS_16sc_writer_policyE3EE13negedge_eventEv
60649d94 T __ZNK7sc_core9sc_signalIbLNS_16sc_writer_policyE3EE13negedge_eventEv
60649db0 t .text$_ZNK7sc_core9sc_signalIbLNS_16sc_writer_policyE3EE13posedge_eventEv
60649db0 T __ZNK7sc_core9sc_signalIbLNS_16sc_writer_policyE3EE13posedge_eventEv
60649dcc t .text$_ZNK7sc_core9sc_signalIbLNS_16sc_writer_policyE3EE17get_writer_policyEv
60649dcc T __ZNK7sc_core9sc_signalIbLNS_16sc_writer_policyE3EE17get_writer_policyEv
60649dd8 t .text$_ZNK7sc_core9sc_signalIbLNS_16sc_writer_policyE3EE19value_changed_eventEv
60649dd8 T __ZNK7sc_core9sc_signalIbLNS_16sc_writer_policyE3EE19value_changed_eventEv
60649df4 t .text$_ZNK7sc_core9sc_signalIbLNS_16sc_writer_policyE3EE4dumpERSo
60649df4 T __ZNK7sc_core9sc_signalIbLNS_16sc_writer_policyE3EE4dumpERSo
60649ec0 t .text$_ZNK7sc_core9sc_signalIbLNS_16sc_writer_policyE3EE4kindEv
60649ec0 T __ZNK7sc_core9sc_signalIbLNS_16sc_writer_policyE3EE4kindEv
60649ecc t .text$_ZNK7sc_core9sc_signalIbLNS_16sc_writer_policyE3EE4readEv
60649ecc T __ZNK7sc_core9sc_signalIbLNS_16sc_writer_policyE3EE4readEv
60649ed8 t .text$_ZNK7sc_core9sc_signalIbLNS_16sc_writer_policyE3EE5eventEv
60649ed8 T __ZNK7sc_core9sc_signalIbLNS_16sc_writer_policyE3EE5eventEv
60649f08 t .text$_ZNK7sc_core9sc_signalIbLNS_16sc_writer_policyE3EE5printERSo
60649f08 T __ZNK7sc_core9sc_signalIbLNS_16sc_writer_policyE3EE5printERSo
60649f24 t .text$_ZNK7sc_core9sc_signalIbLNS_16sc_writer_policyE3EE5traceEPNS_13sc_trace_fileE
60649f24 T __ZNK7sc_core9sc_signalIbLNS_16sc_writer_policyE3EE5traceEPNS_13sc_trace_fileE
60649f30 t .text$_ZNK7sc_core9sc_signalIbLNS_16sc_writer_policyE3EE7negedgeEv
60649f30 T __ZNK7sc_core9sc_signalIbLNS_16sc_writer_policyE3EE7negedgeEv
60649f60 t .text$_ZNK7sc_core9sc_signalIbLNS_16sc_writer_policyE3EE7posedgeEv
60649f60 T __ZNK7sc_core9sc_signalIbLNS_16sc_writer_policyE3EE7posedgeEv
60649f90 t .text$_ZNK7sc_core9sc_signalIbLNS_16sc_writer_policyE3EE8is_clockEv
60649f90 T __ZNK7sc_core9sc_signalIbLNS_16sc_writer_policyE3EE8is_clockEv
60649fa0 t .text$_ZNK7sc_core9sc_signalIbLNS_16sc_writer_policyE3EE8is_resetEv
60649fa0 T __ZNK7sc_core9sc_signalIbLNS_16sc_writer_policyE3EE8is_resetEv
60649fec t .text$_ZNK7sc_core9sc_signalIbLNS_16sc_writer_policyE3EEcvRKbEv
60649fec T __ZNK7sc_core9sc_signalIbLNS_16sc_writer_policyE3EEcvRKbEv
6064a000 t .text$_ZNK8ptrarrayIPKN7sc_core8sc_eventEEixEi
6064a000 T __ZNK8ptrarrayIPKN7sc_core8sc_eventEEixEi
6064a01c t .text$_ZNK8ptrarrayIPN7sc_core12sc_interfaceEEixEi
6064a01c T __ZNK8ptrarrayIPN7sc_core12sc_interfaceEEixEi
6064a038 t .text$_ZNK8ptrarrayIPN7sc_core12sc_port_baseEEixEi
6064a038 T __ZNK8ptrarrayIPN7sc_core12sc_port_baseEEixEi
6064a054 t .text$_ZNK8ptrarrayIPN7sc_core14sc_export_baseEEixEi
6064a054 T __ZNK8ptrarrayIPN7sc_core14sc_export_baseEEixEi
6064a070 t .text$_ZNK8ptrarrayIPN7sc_core15sc_event_finderEEixEi
6064a070 T __ZNK8ptrarrayIPN7sc_core15sc_event_finderEEixEi
6064a08c t .text$_ZNK8ptrarrayIPN7sc_core15sc_prim_channelEEixEi
6064a08c T __ZNK8ptrarrayIPN7sc_core15sc_prim_channelEEixEi
6064a0a8 t .text$_ZNK8ptrarrayIPN7sc_core15sc_signal_in_ifIN5sc_dt6sc_intILi16EEEEEE4sizeEv
6064a0a8 T __ZNK8ptrarrayIPN7sc_core15sc_signal_in_ifIN5sc_dt6sc_intILi16EEEEEE4sizeEv
6064a0b4 t .text$_ZNK8ptrarrayIPN7sc_core15sc_signal_in_ifIN5sc_dt6sc_intILi16EEEEEEixEi
6064a0b4 T __ZNK8ptrarrayIPN7sc_core15sc_signal_in_ifIN5sc_dt6sc_intILi16EEEEEEixEi
6064a0e8 t .text$_ZNK8ptrarrayIPN7sc_core15sc_signal_in_ifIN5sc_dt7sc_uintILi4EEEEEE4sizeEv
6064a0e8 T __ZNK8ptrarrayIPN7sc_core15sc_signal_in_ifIN5sc_dt7sc_uintILi4EEEEEE4sizeEv
6064a0f4 t .text$_ZNK8ptrarrayIPN7sc_core15sc_signal_in_ifIN5sc_dt7sc_uintILi4EEEEEEixEi
6064a0f4 T __ZNK8ptrarrayIPN7sc_core15sc_signal_in_ifIN5sc_dt7sc_uintILi4EEEEEEixEi
6064a128 t .text$_ZNK8ptrarrayIPN7sc_core15sc_signal_in_ifIN5sc_dt8sc_logicEEEEixEi
6064a128 T __ZNK8ptrarrayIPN7sc_core15sc_signal_in_ifIN5sc_dt8sc_logicEEEEixEi
6064a144 t .text$_ZNK8ptrarrayIPN7sc_core15sc_signal_in_ifIbEEE4sizeEv
6064a144 T __ZNK8ptrarrayIPN7sc_core15sc_signal_in_ifIbEEE4sizeEv
6064a150 t .text$_ZNK8ptrarrayIPN7sc_core15sc_signal_in_ifIbEEEixEi
6064a150 T __ZNK8ptrarrayIPN7sc_core15sc_signal_in_ifIbEEEixEi
6064a184 t .text$_ZNK8ptrarrayIPN7sc_core15sc_trace_paramsEE4sizeEv
6064a184 T __ZNK8ptrarrayIPN7sc_core15sc_trace_paramsEE4sizeEv
6064a190 t .text$_ZNK8ptrarrayIPN7sc_core17sc_method_processEE10get_rawptrEv
6064a190 T __ZNK8ptrarrayIPN7sc_core17sc_method_processEE10get_rawptrEv
6064a19c t .text$_ZNK8ptrarrayIPN7sc_core17sc_thread_processEE10get_rawptrEv
6064a19c T __ZNK8ptrarrayIPN7sc_core17sc_thread_processEE10get_rawptrEv
6064a1a8 t .text$_ZNK8ptrarrayIPN7sc_core18sc_signal_inout_ifIN5sc_dt6sc_intILi16EEEEEE4sizeEv
6064a1a8 T __ZNK8ptrarrayIPN7sc_core18sc_signal_inout_ifIN5sc_dt6sc_intILi16EEEEEE4sizeEv
6064a1b4 t .text$_ZNK8ptrarrayIPN7sc_core18sc_signal_inout_ifIN5sc_dt6sc_intILi16EEEEEEixEi
6064a1b4 T __ZNK8ptrarrayIPN7sc_core18sc_signal_inout_ifIN5sc_dt6sc_intILi16EEEEEEixEi
6064a1e8 t .text$_ZNK8ptrarrayIPN7sc_core18sc_signal_inout_ifIN5sc_dt7sc_uintILi4EEEEEE4sizeEv
6064a1e8 T __ZNK8ptrarrayIPN7sc_core18sc_signal_inout_ifIN5sc_dt7sc_uintILi4EEEEEE4sizeEv
6064a1f4 t .text$_ZNK8ptrarrayIPN7sc_core18sc_signal_inout_ifIN5sc_dt7sc_uintILi4EEEEEEixEi
6064a1f4 T __ZNK8ptrarrayIPN7sc_core18sc_signal_inout_ifIN5sc_dt7sc_uintILi4EEEEEEixEi
6064a228 t .text$_ZNK8ptrarrayIPN7sc_core18sc_signal_inout_ifIN5sc_dt8sc_logicEEEEixEi
6064a228 T __ZNK8ptrarrayIPN7sc_core18sc_signal_inout_ifIN5sc_dt8sc_logicEEEEixEi
6064a244 t .text$_ZNK8ptrarrayIPN7sc_core18sc_signal_inout_ifIbEEEixEi
6064a244 T __ZNK8ptrarrayIPN7sc_core18sc_signal_inout_ifIbEEEixEi
6064a260 t .text$_ZNK8ptrarrayIPN7sc_core19sc_spawn_reset_baseEEixEi
6064a260 T __ZNK8ptrarrayIPN7sc_core19sc_spawn_reset_baseEEixEi
6064a27c t .text$_ZNK8ptrarrayIPN7sc_core8sc_eventEE10get_rawptrEv
6064a27c T __ZNK8ptrarrayIPN7sc_core8sc_eventEE10get_rawptrEv
6064a288 t .text$_ZNK8ptrarrayIPN7sc_core9sc_moduleEEixEi
6064a288 T __ZNK8ptrarrayIPN7sc_core9sc_moduleEEixEi
6064a2a4 t .text$_ZNK9__gnu_cxx24__concurrence_lock_error4whatEv
6064a2a4 T __ZNK9__gnu_cxx24__concurrence_lock_error4whatEv
6064a2b0 t .text$_ZNK9__gnu_cxx26__concurrence_unlock_error4whatEv
6064a2b0 T __ZNK9__gnu_cxx26__concurrence_unlock_error4whatEv
6064a2bc t .text$_ZNKSbIwSt11char_traitsIwESaIwEE11_M_disjunctEPKw
6064a2bc T __ZNKSbIwSt11char_traitsIwESaIwEE11_M_disjunctEPKw
6064a2e4 t .text$_ZNKSbIwSt11char_traitsIwESaIwEE12find_last_ofEPKwj
6064a2e4 T __ZNKSbIwSt11char_traitsIwESaIwEE12find_last_ofEPKwj
6064a308 t .text$_ZNKSbIwSt11char_traitsIwESaIwEE12find_last_ofEPKwjj
6064a308 T __ZNKSbIwSt11char_traitsIwESaIwEE12find_last_ofEPKwjj
6064a378 t .text$_ZNKSbIwSt11char_traitsIwESaIwEE12find_last_ofERKS2_j
6064a378 T __ZNKSbIwSt11char_traitsIwESaIwEE12find_last_ofERKS2_j
6064a394 t .text$_ZNKSbIwSt11char_traitsIwESaIwEE12find_last_ofEwj
6064a394 T __ZNKSbIwSt11char_traitsIwESaIwEE12find_last_ofEwj
6064a3a4 t .text$_ZNKSbIwSt11char_traitsIwESaIwEE13find_first_ofEPKwj
6064a3a4 T __ZNKSbIwSt11char_traitsIwESaIwEE13find_first_ofEPKwj
6064a3c8 t .text$_ZNKSbIwSt11char_traitsIwESaIwEE13find_first_ofEPKwjj
6064a3c8 T __ZNKSbIwSt11char_traitsIwESaIwEE13find_first_ofEPKwjj
6064a42c t .text$_ZNKSbIwSt11char_traitsIwESaIwEE13find_first_ofERKS2_j
6064a42c T __ZNKSbIwSt11char_traitsIwESaIwEE13find_first_ofERKS2_j
6064a448 t .text$_ZNKSbIwSt11char_traitsIwESaIwEE13find_first_ofEwj
6064a448 T __ZNKSbIwSt11char_traitsIwESaIwEE13find_first_ofEwj
6064a458 t .text$_ZNKSbIwSt11char_traitsIwESaIwEE13get_allocatorEv
6064a458 T __ZNKSbIwSt11char_traitsIwESaIwEE13get_allocatorEv
6064a464 t .text$_ZNKSbIwSt11char_traitsIwESaIwEE15_M_check_lengthEjjPKc
6064a464 T __ZNKSbIwSt11char_traitsIwESaIwEE15_M_check_lengthEjjPKc
6064a490 t .text$_ZNKSbIwSt11char_traitsIwESaIwEE16find_last_not_ofEPKwj
6064a490 T __ZNKSbIwSt11char_traitsIwESaIwEE16find_last_not_ofEPKwj
6064a4b4 t .text$_ZNKSbIwSt11char_traitsIwESaIwEE16find_last_not_ofEPKwjj
6064a4b4 T __ZNKSbIwSt11char_traitsIwESaIwEE16find_last_not_ofEPKwjj
6064a520 t .text$_ZNKSbIwSt11char_traitsIwESaIwEE16find_last_not_ofERKS2_j
6064a520 T __ZNKSbIwSt11char_traitsIwESaIwEE16find_last_not_ofERKS2_j
6064a53c t .text$_ZNKSbIwSt11char_traitsIwESaIwEE16find_last_not_ofEwj
6064a53c T __ZNKSbIwSt11char_traitsIwESaIwEE16find_last_not_ofEwj
6064a580 t .text$_ZNKSbIwSt11char_traitsIwESaIwEE17find_first_not_ofEPKwj
6064a580 T __ZNKSbIwSt11char_traitsIwESaIwEE17find_first_not_ofEPKwj
6064a5a4 t .text$_ZNKSbIwSt11char_traitsIwESaIwEE17find_first_not_ofEPKwjj
6064a5a4 T __ZNKSbIwSt11char_traitsIwESaIwEE17find_first_not_ofEPKwjj
6064a604 t .text$_ZNKSbIwSt11char_traitsIwESaIwEE17find_first_not_ofERKS2_j
6064a604 T __ZNKSbIwSt11char_traitsIwESaIwEE17find_first_not_ofERKS2_j
6064a620 t .text$_ZNKSbIwSt11char_traitsIwESaIwEE17find_first_not_ofEwj
6064a620 T __ZNKSbIwSt11char_traitsIwESaIwEE17find_first_not_ofEwj
6064a668 t .text$_ZNKSbIwSt11char_traitsIwESaIwEE2atEj
6064a668 T __ZNKSbIwSt11char_traitsIwESaIwEE2atEj
6064a690 t .text$_ZNKSbIwSt11char_traitsIwESaIwEE3endEv
6064a690 T __ZNKSbIwSt11char_traitsIwESaIwEE3endEv
6064a6a0 t .text$_ZNKSbIwSt11char_traitsIwESaIwEE4_Rep12_M_is_leakedEv
6064a6a0 T __ZNKSbIwSt11char_traitsIwESaIwEE4_Rep12_M_is_leakedEv
6064a6b0 t .text$_ZNKSbIwSt11char_traitsIwESaIwEE4_Rep12_M_is_sharedEv
6064a6b0 T __ZNKSbIwSt11char_traitsIwESaIwEE4_Rep12_M_is_sharedEv
6064a6c4 t .text$_ZNKSbIwSt11char_traitsIwESaIwEE4copyEPwjj
6064a6c4 T __ZNKSbIwSt11char_traitsIwESaIwEE4copyEPwjj
6064a72c t .text$_ZNKSbIwSt11char_traitsIwESaIwEE4dataEv
6064a72c T __ZNKSbIwSt11char_traitsIwESaIwEE4dataEv
6064a738 t .text$_ZNKSbIwSt11char_traitsIwESaIwEE4findEPKwj
6064a738 T __ZNKSbIwSt11char_traitsIwESaIwEE4findEPKwj
6064a75c t .text$_ZNKSbIwSt11char_traitsIwESaIwEE4findEPKwjj
6064a75c T __ZNKSbIwSt11char_traitsIwESaIwEE4findEPKwjj
6064a7e0 t .text$_ZNKSbIwSt11char_traitsIwESaIwEE4findERKS2_j
6064a7e0 T __ZNKSbIwSt11char_traitsIwESaIwEE4findERKS2_j
6064a7fc t .text$_ZNKSbIwSt11char_traitsIwESaIwEE4findEwj
6064a7fc T __ZNKSbIwSt11char_traitsIwESaIwEE4findEwj
6064a844 t .text$_ZNKSbIwSt11char_traitsIwESaIwEE4rendEv
6064a844 T __ZNKSbIwSt11char_traitsIwESaIwEE4rendEv
6064a858 t .text$_ZNKSbIwSt11char_traitsIwESaIwEE4sizeEv
6064a858 T __ZNKSbIwSt11char_traitsIwESaIwEE4sizeEv
6064a868 t .text$_ZNKSbIwSt11char_traitsIwESaIwEE5beginEv
6064a868 T __ZNKSbIwSt11char_traitsIwESaIwEE5beginEv
6064a874 t .text$_ZNKSbIwSt11char_traitsIwESaIwEE5c_strEv
6064a874 T __ZNKSbIwSt11char_traitsIwESaIwEE5c_strEv
6064a880 t .text$_ZNKSbIwSt11char_traitsIwESaIwEE5emptyEv
6064a880 T __ZNKSbIwSt11char_traitsIwESaIwEE5emptyEv
6064a898 t .text$_ZNKSbIwSt11char_traitsIwESaIwEE5rfindEPKwj
6064a898 T __ZNKSbIwSt11char_traitsIwESaIwEE5rfindEPKwj
6064a8bc t .text$_ZNKSbIwSt11char_traitsIwESaIwEE5rfindEPKwjj
6064a8bc T __ZNKSbIwSt11char_traitsIwESaIwEE5rfindEPKwjj
6064a928 t .text$_ZNKSbIwSt11char_traitsIwESaIwEE5rfindERKS2_j
6064a928 T __ZNKSbIwSt11char_traitsIwESaIwEE5rfindERKS2_j
6064a944 t .text$_ZNKSbIwSt11char_traitsIwESaIwEE5rfindEwj
6064a944 T __ZNKSbIwSt11char_traitsIwESaIwEE5rfindEwj
6064a9a0 t .text$_ZNKSbIwSt11char_traitsIwESaIwEE6_M_repEv
6064a9a0 T __ZNKSbIwSt11char_traitsIwESaIwEE6_M_repEv
6064a9b0 t .text$_ZNKSbIwSt11char_traitsIwESaIwEE6lengthEv
6064a9b0 T __ZNKSbIwSt11char_traitsIwESaIwEE6lengthEv
6064a9c0 t .text$_ZNKSbIwSt11char_traitsIwESaIwEE6rbeginEv
6064a9c0 T __ZNKSbIwSt11char_traitsIwESaIwEE6rbeginEv
6064a9d8 t .text$_ZNKSbIwSt11char_traitsIwESaIwEE6substrEjj
6064a9d8 T __ZNKSbIwSt11char_traitsIwESaIwEE6substrEjj
6064aa10 t .text$_ZNKSbIwSt11char_traitsIwESaIwEE7_M_dataEv
6064aa10 T __ZNKSbIwSt11char_traitsIwESaIwEE7_M_dataEv
6064aa1c t .text$_ZNKSbIwSt11char_traitsIwESaIwEE7_M_iendEv
6064aa1c T __ZNKSbIwSt11char_traitsIwESaIwEE7_M_iendEv
6064aa2c t .text$_ZNKSbIwSt11char_traitsIwESaIwEE7compareEPKw
6064aa2c T __ZNKSbIwSt11char_traitsIwESaIwEE7compareEPKw
6064aa80 t .text$_ZNKSbIwSt11char_traitsIwESaIwEE7compareERKS2_
6064aa80 T __ZNKSbIwSt11char_traitsIwESaIwEE7compareERKS2_
6064aac8 t .text$_ZNKSbIwSt11char_traitsIwESaIwEE7compareEjjPKw
6064aac8 T __ZNKSbIwSt11char_traitsIwESaIwEE7compareEjjPKw
6064ab4c t .text$_ZNKSbIwSt11char_traitsIwESaIwEE7compareEjjPKwj
6064ab4c T __ZNKSbIwSt11char_traitsIwESaIwEE7compareEjjPKwj
6064abbc t .text$_ZNKSbIwSt11char_traitsIwESaIwEE7compareEjjRKS2_
6064abbc T __ZNKSbIwSt11char_traitsIwESaIwEE7compareEjjRKS2_
6064ac30 t .text$_ZNKSbIwSt11char_traitsIwESaIwEE7compareEjjRKS2_jj
6064ac30 T __ZNKSbIwSt11char_traitsIwESaIwEE7compareEjjRKS2_jj
6064ace0 t .text$_ZNKSbIwSt11char_traitsIwESaIwEE8_M_checkEjPKc
6064ace0 T __ZNKSbIwSt11char_traitsIwESaIwEE8_M_checkEjPKc
6064ad04 t .text$_ZNKSbIwSt11char_traitsIwESaIwEE8_M_limitEjj
6064ad04 T __ZNKSbIwSt11char_traitsIwESaIwEE8_M_limitEjj
6064ad20 t .text$_ZNKSbIwSt11char_traitsIwESaIwEE8capacityEv
6064ad20 T __ZNKSbIwSt11char_traitsIwESaIwEE8capacityEv
6064ad30 t .text$_ZNKSbIwSt11char_traitsIwESaIwEE8max_sizeEv
6064ad30 T __ZNKSbIwSt11char_traitsIwESaIwEE8max_sizeEv
6064ad3c t .text$_ZNKSbIwSt11char_traitsIwESaIwEE9_M_ibeginEv
6064ad3c T __ZNKSbIwSt11char_traitsIwESaIwEE9_M_ibeginEv
6064ad48 t .text$_ZNKSbIwSt11char_traitsIwESaIwEEixEj
6064ad48 T __ZNKSbIwSt11char_traitsIwESaIwEEixEj
6064ad5c t .text$_ZNKSi6gcountEv
6064ad5c T __ZNKSi6gcountEv
6064ad68 t .text$_ZNKSi6sentrycvbEv
6064ad68 T __ZNKSi6sentrycvbEv
6064ad74 t .text$_ZNKSo6sentrycvbEv
6064ad74 T __ZNKSo6sentrycvbEv
6064ad80 t .text$_ZNKSs11_M_disjunctEPKc
6064ad80 T __ZNKSs11_M_disjunctEPKc
6064ada4 t .text$_ZNKSs12find_last_ofEPKcj
6064ada4 T __ZNKSs12find_last_ofEPKcj
6064add0 t .text$_ZNKSs12find_last_ofEPKcjj
6064add0 T __ZNKSs12find_last_ofEPKcjj
6064ae38 t .text$_ZNKSs12find_last_ofERKSsj
6064ae38 T __ZNKSs12find_last_ofERKSsj
6064ae54 t .text$_ZNKSs12find_last_ofEcj
6064ae54 T __ZNKSs12find_last_ofEcj
6064ae64 t .text$_ZNKSs13find_first_ofEPKcj
6064ae64 T __ZNKSs13find_first_ofEPKcj
6064ae90 t .text$_ZNKSs13find_first_ofEPKcjj
6064ae90 T __ZNKSs13find_first_ofEPKcjj
6064aeec t .text$_ZNKSs13find_first_ofERKSsj
6064aeec T __ZNKSs13find_first_ofERKSsj
6064af08 t .text$_ZNKSs13find_first_ofEcj
6064af08 T __ZNKSs13find_first_ofEcj
6064af18 t .text$_ZNKSs13get_allocatorEv
6064af18 T __ZNKSs13get_allocatorEv
6064af24 t .text$_ZNKSs15_M_check_lengthEjjPKc
6064af24 T __ZNKSs15_M_check_lengthEjjPKc
6064af50 t .text$_ZNKSs16find_last_not_ofEPKcj
6064af50 T __ZNKSs16find_last_not_ofEPKcj
6064af7c t .text$_ZNKSs16find_last_not_ofEPKcjj
6064af7c T __ZNKSs16find_last_not_ofEPKcjj
6064afe0 t .text$_ZNKSs16find_last_not_ofERKSsj
6064afe0 T __ZNKSs16find_last_not_ofERKSsj
6064affc t .text$_ZNKSs16find_last_not_ofEcj
6064affc T __ZNKSs16find_last_not_ofEcj
6064b03c t .text$_ZNKSs17find_first_not_ofEPKcj
6064b03c T __ZNKSs17find_first_not_ofEPKcj
6064b068 t .text$_ZNKSs17find_first_not_ofEPKcjj
6064b068 T __ZNKSs17find_first_not_ofEPKcjj
6064b0c0 t .text$_ZNKSs17find_first_not_ofERKSsj
6064b0c0 T __ZNKSs17find_first_not_ofERKSsj
6064b0dc t .text$_ZNKSs17find_first_not_ofEcj
6064b0dc T __ZNKSs17find_first_not_ofEcj
6064b118 t .text$_ZNKSs2atEj
6064b118 T __ZNKSs2atEj
6064b13c t .text$_ZNKSs3endEv
6064b13c T __ZNKSs3endEv
6064b14c t .text$_ZNKSs4_Rep12_M_is_leakedEv
6064b14c T __ZNKSs4_Rep12_M_is_leakedEv
6064b15c t .text$_ZNKSs4_Rep12_M_is_sharedEv
6064b15c T __ZNKSs4_Rep12_M_is_sharedEv
6064b170 t .text$_ZNKSs4copyEPcjj
6064b170 T __ZNKSs4copyEPcjj
6064b1d4 t .text$_ZNKSs4dataEv
6064b1d4 T __ZNKSs4dataEv
6064b1e0 t .text$_ZNKSs4findEPKcj
6064b1e0 T __ZNKSs4findEPKcj
6064b208 t .text$_ZNKSs4findEPKcjj
6064b208 T __ZNKSs4findEPKcjj
6064b290 t .text$_ZNKSs4findERKSsj
6064b290 T __ZNKSs4findERKSsj
6064b2ac t .text$_ZNKSs4findEcj
6064b2ac T __ZNKSs4findEcj
6064b2f4 t .text$_ZNKSs4rendEv
6064b2f4 T __ZNKSs4rendEv
6064b308 t .text$_ZNKSs4sizeEv
6064b308 T __ZNKSs4sizeEv
6064b318 t .text$_ZNKSs5beginEv
6064b318 T __ZNKSs5beginEv
6064b324 t .text$_ZNKSs5c_strEv
6064b324 T __ZNKSs5c_strEv
6064b330 t .text$_ZNKSs5emptyEv
6064b330 T __ZNKSs5emptyEv
6064b348 t .text$_ZNKSs5rfindEPKcj
6064b348 T __ZNKSs5rfindEPKcj
6064b370 t .text$_ZNKSs5rfindEPKcjj
6064b370 T __ZNKSs5rfindEPKcjj
6064b3d4 t .text$_ZNKSs5rfindERKSsj
6064b3d4 T __ZNKSs5rfindERKSsj
6064b3f0 t .text$_ZNKSs5rfindEcj
6064b3f0 T __ZNKSs5rfindEcj
6064b448 t .text$_ZNKSs6_M_repEv
6064b448 T __ZNKSs6_M_repEv
6064b458 t .text$_ZNKSs6lengthEv
6064b458 T __ZNKSs6lengthEv
6064b468 t .text$_ZNKSs6rbeginEv
6064b468 T __ZNKSs6rbeginEv
6064b47c t .text$_ZNKSs6substrEjj
6064b47c T __ZNKSs6substrEjj
6064b4b4 t .text$_ZNKSs7_M_dataEv
6064b4b4 T __ZNKSs7_M_dataEv
6064b4c0 t .text$_ZNKSs7_M_iendEv
6064b4c0 T __ZNKSs7_M_iendEv
6064b4d0 t .text$_ZNKSs7compareEPKc
6064b4d0 T __ZNKSs7compareEPKc
6064b534 t .text$_ZNKSs7compareERKSs
6064b534 T __ZNKSs7compareERKSs
6064b594 t .text$_ZNKSs7compareEjjPKc
6064b594 T __ZNKSs7compareEjjPKc
6064b624 t .text$_ZNKSs7compareEjjPKcj
6064b624 T __ZNKSs7compareEjjPKcj
6064b6a8 t .text$_ZNKSs7compareEjjRKSs
6064b6a8 T __ZNKSs7compareEjjRKSs
6064b728 t .text$_ZNKSs7compareEjjRKSsjj
6064b728 T __ZNKSs7compareEjjRKSsjj
6064b7e8 t .text$_ZNKSs8_M_checkEjPKc
6064b7e8 T __ZNKSs8_M_checkEjPKc
6064b80c t .text$_ZNKSs8_M_limitEjj
6064b80c T __ZNKSs8_M_limitEjj
6064b828 t .text$_ZNKSs8capacityEv
6064b828 T __ZNKSs8capacityEv
6064b838 t .text$_ZNKSs8max_sizeEv
6064b838 T __ZNKSs8max_sizeEv
6064b844 t .text$_ZNKSs9_M_ibeginEv
6064b844 T __ZNKSs9_M_ibeginEv
6064b850 t .text$_ZNKSsixEj
6064b850 T __ZNKSsixEj
6064b860 t .text$_ZNKSt10moneypunctIcLb0EE10neg_formatEv
6064b860 T __ZNKSt10moneypunctIcLb0EE10neg_formatEv
6064b874 t .text$_ZNKSt10moneypunctIcLb0EE10pos_formatEv
6064b874 T __ZNKSt10moneypunctIcLb0EE10pos_formatEv
6064b888 t .text$_ZNKSt10moneypunctIcLb0EE11curr_symbolEv
6064b888 T __ZNKSt10moneypunctIcLb0EE11curr_symbolEv
6064b8a8 t .text$_ZNKSt10moneypunctIcLb0EE11do_groupingEv
6064b8a8 T __ZNKSt10moneypunctIcLb0EE11do_groupingEv
6064b8dc t .text$_ZNKSt10moneypunctIcLb0EE11frac_digitsEv
6064b8dc T __ZNKSt10moneypunctIcLb0EE11frac_digitsEv
6064b8ec t .text$_ZNKSt10moneypunctIcLb0EE13decimal_pointEv
6064b8ec T __ZNKSt10moneypunctIcLb0EE13decimal_pointEv
6064b900 t .text$_ZNKSt10moneypunctIcLb0EE13do_neg_formatEv
6064b900 T __ZNKSt10moneypunctIcLb0EE13do_neg_formatEv
6064b910 t .text$_ZNKSt10moneypunctIcLb0EE13do_pos_formatEv
6064b910 T __ZNKSt10moneypunctIcLb0EE13do_pos_formatEv
6064b920 t .text$_ZNKSt10moneypunctIcLb0EE13negative_signEv
6064b920 T __ZNKSt10moneypunctIcLb0EE13negative_signEv
6064b940 t .text$_ZNKSt10moneypunctIcLb0EE13positive_signEv
6064b940 T __ZNKSt10moneypunctIcLb0EE13positive_signEv
6064b960 t .text$_ZNKSt10moneypunctIcLb0EE13thousands_sepEv
6064b960 T __ZNKSt10moneypunctIcLb0EE13thousands_sepEv
6064b974 t .text$_ZNKSt10moneypunctIcLb0EE14do_curr_symbolEv
6064b974 T __ZNKSt10moneypunctIcLb0EE14do_curr_symbolEv
6064b9a8 t .text$_ZNKSt10moneypunctIcLb0EE14do_frac_digitsEv
6064b9a8 T __ZNKSt10moneypunctIcLb0EE14do_frac_digitsEv
6064b9b8 t .text$_ZNKSt10moneypunctIcLb0EE16do_decimal_pointEv
6064b9b8 T __ZNKSt10moneypunctIcLb0EE16do_decimal_pointEv
6064b9c8 t .text$_ZNKSt10moneypunctIcLb0EE16do_negative_signEv
6064b9c8 T __ZNKSt10moneypunctIcLb0EE16do_negative_signEv
6064b9fc t .text$_ZNKSt10moneypunctIcLb0EE16do_positive_signEv
6064b9fc T __ZNKSt10moneypunctIcLb0EE16do_positive_signEv
6064ba30 t .text$_ZNKSt10moneypunctIcLb0EE16do_thousands_sepEv
6064ba30 T __ZNKSt10moneypunctIcLb0EE16do_thousands_sepEv
6064ba40 t .text$_ZNKSt10moneypunctIcLb0EE8groupingEv
6064ba40 T __ZNKSt10moneypunctIcLb0EE8groupingEv
6064ba60 t .text$_ZNKSt10moneypunctIcLb1EE10neg_formatEv
6064ba60 T __ZNKSt10moneypunctIcLb1EE10neg_formatEv
6064ba74 t .text$_ZNKSt10moneypunctIcLb1EE10pos_formatEv
6064ba74 T __ZNKSt10moneypunctIcLb1EE10pos_formatEv
6064ba88 t .text$_ZNKSt10moneypunctIcLb1EE11curr_symbolEv
6064ba88 T __ZNKSt10moneypunctIcLb1EE11curr_symbolEv
6064baa8 t .text$_ZNKSt10moneypunctIcLb1EE11do_groupingEv
6064baa8 T __ZNKSt10moneypunctIcLb1EE11do_groupingEv
6064badc t .text$_ZNKSt10moneypunctIcLb1EE11frac_digitsEv
6064badc T __ZNKSt10moneypunctIcLb1EE11frac_digitsEv
6064baec t .text$_ZNKSt10moneypunctIcLb1EE13decimal_pointEv
6064baec T __ZNKSt10moneypunctIcLb1EE13decimal_pointEv
6064bb00 t .text$_ZNKSt10moneypunctIcLb1EE13do_neg_formatEv
6064bb00 T __ZNKSt10moneypunctIcLb1EE13do_neg_formatEv
6064bb10 t .text$_ZNKSt10moneypunctIcLb1EE13do_pos_formatEv
6064bb10 T __ZNKSt10moneypunctIcLb1EE13do_pos_formatEv
6064bb20 t .text$_ZNKSt10moneypunctIcLb1EE13negative_signEv
6064bb20 T __ZNKSt10moneypunctIcLb1EE13negative_signEv
6064bb40 t .text$_ZNKSt10moneypunctIcLb1EE13positive_signEv
6064bb40 T __ZNKSt10moneypunctIcLb1EE13positive_signEv
6064bb60 t .text$_ZNKSt10moneypunctIcLb1EE13thousands_sepEv
6064bb60 T __ZNKSt10moneypunctIcLb1EE13thousands_sepEv
6064bb74 t .text$_ZNKSt10moneypunctIcLb1EE14do_curr_symbolEv
6064bb74 T __ZNKSt10moneypunctIcLb1EE14do_curr_symbolEv
6064bba8 t .text$_ZNKSt10moneypunctIcLb1EE14do_frac_digitsEv
6064bba8 T __ZNKSt10moneypunctIcLb1EE14do_frac_digitsEv
6064bbb8 t .text$_ZNKSt10moneypunctIcLb1EE16do_decimal_pointEv
6064bbb8 T __ZNKSt10moneypunctIcLb1EE16do_decimal_pointEv
6064bbc8 t .text$_ZNKSt10moneypunctIcLb1EE16do_negative_signEv
6064bbc8 T __ZNKSt10moneypunctIcLb1EE16do_negative_signEv
6064bbfc t .text$_ZNKSt10moneypunctIcLb1EE16do_positive_signEv
6064bbfc T __ZNKSt10moneypunctIcLb1EE16do_positive_signEv
6064bc30 t .text$_ZNKSt10moneypunctIcLb1EE16do_thousands_sepEv
6064bc30 T __ZNKSt10moneypunctIcLb1EE16do_thousands_sepEv
6064bc40 t .text$_ZNKSt10moneypunctIcLb1EE8groupingEv
6064bc40 T __ZNKSt10moneypunctIcLb1EE8groupingEv
6064bc60 t .text$_ZNKSt10moneypunctIwLb0EE10neg_formatEv
6064bc60 T __ZNKSt10moneypunctIwLb0EE10neg_formatEv
6064bc74 t .text$_ZNKSt10moneypunctIwLb0EE10pos_formatEv
6064bc74 T __ZNKSt10moneypunctIwLb0EE10pos_formatEv
6064bc88 t .text$_ZNKSt10moneypunctIwLb0EE11curr_symbolEv
6064bc88 T __ZNKSt10moneypunctIwLb0EE11curr_symbolEv
6064bca8 t .text$_ZNKSt10moneypunctIwLb0EE11do_groupingEv
6064bca8 T __ZNKSt10moneypunctIwLb0EE11do_groupingEv
6064bcdc t .text$_ZNKSt10moneypunctIwLb0EE11frac_digitsEv
6064bcdc T __ZNKSt10moneypunctIwLb0EE11frac_digitsEv
6064bcec t .text$_ZNKSt10moneypunctIwLb0EE13decimal_pointEv
6064bcec T __ZNKSt10moneypunctIwLb0EE13decimal_pointEv
6064bd00 t .text$_ZNKSt10moneypunctIwLb0EE13do_neg_formatEv
6064bd00 T __ZNKSt10moneypunctIwLb0EE13do_neg_formatEv
6064bd10 t .text$_ZNKSt10moneypunctIwLb0EE13do_pos_formatEv
6064bd10 T __ZNKSt10moneypunctIwLb0EE13do_pos_formatEv
6064bd20 t .text$_ZNKSt10moneypunctIwLb0EE13negative_signEv
6064bd20 T __ZNKSt10moneypunctIwLb0EE13negative_signEv
6064bd40 t .text$_ZNKSt10moneypunctIwLb0EE13positive_signEv
6064bd40 T __ZNKSt10moneypunctIwLb0EE13positive_signEv
6064bd60 t .text$_ZNKSt10moneypunctIwLb0EE13thousands_sepEv
6064bd60 T __ZNKSt10moneypunctIwLb0EE13thousands_sepEv
6064bd74 t .text$_ZNKSt10moneypunctIwLb0EE14do_curr_symbolEv
6064bd74 T __ZNKSt10moneypunctIwLb0EE14do_curr_symbolEv
6064bda8 t .text$_ZNKSt10moneypunctIwLb0EE14do_frac_digitsEv
6064bda8 T __ZNKSt10moneypunctIwLb0EE14do_frac_digitsEv
6064bdb8 t .text$_ZNKSt10moneypunctIwLb0EE16do_decimal_pointEv
6064bdb8 T __ZNKSt10moneypunctIwLb0EE16do_decimal_pointEv
6064bdc8 t .text$_ZNKSt10moneypunctIwLb0EE16do_negative_signEv
6064bdc8 T __ZNKSt10moneypunctIwLb0EE16do_negative_signEv
6064bdfc t .text$_ZNKSt10moneypunctIwLb0EE16do_positive_signEv
6064bdfc T __ZNKSt10moneypunctIwLb0EE16do_positive_signEv
6064be30 t .text$_ZNKSt10moneypunctIwLb0EE16do_thousands_sepEv
6064be30 T __ZNKSt10moneypunctIwLb0EE16do_thousands_sepEv
6064be40 t .text$_ZNKSt10moneypunctIwLb0EE8groupingEv
6064be40 T __ZNKSt10moneypunctIwLb0EE8groupingEv
6064be60 t .text$_ZNKSt10moneypunctIwLb1EE10neg_formatEv
6064be60 T __ZNKSt10moneypunctIwLb1EE10neg_formatEv
6064be74 t .text$_ZNKSt10moneypunctIwLb1EE10pos_formatEv
6064be74 T __ZNKSt10moneypunctIwLb1EE10pos_formatEv
6064be88 t .text$_ZNKSt10moneypunctIwLb1EE11curr_symbolEv
6064be88 T __ZNKSt10moneypunctIwLb1EE11curr_symbolEv
6064bea8 t .text$_ZNKSt10moneypunctIwLb1EE11do_groupingEv
6064bea8 T __ZNKSt10moneypunctIwLb1EE11do_groupingEv
6064bedc t .text$_ZNKSt10moneypunctIwLb1EE11frac_digitsEv
6064bedc T __ZNKSt10moneypunctIwLb1EE11frac_digitsEv
6064beec t .text$_ZNKSt10moneypunctIwLb1EE13decimal_pointEv
6064beec T __ZNKSt10moneypunctIwLb1EE13decimal_pointEv
6064bf00 t .text$_ZNKSt10moneypunctIwLb1EE13do_neg_formatEv
6064bf00 T __ZNKSt10moneypunctIwLb1EE13do_neg_formatEv
6064bf10 t .text$_ZNKSt10moneypunctIwLb1EE13do_pos_formatEv
6064bf10 T __ZNKSt10moneypunctIwLb1EE13do_pos_formatEv
6064bf20 t .text$_ZNKSt10moneypunctIwLb1EE13negative_signEv
6064bf20 T __ZNKSt10moneypunctIwLb1EE13negative_signEv
6064bf40 t .text$_ZNKSt10moneypunctIwLb1EE13positive_signEv
6064bf40 T __ZNKSt10moneypunctIwLb1EE13positive_signEv
6064bf60 t .text$_ZNKSt10moneypunctIwLb1EE13thousands_sepEv
6064bf60 T __ZNKSt10moneypunctIwLb1EE13thousands_sepEv
6064bf74 t .text$_ZNKSt10moneypunctIwLb1EE14do_curr_symbolEv
6064bf74 T __ZNKSt10moneypunctIwLb1EE14do_curr_symbolEv
6064bfa8 t .text$_ZNKSt10moneypunctIwLb1EE14do_frac_digitsEv
6064bfa8 T __ZNKSt10moneypunctIwLb1EE14do_frac_digitsEv
6064bfb8 t .text$_ZNKSt10moneypunctIwLb1EE16do_decimal_pointEv
6064bfb8 T __ZNKSt10moneypunctIwLb1EE16do_decimal_pointEv
6064bfc8 t .text$_ZNKSt10moneypunctIwLb1EE16do_negative_signEv
6064bfc8 T __ZNKSt10moneypunctIwLb1EE16do_negative_signEv
6064bffc t .text$_ZNKSt10moneypunctIwLb1EE16do_positive_signEv
6064bffc T __ZNKSt10moneypunctIwLb1EE16do_positive_signEv
6064c030 t .text$_ZNKSt10moneypunctIwLb1EE16do_thousands_sepEv
6064c030 T __ZNKSt10moneypunctIwLb1EE16do_thousands_sepEv
6064c040 t .text$_ZNKSt10moneypunctIwLb1EE8groupingEv
6064c040 T __ZNKSt10moneypunctIwLb1EE8groupingEv
6064c060 t .text$_ZNKSt11__timepunctIcE15_M_am_pm_formatEPKc
6064c060 T __ZNKSt11__timepunctIcE15_M_am_pm_formatEPKc
6064c068 t .text$_ZNKSt11__timepunctIcE15_M_date_formatsEPPKc
6064c068 T __ZNKSt11__timepunctIcE15_M_date_formatsEPPKc
6064c084 t .text$_ZNKSt11__timepunctIcE15_M_time_formatsEPPKc
6064c084 T __ZNKSt11__timepunctIcE15_M_time_formatsEPPKc
6064c0a0 t .text$_ZNKSt11__timepunctIcE19_M_days_abbreviatedEPPKc
6064c0a0 T __ZNKSt11__timepunctIcE19_M_days_abbreviatedEPPKc
6064c0d8 t .text$_ZNKSt11__timepunctIcE20_M_date_time_formatsEPPKc
6064c0d8 T __ZNKSt11__timepunctIcE20_M_date_time_formatsEPPKc
6064c0f4 t .text$_ZNKSt11__timepunctIcE21_M_months_abbreviatedEPPKc
6064c0f4 T __ZNKSt11__timepunctIcE21_M_months_abbreviatedEPPKc
6064c170 t .text$_ZNKSt11__timepunctIcE7_M_daysEPPKc
6064c170 T __ZNKSt11__timepunctIcE7_M_daysEPPKc
6064c1a8 t .text$_ZNKSt11__timepunctIcE8_M_am_pmEPPKc
6064c1a8 T __ZNKSt11__timepunctIcE8_M_am_pmEPPKc
6064c1c4 t .text$_ZNKSt11__timepunctIcE9_M_monthsEPPKc
6064c1c4 T __ZNKSt11__timepunctIcE9_M_monthsEPPKc
6064c228 t .text$_ZNKSt11__timepunctIwE15_M_am_pm_formatEPKw
6064c228 T __ZNKSt11__timepunctIwE15_M_am_pm_formatEPKw
6064c230 t .text$_ZNKSt11__timepunctIwE15_M_date_formatsEPPKw
6064c230 T __ZNKSt11__timepunctIwE15_M_date_formatsEPPKw
6064c24c t .text$_ZNKSt11__timepunctIwE15_M_time_formatsEPPKw
6064c24c T __ZNKSt11__timepunctIwE15_M_time_formatsEPPKw
6064c268 t .text$_ZNKSt11__timepunctIwE19_M_days_abbreviatedEPPKw
6064c268 T __ZNKSt11__timepunctIwE19_M_days_abbreviatedEPPKw
6064c2a0 t .text$_ZNKSt11__timepunctIwE20_M_date_time_formatsEPPKw
6064c2a0 T __ZNKSt11__timepunctIwE20_M_date_time_formatsEPPKw
6064c2bc t .text$_ZNKSt11__timepunctIwE21_M_months_abbreviatedEPPKw
6064c2bc T __ZNKSt11__timepunctIwE21_M_months_abbreviatedEPPKw
6064c338 t .text$_ZNKSt11__timepunctIwE7_M_daysEPPKw
6064c338 T __ZNKSt11__timepunctIwE7_M_daysEPPKw
6064c370 t .text$_ZNKSt11__timepunctIwE8_M_am_pmEPPKw
6064c370 T __ZNKSt11__timepunctIwE8_M_am_pmEPPKw
6064c38c t .text$_ZNKSt11__timepunctIwE9_M_monthsEPPKw
6064c38c T __ZNKSt11__timepunctIwE9_M_monthsEPPKw
6064c3f0 t .text$_ZNKSt13basic_filebufIcSt11char_traitsIcEE7is_openEv
6064c3f0 T __ZNKSt13basic_filebufIcSt11char_traitsIcEE7is_openEv
6064c420 t .text$_ZNKSt13basic_filebufIwSt11char_traitsIwEE7is_openEv
6064c420 T __ZNKSt13basic_filebufIwSt11char_traitsIwEE7is_openEv
6064c450 t .text$_ZNKSt13basic_fstreamIcSt11char_traitsIcEE5rdbufEv
6064c450 T __ZNKSt13basic_fstreamIcSt11char_traitsIcEE5rdbufEv
6064c45c t .text$_ZNKSt13basic_fstreamIcSt11char_traitsIcEE7is_openEv
6064c45c T __ZNKSt13basic_fstreamIcSt11char_traitsIcEE7is_openEv
6064c48c t .text$_ZNKSt13basic_fstreamIwSt11char_traitsIwEE5rdbufEv
6064c48c T __ZNKSt13basic_fstreamIwSt11char_traitsIwEE5rdbufEv
6064c498 t .text$_ZNKSt13basic_fstreamIwSt11char_traitsIwEE7is_openEv
6064c498 T __ZNKSt13basic_fstreamIwSt11char_traitsIwEE7is_openEv
6064c4c8 t .text$_ZNKSt13basic_istreamIwSt11char_traitsIwEE6gcountEv
6064c4c8 T __ZNKSt13basic_istreamIwSt11char_traitsIwEE6gcountEv
6064c4d4 t .text$_ZNKSt13basic_istreamIwSt11char_traitsIwEE6sentrycvbEv
6064c4d4 T __ZNKSt13basic_istreamIwSt11char_traitsIwEE6sentrycvbEv
6064c4e0 t .text$_ZNKSt13basic_ostreamIwSt11char_traitsIwEE6sentrycvbEv
6064c4e0 T __ZNKSt13basic_ostreamIwSt11char_traitsIwEE6sentrycvbEv
6064c4ec t .text$_ZNKSt14basic_ifstreamIcSt11char_traitsIcEE5rdbufEv
6064c4ec T __ZNKSt14basic_ifstreamIcSt11char_traitsIcEE5rdbufEv
6064c4f8 t .text$_ZNKSt14basic_ifstreamIcSt11char_traitsIcEE7is_openEv
6064c4f8 T __ZNKSt14basic_ifstreamIcSt11char_traitsIcEE7is_openEv
6064c528 t .text$_ZNKSt14basic_ifstreamIwSt11char_traitsIwEE5rdbufEv
6064c528 T __ZNKSt14basic_ifstreamIwSt11char_traitsIwEE5rdbufEv
6064c534 t .text$_ZNKSt14basic_ifstreamIwSt11char_traitsIwEE7is_openEv
6064c534 T __ZNKSt14basic_ifstreamIwSt11char_traitsIwEE7is_openEv
6064c564 t .text$_ZNKSt14basic_ofstreamIcSt11char_traitsIcEE5rdbufEv
6064c564 T __ZNKSt14basic_ofstreamIcSt11char_traitsIcEE5rdbufEv
6064c570 t .text$_ZNKSt14basic_ofstreamIcSt11char_traitsIcEE7is_openEv
6064c570 T __ZNKSt14basic_ofstreamIcSt11char_traitsIcEE7is_openEv
6064c5a0 t .text$_ZNKSt14basic_ofstreamIwSt11char_traitsIwEE5rdbufEv
6064c5a0 T __ZNKSt14basic_ofstreamIwSt11char_traitsIwEE5rdbufEv
6064c5ac t .text$_ZNKSt14basic_ofstreamIwSt11char_traitsIwEE7is_openEv
6064c5ac T __ZNKSt14basic_ofstreamIwSt11char_traitsIwEE7is_openEv
6064c5dc t .text$_ZNKSt15basic_streambufIcSt11char_traitsIcEE4gptrEv
6064c5dc T __ZNKSt15basic_streambufIcSt11char_traitsIcEE4gptrEv
6064c5e8 t .text$_ZNKSt15basic_streambufIcSt11char_traitsIcEE4pptrEv
6064c5e8 T __ZNKSt15basic_streambufIcSt11char_traitsIcEE4pptrEv
6064c5f4 t .text$_ZNKSt15basic_streambufIcSt11char_traitsIcEE5ebackEv
6064c5f4 T __ZNKSt15basic_streambufIcSt11char_traitsIcEE5ebackEv
6064c600 t .text$_ZNKSt15basic_streambufIcSt11char_traitsIcEE5egptrEv
6064c600 T __ZNKSt15basic_streambufIcSt11char_traitsIcEE5egptrEv
6064c60c t .text$_ZNKSt15basic_streambufIcSt11char_traitsIcEE5epptrEv
6064c60c T __ZNKSt15basic_streambufIcSt11char_traitsIcEE5epptrEv
6064c618 t .text$_ZNKSt15basic_streambufIcSt11char_traitsIcEE5pbaseEv
6064c618 T __ZNKSt15basic_streambufIcSt11char_traitsIcEE5pbaseEv
6064c624 t .text$_ZNKSt15basic_streambufIcSt11char_traitsIcEE6getlocEv
6064c624 T __ZNKSt15basic_streambufIcSt11char_traitsIcEE6getlocEv
6064c644 t .text$_ZNKSt15basic_streambufIwSt11char_traitsIwEE4gptrEv
6064c644 T __ZNKSt15basic_streambufIwSt11char_traitsIwEE4gptrEv
6064c650 t .text$_ZNKSt15basic_streambufIwSt11char_traitsIwEE4pptrEv
6064c650 T __ZNKSt15basic_streambufIwSt11char_traitsIwEE4pptrEv
6064c65c t .text$_ZNKSt15basic_streambufIwSt11char_traitsIwEE5ebackEv
6064c65c T __ZNKSt15basic_streambufIwSt11char_traitsIwEE5ebackEv
6064c668 t .text$_ZNKSt15basic_streambufIwSt11char_traitsIwEE5egptrEv
6064c668 T __ZNKSt15basic_streambufIwSt11char_traitsIwEE5egptrEv
6064c674 t .text$_ZNKSt15basic_streambufIwSt11char_traitsIwEE5epptrEv
6064c674 T __ZNKSt15basic_streambufIwSt11char_traitsIwEE5epptrEv
6064c680 t .text$_ZNKSt15basic_streambufIwSt11char_traitsIwEE5pbaseEv
6064c680 T __ZNKSt15basic_streambufIwSt11char_traitsIwEE5pbaseEv
6064c68c t .text$_ZNKSt15basic_streambufIwSt11char_traitsIwEE6getlocEv
6064c68c T __ZNKSt15basic_streambufIwSt11char_traitsIwEE6getlocEv
6064c6ac t .text$_ZNKSt15basic_stringbufIcSt11char_traitsIcESaIcEE3strEv
6064c6ac T __ZNKSt15basic_stringbufIcSt11char_traitsIcESaIcEE3strEv
6064c8e8 t .text$_ZNKSt15basic_stringbufIwSt11char_traitsIwESaIwEE3strEv
6064c8e8 T __ZNKSt15basic_stringbufIwSt11char_traitsIwESaIwEE3strEv
6064cb24 t .text$_ZNKSt18basic_stringstreamIcSt11char_traitsIcESaIcEE3strEv
6064cb24 T __ZNKSt18basic_stringstreamIcSt11char_traitsIcESaIcEE3strEv
6064cd60 t .text$_ZNKSt18basic_stringstreamIcSt11char_traitsIcESaIcEE5rdbufEv
6064cd60 T __ZNKSt18basic_stringstreamIcSt11char_traitsIcESaIcEE5rdbufEv
6064cd6c t .text$_ZNKSt18basic_stringstreamIwSt11char_traitsIwESaIwEE3strEv
6064cd6c T __ZNKSt18basic_stringstreamIwSt11char_traitsIwESaIwEE3strEv
6064cfa8 t .text$_ZNKSt18basic_stringstreamIwSt11char_traitsIwESaIwEE5rdbufEv
6064cfa8 T __ZNKSt18basic_stringstreamIwSt11char_traitsIwESaIwEE5rdbufEv
6064cfb4 t .text$_ZNKSt19basic_istringstreamIcSt11char_traitsIcESaIcEE3strEv
6064cfb4 T __ZNKSt19basic_istringstreamIcSt11char_traitsIcESaIcEE3strEv
6064d1f0 t .text$_ZNKSt19basic_istringstreamIcSt11char_traitsIcESaIcEE5rdbufEv
6064d1f0 T __ZNKSt19basic_istringstreamIcSt11char_traitsIcESaIcEE5rdbufEv
6064d1fc t .text$_ZNKSt19basic_istringstreamIwSt11char_traitsIwESaIwEE3strEv
6064d1fc T __ZNKSt19basic_istringstreamIwSt11char_traitsIwESaIwEE3strEv
6064d438 t .text$_ZNKSt19basic_istringstreamIwSt11char_traitsIwESaIwEE5rdbufEv
6064d438 T __ZNKSt19basic_istringstreamIwSt11char_traitsIwESaIwEE5rdbufEv
6064d444 t .text$_ZNKSt19basic_ostringstreamIcSt11char_traitsIcESaIcEE3strEv
6064d444 T __ZNKSt19basic_ostringstreamIcSt11char_traitsIcESaIcEE3strEv
6064d464 t .text$_ZNKSt19basic_ostringstreamIcSt11char_traitsIcESaIcEE5rdbufEv
6064d464 T __ZNKSt19basic_ostringstreamIcSt11char_traitsIcESaIcEE5rdbufEv
6064d470 t .text$_ZNKSt19basic_ostringstreamIwSt11char_traitsIwESaIwEE3strEv
6064d470 T __ZNKSt19basic_ostringstreamIwSt11char_traitsIwESaIwEE3strEv
6064d6ac t .text$_ZNKSt19basic_ostringstreamIwSt11char_traitsIwESaIwEE5rdbufEv
6064d6ac T __ZNKSt19basic_ostringstreamIwSt11char_traitsIwESaIwEE5rdbufEv
6064d6b8 t .text$_ZNKSt5ctypeIcE8do_widenEPKcS2_Pc
6064d6b8 T __ZNKSt5ctypeIcE8do_widenEPKcS2_Pc
6064d6d8 t .text$_ZNKSt5ctypeIcE8do_widenEc
6064d6d8 T __ZNKSt5ctypeIcE8do_widenEc
6064d6e4 t .text$_ZNKSt5ctypeIcE9do_narrowEPKcS2_cPc
6064d6e4 T __ZNKSt5ctypeIcE9do_narrowEPKcS2_cPc
6064d704 t .text$_ZNKSt5ctypeIcE9do_narrowEcc
6064d704 T __ZNKSt5ctypeIcE9do_narrowEcc
6064d710 t .text$_ZNKSt7collateIcE10do_compareEPKcS2_S2_S2_
6064d710 T __ZNKSt7collateIcE10do_compareEPKcS2_S2_S2_
6064d91c t .text$_ZNKSt7collateIcE12do_transformEPKcS2_
6064d91c T __ZNKSt7collateIcE12do_transformEPKcS2_
6064db78 t .text$_ZNKSt7collateIcE4hashEPKcS2_
6064db78 T __ZNKSt7collateIcE4hashEPKcS2_
6064db88 t .text$_ZNKSt7collateIcE7compareEPKcS2_S2_S2_
6064db88 T __ZNKSt7collateIcE7compareEPKcS2_S2_S2_
6064db98 t .text$_ZNKSt7collateIcE7do_hashEPKcS2_
6064db98 T __ZNKSt7collateIcE7do_hashEPKcS2_
6064dbc0 t .text$_ZNKSt7collateIcE9transformEPKcS2_
6064dbc0 T __ZNKSt7collateIcE9transformEPKcS2_
6064dbe4 t .text$_ZNKSt7collateIwE10do_compareEPKwS2_S2_S2_
6064dbe4 T __ZNKSt7collateIwE10do_compareEPKwS2_S2_S2_
6064dde8 t .text$_ZNKSt7collateIwE12do_transformEPKwS2_
6064dde8 T __ZNKSt7collateIwE12do_transformEPKwS2_
6064e044 t .text$_ZNKSt7collateIwE4hashEPKwS2_
6064e044 T __ZNKSt7collateIwE4hashEPKwS2_
6064e054 t .text$_ZNKSt7collateIwE7compareEPKwS2_S2_S2_
6064e054 T __ZNKSt7collateIwE7compareEPKwS2_S2_S2_
6064e064 t .text$_ZNKSt7collateIwE7do_hashEPKwS2_
6064e064 T __ZNKSt7collateIwE7do_hashEPKwS2_
6064e090 t .text$_ZNKSt7collateIwE9transformEPKwS2_
6064e090 T __ZNKSt7collateIwE9transformEPKwS2_
6064e0b4 t .text$_ZNKSt7num_getIcSt19istreambuf_iteratorIcSt11char_traitsIcEEE14_M_extract_intIjEES3_S3_S3_RSt8ios_baseRSt12_Ios_IostateRT_
6064e0b4 T __ZNKSt7num_getIcSt19istreambuf_iteratorIcSt11char_traitsIcEEE14_M_extract_intIjEES3_S3_S3_RSt8ios_baseRSt12_Ios_IostateRT_
6064edd4 t .text$_ZNKSt7num_getIcSt19istreambuf_iteratorIcSt11char_traitsIcEEE14_M_extract_intIlEES3_S3_S3_RSt8ios_baseRSt12_Ios_IostateRT_
6064edd4 T __ZNKSt7num_getIcSt19istreambuf_iteratorIcSt11char_traitsIcEEE14_M_extract_intIlEES3_S3_S3_RSt8ios_baseRSt12_Ios_IostateRT_
6064fb28 t .text$_ZNKSt7num_getIcSt19istreambuf_iteratorIcSt11char_traitsIcEEE14_M_extract_intImEES3_S3_S3_RSt8ios_baseRSt12_Ios_IostateRT_
6064fb28 T __ZNKSt7num_getIcSt19istreambuf_iteratorIcSt11char_traitsIcEEE14_M_extract_intImEES3_S3_S3_RSt8ios_baseRSt12_Ios_IostateRT_
60650848 t .text$_ZNKSt7num_getIcSt19istreambuf_iteratorIcSt11char_traitsIcEEE14_M_extract_intItEES3_S3_S3_RSt8ios_baseRSt12_Ios_IostateRT_
60650848 T __ZNKSt7num_getIcSt19istreambuf_iteratorIcSt11char_traitsIcEEE14_M_extract_intItEES3_S3_S3_RSt8ios_baseRSt12_Ios_IostateRT_
6065154c t .text$_ZNKSt7num_getIcSt19istreambuf_iteratorIcSt11char_traitsIcEEE14_M_extract_intIxEES3_S3_S3_RSt8ios_baseRSt12_Ios_IostateRT_
6065154c T __ZNKSt7num_getIcSt19istreambuf_iteratorIcSt11char_traitsIcEEE14_M_extract_intIxEES3_S3_S3_RSt8ios_baseRSt12_Ios_IostateRT_
606524c8 t .text$_ZNKSt7num_getIcSt19istreambuf_iteratorIcSt11char_traitsIcEEE14_M_extract_intIyEES3_S3_S3_RSt8ios_baseRSt12_Ios_IostateRT_
606524c8 T __ZNKSt7num_getIcSt19istreambuf_iteratorIcSt11char_traitsIcEEE14_M_extract_intIyEES3_S3_S3_RSt8ios_baseRSt12_Ios_IostateRT_
6065338c t .text$_ZNKSt7num_getIcSt19istreambuf_iteratorIcSt11char_traitsIcEEE16_M_extract_floatES3_S3_RSt8ios_baseRSt12_Ios_IostateRSs
6065338c T __ZNKSt7num_getIcSt19istreambuf_iteratorIcSt11char_traitsIcEEE16_M_extract_floatES3_S3_RSt8ios_baseRSt12_Ios_IostateRSs
606546c0 t .text$_ZNKSt7num_getIcSt19istreambuf_iteratorIcSt11char_traitsIcEEE3getES3_S3_RSt8ios_baseRSt12_Ios_IostateRPv
606546c0 T __ZNKSt7num_getIcSt19istreambuf_iteratorIcSt11char_traitsIcEEE3getES3_S3_RSt8ios_baseRSt12_Ios_IostateRPv
606546e8 t .text$_ZNKSt7num_getIcSt19istreambuf_iteratorIcSt11char_traitsIcEEE3getES3_S3_RSt8ios_baseRSt12_Ios_IostateRb
606546e8 T __ZNKSt7num_getIcSt19istreambuf_iteratorIcSt11char_traitsIcEEE3getES3_S3_RSt8ios_baseRSt12_Ios_IostateRb
60654710 t .text$_ZNKSt7num_getIcSt19istreambuf_iteratorIcSt11char_traitsIcEEE3getES3_S3_RSt8ios_baseRSt12_Ios_IostateRd
60654710 T __ZNKSt7num_getIcSt19istreambuf_iteratorIcSt11char_traitsIcEEE3getES3_S3_RSt8ios_baseRSt12_Ios_IostateRd
60654738 t .text$_ZNKSt7num_getIcSt19istreambuf_iteratorIcSt11char_traitsIcEEE3getES3_S3_RSt8ios_baseRSt12_Ios_IostateRe
60654738 T __ZNKSt7num_getIcSt19istreambuf_iteratorIcSt11char_traitsIcEEE3getES3_S3_RSt8ios_baseRSt12_Ios_IostateRe
60654760 t .text$_ZNKSt7num_getIcSt19istreambuf_iteratorIcSt11char_traitsIcEEE3getES3_S3_RSt8ios_baseRSt12_Ios_IostateRf
60654760 T __ZNKSt7num_getIcSt19istreambuf_iteratorIcSt11char_traitsIcEEE3getES3_S3_RSt8ios_baseRSt12_Ios_IostateRf
60654788 t .text$_ZNKSt7num_getIcSt19istreambuf_iteratorIcSt11char_traitsIcEEE3getES3_S3_RSt8ios_baseRSt12_Ios_IostateRj
60654788 T __ZNKSt7num_getIcSt19istreambuf_iteratorIcSt11char_traitsIcEEE3getES3_S3_RSt8ios_baseRSt12_Ios_IostateRj
606547b0 t .text$_ZNKSt7num_getIcSt19istreambuf_iteratorIcSt11char_traitsIcEEE3getES3_S3_RSt8ios_baseRSt12_Ios_IostateRl
606547b0 T __ZNKSt7num_getIcSt19istreambuf_iteratorIcSt11char_traitsIcEEE3getES3_S3_RSt8ios_baseRSt12_Ios_IostateRl
606547d8 t .text$_ZNKSt7num_getIcSt19istreambuf_iteratorIcSt11char_traitsIcEEE3getES3_S3_RSt8ios_baseRSt12_Ios_IostateRm
606547d8 T __ZNKSt7num_getIcSt19istreambuf_iteratorIcSt11char_traitsIcEEE3getES3_S3_RSt8ios_baseRSt12_Ios_IostateRm
60654800 t .text$_ZNKSt7num_getIcSt19istreambuf_iteratorIcSt11char_traitsIcEEE3getES3_S3_RSt8ios_baseRSt12_Ios_IostateRt
60654800 T __ZNKSt7num_getIcSt19istreambuf_iteratorIcSt11char_traitsIcEEE3getES3_S3_RSt8ios_baseRSt12_Ios_IostateRt
60654828 t .text$_ZNKSt7num_getIcSt19istreambuf_iteratorIcSt11char_traitsIcEEE3getES3_S3_RSt8ios_baseRSt12_Ios_IostateRx
60654828 T __ZNKSt7num_getIcSt19istreambuf_iteratorIcSt11char_traitsIcEEE3getES3_S3_RSt8ios_baseRSt12_Ios_IostateRx
60654850 t .text$_ZNKSt7num_getIcSt19istreambuf_iteratorIcSt11char_traitsIcEEE3getES3_S3_RSt8ios_baseRSt12_Ios_IostateRy
60654850 T __ZNKSt7num_getIcSt19istreambuf_iteratorIcSt11char_traitsIcEEE3getES3_S3_RSt8ios_baseRSt12_Ios_IostateRy
60654878 t .text$_ZNKSt7num_getIcSt19istreambuf_iteratorIcSt11char_traitsIcEEE6do_getES3_S3_RSt8ios_baseRSt12_Ios_IostateRPv
60654878 T __ZNKSt7num_getIcSt19istreambuf_iteratorIcSt11char_traitsIcEEE6do_getES3_S3_RSt8ios_baseRSt12_Ios_IostateRPv
606548e8 t .text$_ZNKSt7num_getIcSt19istreambuf_iteratorIcSt11char_traitsIcEEE6do_getES3_S3_RSt8ios_baseRSt12_Ios_IostateRb
606548e8 T __ZNKSt7num_getIcSt19istreambuf_iteratorIcSt11char_traitsIcEEE6do_getES3_S3_RSt8ios_baseRSt12_Ios_IostateRb
60654d5c t .text$_ZNKSt7num_getIcSt19istreambuf_iteratorIcSt11char_traitsIcEEE6do_getES3_S3_RSt8ios_baseRSt12_Ios_IostateRd
60654d5c T __ZNKSt7num_getIcSt19istreambuf_iteratorIcSt11char_traitsIcEEE6do_getES3_S3_RSt8ios_baseRSt12_Ios_IostateRd
60654e80 t .text$_ZNKSt7num_getIcSt19istreambuf_iteratorIcSt11char_traitsIcEEE6do_getES3_S3_RSt8ios_baseRSt12_Ios_IostateRe
60654e80 T __ZNKSt7num_getIcSt19istreambuf_iteratorIcSt11char_traitsIcEEE6do_getES3_S3_RSt8ios_baseRSt12_Ios_IostateRe
60654fa4 t .text$_ZNKSt7num_getIcSt19istreambuf_iteratorIcSt11char_traitsIcEEE6do_getES3_S3_RSt8ios_baseRSt12_Ios_IostateRf
60654fa4 T __ZNKSt7num_getIcSt19istreambuf_iteratorIcSt11char_traitsIcEEE6do_getES3_S3_RSt8ios_baseRSt12_Ios_IostateRf
606550c8 t .text$_ZNKSt7num_getIcSt19istreambuf_iteratorIcSt11char_traitsIcEEE6do_getES3_S3_RSt8ios_baseRSt12_Ios_IostateRj
606550c8 T __ZNKSt7num_getIcSt19istreambuf_iteratorIcSt11char_traitsIcEEE6do_getES3_S3_RSt8ios_baseRSt12_Ios_IostateRj
606550f0 t .text$_ZNKSt7num_getIcSt19istreambuf_iteratorIcSt11char_traitsIcEEE6do_getES3_S3_RSt8ios_baseRSt12_Ios_IostateRl
606550f0 T __ZNKSt7num_getIcSt19istreambuf_iteratorIcSt11char_traitsIcEEE6do_getES3_S3_RSt8ios_baseRSt12_Ios_IostateRl
60655118 t .text$_ZNKSt7num_getIcSt19istreambuf_iteratorIcSt11char_traitsIcEEE6do_getES3_S3_RSt8ios_baseRSt12_Ios_IostateRm
60655118 T __ZNKSt7num_getIcSt19istreambuf_iteratorIcSt11char_traitsIcEEE6do_getES3_S3_RSt8ios_baseRSt12_Ios_IostateRm
60655140 t .text$_ZNKSt7num_getIcSt19istreambuf_iteratorIcSt11char_traitsIcEEE6do_getES3_S3_RSt8ios_baseRSt12_Ios_IostateRt
60655140 T __ZNKSt7num_getIcSt19istreambuf_iteratorIcSt11char_traitsIcEEE6do_getES3_S3_RSt8ios_baseRSt12_Ios_IostateRt
60655168 t .text$_ZNKSt7num_getIcSt19istreambuf_iteratorIcSt11char_traitsIcEEE6do_getES3_S3_RSt8ios_baseRSt12_Ios_IostateRx
60655168 T __ZNKSt7num_getIcSt19istreambuf_iteratorIcSt11char_traitsIcEEE6do_getES3_S3_RSt8ios_baseRSt12_Ios_IostateRx
60655190 t .text$_ZNKSt7num_getIcSt19istreambuf_iteratorIcSt11char_traitsIcEEE6do_getES3_S3_RSt8ios_baseRSt12_Ios_IostateRy
60655190 T __ZNKSt7num_getIcSt19istreambuf_iteratorIcSt11char_traitsIcEEE6do_getES3_S3_RSt8ios_baseRSt12_Ios_IostateRy
606551b8 t .text$_ZNKSt7num_getIwSt19istreambuf_iteratorIwSt11char_traitsIwEEE14_M_extract_intIjEES3_S3_S3_RSt8ios_baseRSt12_Ios_IostateRT_
606551b8 T __ZNKSt7num_getIwSt19istreambuf_iteratorIwSt11char_traitsIwEEE14_M_extract_intIjEES3_S3_S3_RSt8ios_baseRSt12_Ios_IostateRT_
60655f94 t .text$_ZNKSt7num_getIwSt19istreambuf_iteratorIwSt11char_traitsIwEEE14_M_extract_intIlEES3_S3_S3_RSt8ios_baseRSt12_Ios_IostateRT_
60655f94 T __ZNKSt7num_getIwSt19istreambuf_iteratorIwSt11char_traitsIwEEE14_M_extract_intIlEES3_S3_S3_RSt8ios_baseRSt12_Ios_IostateRT_
60656da8 t .text$_ZNKSt7num_getIwSt19istreambuf_iteratorIwSt11char_traitsIwEEE14_M_extract_intImEES3_S3_S3_RSt8ios_baseRSt12_Ios_IostateRT_
60656da8 T __ZNKSt7num_getIwSt19istreambuf_iteratorIwSt11char_traitsIwEEE14_M_extract_intImEES3_S3_S3_RSt8ios_baseRSt12_Ios_IostateRT_
60657b84 t .text$_ZNKSt7num_getIwSt19istreambuf_iteratorIwSt11char_traitsIwEEE14_M_extract_intItEES3_S3_S3_RSt8ios_baseRSt12_Ios_IostateRT_
60657b84 T __ZNKSt7num_getIwSt19istreambuf_iteratorIwSt11char_traitsIwEEE14_M_extract_intItEES3_S3_S3_RSt8ios_baseRSt12_Ios_IostateRT_
60658978 t .text$_ZNKSt7num_getIwSt19istreambuf_iteratorIwSt11char_traitsIwEEE14_M_extract_intIxEES3_S3_S3_RSt8ios_baseRSt12_Ios_IostateRT_
60658978 T __ZNKSt7num_getIwSt19istreambuf_iteratorIwSt11char_traitsIwEEE14_M_extract_intIxEES3_S3_S3_RSt8ios_baseRSt12_Ios_IostateRT_
60659984 t .text$_ZNKSt7num_getIwSt19istreambuf_iteratorIwSt11char_traitsIwEEE14_M_extract_intIyEES3_S3_S3_RSt8ios_baseRSt12_Ios_IostateRT_
60659984 T __ZNKSt7num_getIwSt19istreambuf_iteratorIwSt11char_traitsIwEEE14_M_extract_intIyEES3_S3_S3_RSt8ios_baseRSt12_Ios_IostateRT_
6065a88c t .text$_ZNKSt7num_getIwSt19istreambuf_iteratorIwSt11char_traitsIwEEE16_M_extract_floatES3_S3_RSt8ios_baseRSt12_Ios_IostateRSs
6065a88c T __ZNKSt7num_getIwSt19istreambuf_iteratorIwSt11char_traitsIwEEE16_M_extract_floatES3_S3_RSt8ios_baseRSt12_Ios_IostateRSs
6065bc80 t .text$_ZNKSt7num_getIwSt19istreambuf_iteratorIwSt11char_traitsIwEEE3getES3_S3_RSt8ios_baseRSt12_Ios_IostateRPv
6065bc80 T __ZNKSt7num_getIwSt19istreambuf_iteratorIwSt11char_traitsIwEEE3getES3_S3_RSt8ios_baseRSt12_Ios_IostateRPv
6065bca8 t .text$_ZNKSt7num_getIwSt19istreambuf_iteratorIwSt11char_traitsIwEEE3getES3_S3_RSt8ios_baseRSt12_Ios_IostateRb
6065bca8 T __ZNKSt7num_getIwSt19istreambuf_iteratorIwSt11char_traitsIwEEE3getES3_S3_RSt8ios_baseRSt12_Ios_IostateRb
6065bcd0 t .text$_ZNKSt7num_getIwSt19istreambuf_iteratorIwSt11char_traitsIwEEE3getES3_S3_RSt8ios_baseRSt12_Ios_IostateRd
6065bcd0 T __ZNKSt7num_getIwSt19istreambuf_iteratorIwSt11char_traitsIwEEE3getES3_S3_RSt8ios_baseRSt12_Ios_IostateRd
6065bcf8 t .text$_ZNKSt7num_getIwSt19istreambuf_iteratorIwSt11char_traitsIwEEE3getES3_S3_RSt8ios_baseRSt12_Ios_IostateRe
6065bcf8 T __ZNKSt7num_getIwSt19istreambuf_iteratorIwSt11char_traitsIwEEE3getES3_S3_RSt8ios_baseRSt12_Ios_IostateRe
6065bd20 t .text$_ZNKSt7num_getIwSt19istreambuf_iteratorIwSt11char_traitsIwEEE3getES3_S3_RSt8ios_baseRSt12_Ios_IostateRf
6065bd20 T __ZNKSt7num_getIwSt19istreambuf_iteratorIwSt11char_traitsIwEEE3getES3_S3_RSt8ios_baseRSt12_Ios_IostateRf
6065bd48 t .text$_ZNKSt7num_getIwSt19istreambuf_iteratorIwSt11char_traitsIwEEE3getES3_S3_RSt8ios_baseRSt12_Ios_IostateRj
6065bd48 T __ZNKSt7num_getIwSt19istreambuf_iteratorIwSt11char_traitsIwEEE3getES3_S3_RSt8ios_baseRSt12_Ios_IostateRj
6065bd70 t .text$_ZNKSt7num_getIwSt19istreambuf_iteratorIwSt11char_traitsIwEEE3getES3_S3_RSt8ios_baseRSt12_Ios_IostateRl
6065bd70 T __ZNKSt7num_getIwSt19istreambuf_iteratorIwSt11char_traitsIwEEE3getES3_S3_RSt8ios_baseRSt12_Ios_IostateRl
6065bd98 t .text$_ZNKSt7num_getIwSt19istreambuf_iteratorIwSt11char_traitsIwEEE3getES3_S3_RSt8ios_baseRSt12_Ios_IostateRm
6065bd98 T __ZNKSt7num_getIwSt19istreambuf_iteratorIwSt11char_traitsIwEEE3getES3_S3_RSt8ios_baseRSt12_Ios_IostateRm
6065bdc0 t .text$_ZNKSt7num_getIwSt19istreambuf_iteratorIwSt11char_traitsIwEEE3getES3_S3_RSt8ios_baseRSt12_Ios_IostateRt
6065bdc0 T __ZNKSt7num_getIwSt19istreambuf_iteratorIwSt11char_traitsIwEEE3getES3_S3_RSt8ios_baseRSt12_Ios_IostateRt
6065bde8 t .text$_ZNKSt7num_getIwSt19istreambuf_iteratorIwSt11char_traitsIwEEE3getES3_S3_RSt8ios_baseRSt12_Ios_IostateRx
6065bde8 T __ZNKSt7num_getIwSt19istreambuf_iteratorIwSt11char_traitsIwEEE3getES3_S3_RSt8ios_baseRSt12_Ios_IostateRx
6065be10 t .text$_ZNKSt7num_getIwSt19istreambuf_iteratorIwSt11char_traitsIwEEE3getES3_S3_RSt8ios_baseRSt12_Ios_IostateRy
6065be10 T __ZNKSt7num_getIwSt19istreambuf_iteratorIwSt11char_traitsIwEEE3getES3_S3_RSt8ios_baseRSt12_Ios_IostateRy
6065be38 t .text$_ZNKSt7num_getIwSt19istreambuf_iteratorIwSt11char_traitsIwEEE6do_getES3_S3_RSt8ios_baseRSt12_Ios_IostateRPv
6065be38 T __ZNKSt7num_getIwSt19istreambuf_iteratorIwSt11char_traitsIwEEE6do_getES3_S3_RSt8ios_baseRSt12_Ios_IostateRPv
6065bea4 t .text$_ZNKSt7num_getIwSt19istreambuf_iteratorIwSt11char_traitsIwEEE6do_getES3_S3_RSt8ios_baseRSt12_Ios_IostateRb
6065bea4 T __ZNKSt7num_getIwSt19istreambuf_iteratorIwSt11char_traitsIwEEE6do_getES3_S3_RSt8ios_baseRSt12_Ios_IostateRb
6065c350 t .text$_ZNKSt7num_getIwSt19istreambuf_iteratorIwSt11char_traitsIwEEE6do_getES3_S3_RSt8ios_baseRSt12_Ios_IostateRd
6065c350 T __ZNKSt7num_getIwSt19istreambuf_iteratorIwSt11char_traitsIwEEE6do_getES3_S3_RSt8ios_baseRSt12_Ios_IostateRd
6065c480 t .text$_ZNKSt7num_getIwSt19istreambuf_iteratorIwSt11char_traitsIwEEE6do_getES3_S3_RSt8ios_baseRSt12_Ios_IostateRe
6065c480 T __ZNKSt7num_getIwSt19istreambuf_iteratorIwSt11char_traitsIwEEE6do_getES3_S3_RSt8ios_baseRSt12_Ios_IostateRe
6065c5b0 t .text$_ZNKSt7num_getIwSt19istreambuf_iteratorIwSt11char_traitsIwEEE6do_getES3_S3_RSt8ios_baseRSt12_Ios_IostateRf
6065c5b0 T __ZNKSt7num_getIwSt19istreambuf_iteratorIwSt11char_traitsIwEEE6do_getES3_S3_RSt8ios_baseRSt12_Ios_IostateRf
6065c6e0 t .text$_ZNKSt7num_getIwSt19istreambuf_iteratorIwSt11char_traitsIwEEE6do_getES3_S3_RSt8ios_baseRSt12_Ios_IostateRj
6065c6e0 T __ZNKSt7num_getIwSt19istreambuf_iteratorIwSt11char_traitsIwEEE6do_getES3_S3_RSt8ios_baseRSt12_Ios_IostateRj
